
TT_IMU_NUCLEO.elf:     file format elf32-littlearm

Sections:
Idx Name          Size      VMA       LMA       File off  Algn
  0 .isr_vector   000001c8  08000000  08000000  00010000  2**0
                  CONTENTS, ALLOC, LOAD, READONLY, DATA
  1 .text         000095f8  080001c8  080001c8  000101c8  2**2
                  CONTENTS, ALLOC, LOAD, READONLY, CODE
  2 .rodata       000000f4  080097c0  080097c0  000197c0  2**2
                  CONTENTS, ALLOC, LOAD, READONLY, DATA
  3 .ARM.extab    00000000  080098b4  080098b4  00020190  2**0
                  CONTENTS
  4 .ARM          00000008  080098b4  080098b4  000198b4  2**2
                  CONTENTS, ALLOC, LOAD, READONLY, DATA
  5 .preinit_array 00000000  080098bc  080098bc  00020190  2**0
                  CONTENTS, ALLOC, LOAD, DATA
  6 .init_array   00000004  080098bc  080098bc  000198bc  2**2
                  CONTENTS, ALLOC, LOAD, DATA
  7 .fini_array   00000004  080098c0  080098c0  000198c0  2**2
                  CONTENTS, ALLOC, LOAD, DATA
  8 .data         00000190  20000000  080098c4  00020000  2**2
                  CONTENTS, ALLOC, LOAD, DATA
  9 .bss          000003dc  20000190  08009a54  00020190  2**2
                  ALLOC
 10 ._user_heap_stack 00000604  2000056c  08009a54  0002056c  2**0
                  ALLOC
 11 .ARM.attributes 00000030  00000000  00000000  00020190  2**0
                  CONTENTS, READONLY
 12 .comment      00000043  00000000  00000000  000201c0  2**0
                  CONTENTS, READONLY
 13 .debug_info   00023669  00000000  00000000  00020203  2**0
                  CONTENTS, READONLY, DEBUGGING, OCTETS
 14 .debug_abbrev 00005fb5  00000000  00000000  0004386c  2**0
                  CONTENTS, READONLY, DEBUGGING, OCTETS
 15 .debug_aranges 00001b00  00000000  00000000  00049828  2**3
                  CONTENTS, READONLY, DEBUGGING, OCTETS
 16 .debug_rnglists 00001480  00000000  00000000  0004b328  2**0
                  CONTENTS, READONLY, DEBUGGING, OCTETS
 17 .debug_macro  0002e1b6  00000000  00000000  0004c7a8  2**0
                  CONTENTS, READONLY, DEBUGGING, OCTETS
 18 .debug_line   00022906  00000000  00000000  0007a95e  2**0
                  CONTENTS, READONLY, DEBUGGING, OCTETS
 19 .debug_str    00104e7c  00000000  00000000  0009d264  2**0
                  CONTENTS, READONLY, DEBUGGING, OCTETS
 20 .debug_frame  000074dc  00000000  00000000  001a20e0  2**2
                  CONTENTS, READONLY, DEBUGGING, OCTETS
 21 .debug_line_str 00000071  00000000  00000000  001a95bc  2**0
                  CONTENTS, READONLY, DEBUGGING, OCTETS

Disassembly of section .text:

080001c8 <__do_global_dtors_aux>:
 80001c8:	b510      	push	{r4, lr}
 80001ca:	4c05      	ldr	r4, [pc, #20]	; (80001e0 <__do_global_dtors_aux+0x18>)
 80001cc:	7823      	ldrb	r3, [r4, #0]
 80001ce:	b933      	cbnz	r3, 80001de <__do_global_dtors_aux+0x16>
 80001d0:	4b04      	ldr	r3, [pc, #16]	; (80001e4 <__do_global_dtors_aux+0x1c>)
 80001d2:	b113      	cbz	r3, 80001da <__do_global_dtors_aux+0x12>
 80001d4:	4804      	ldr	r0, [pc, #16]	; (80001e8 <__do_global_dtors_aux+0x20>)
 80001d6:	f3af 8000 	nop.w
 80001da:	2301      	movs	r3, #1
 80001dc:	7023      	strb	r3, [r4, #0]
 80001de:	bd10      	pop	{r4, pc}
 80001e0:	20000190 	.word	0x20000190
 80001e4:	00000000 	.word	0x00000000
 80001e8:	080097a8 	.word	0x080097a8

080001ec <frame_dummy>:
 80001ec:	b508      	push	{r3, lr}
 80001ee:	4b03      	ldr	r3, [pc, #12]	; (80001fc <frame_dummy+0x10>)
 80001f0:	b11b      	cbz	r3, 80001fa <frame_dummy+0xe>
 80001f2:	4903      	ldr	r1, [pc, #12]	; (8000200 <frame_dummy+0x14>)
 80001f4:	4803      	ldr	r0, [pc, #12]	; (8000204 <frame_dummy+0x18>)
 80001f6:	f3af 8000 	nop.w
 80001fa:	bd08      	pop	{r3, pc}
 80001fc:	00000000 	.word	0x00000000
 8000200:	20000194 	.word	0x20000194
 8000204:	080097a8 	.word	0x080097a8

08000208 <__aeabi_uldivmod>:
 8000208:	b953      	cbnz	r3, 8000220 <__aeabi_uldivmod+0x18>
 800020a:	b94a      	cbnz	r2, 8000220 <__aeabi_uldivmod+0x18>
 800020c:	2900      	cmp	r1, #0
 800020e:	bf08      	it	eq
 8000210:	2800      	cmpeq	r0, #0
 8000212:	bf1c      	itt	ne
 8000214:	f04f 31ff 	movne.w	r1, #4294967295	; 0xffffffff
 8000218:	f04f 30ff 	movne.w	r0, #4294967295	; 0xffffffff
 800021c:	f000 b970 	b.w	8000500 <__aeabi_idiv0>
 8000220:	f1ad 0c08 	sub.w	ip, sp, #8
 8000224:	e96d ce04 	strd	ip, lr, [sp, #-16]!
 8000228:	f000 f806 	bl	8000238 <__udivmoddi4>
 800022c:	f8dd e004 	ldr.w	lr, [sp, #4]
 8000230:	e9dd 2302 	ldrd	r2, r3, [sp, #8]
 8000234:	b004      	add	sp, #16
 8000236:	4770      	bx	lr

08000238 <__udivmoddi4>:
 8000238:	e92d 47f0 	stmdb	sp!, {r4, r5, r6, r7, r8, r9, sl, lr}
 800023c:	9e08      	ldr	r6, [sp, #32]
 800023e:	460d      	mov	r5, r1
 8000240:	4604      	mov	r4, r0
 8000242:	460f      	mov	r7, r1
 8000244:	2b00      	cmp	r3, #0
 8000246:	d14a      	bne.n	80002de <__udivmoddi4+0xa6>
 8000248:	428a      	cmp	r2, r1
 800024a:	4694      	mov	ip, r2
 800024c:	d965      	bls.n	800031a <__udivmoddi4+0xe2>
 800024e:	fab2 f382 	clz	r3, r2
 8000252:	b143      	cbz	r3, 8000266 <__udivmoddi4+0x2e>
 8000254:	fa02 fc03 	lsl.w	ip, r2, r3
 8000258:	f1c3 0220 	rsb	r2, r3, #32
 800025c:	409f      	lsls	r7, r3
 800025e:	fa20 f202 	lsr.w	r2, r0, r2
 8000262:	4317      	orrs	r7, r2
 8000264:	409c      	lsls	r4, r3
 8000266:	ea4f 4e1c 	mov.w	lr, ip, lsr #16
 800026a:	fa1f f58c 	uxth.w	r5, ip
 800026e:	fbb7 f1fe 	udiv	r1, r7, lr
 8000272:	0c22      	lsrs	r2, r4, #16
 8000274:	fb0e 7711 	mls	r7, lr, r1, r7
 8000278:	ea42 4207 	orr.w	r2, r2, r7, lsl #16
 800027c:	fb01 f005 	mul.w	r0, r1, r5
 8000280:	4290      	cmp	r0, r2
 8000282:	d90a      	bls.n	800029a <__udivmoddi4+0x62>
 8000284:	eb1c 0202 	adds.w	r2, ip, r2
 8000288:	f101 37ff 	add.w	r7, r1, #4294967295	; 0xffffffff
 800028c:	f080 811c 	bcs.w	80004c8 <__udivmoddi4+0x290>
 8000290:	4290      	cmp	r0, r2
 8000292:	f240 8119 	bls.w	80004c8 <__udivmoddi4+0x290>
 8000296:	3902      	subs	r1, #2
 8000298:	4462      	add	r2, ip
 800029a:	1a12      	subs	r2, r2, r0
 800029c:	b2a4      	uxth	r4, r4
 800029e:	fbb2 f0fe 	udiv	r0, r2, lr
 80002a2:	fb0e 2210 	mls	r2, lr, r0, r2
 80002a6:	ea44 4402 	orr.w	r4, r4, r2, lsl #16
 80002aa:	fb00 f505 	mul.w	r5, r0, r5
 80002ae:	42a5      	cmp	r5, r4
 80002b0:	d90a      	bls.n	80002c8 <__udivmoddi4+0x90>
 80002b2:	eb1c 0404 	adds.w	r4, ip, r4
 80002b6:	f100 32ff 	add.w	r2, r0, #4294967295	; 0xffffffff
 80002ba:	f080 8107 	bcs.w	80004cc <__udivmoddi4+0x294>
 80002be:	42a5      	cmp	r5, r4
 80002c0:	f240 8104 	bls.w	80004cc <__udivmoddi4+0x294>
 80002c4:	4464      	add	r4, ip
 80002c6:	3802      	subs	r0, #2
 80002c8:	ea40 4001 	orr.w	r0, r0, r1, lsl #16
 80002cc:	1b64      	subs	r4, r4, r5
 80002ce:	2100      	movs	r1, #0
 80002d0:	b11e      	cbz	r6, 80002da <__udivmoddi4+0xa2>
 80002d2:	40dc      	lsrs	r4, r3
 80002d4:	2300      	movs	r3, #0
 80002d6:	e9c6 4300 	strd	r4, r3, [r6]
 80002da:	e8bd 87f0 	ldmia.w	sp!, {r4, r5, r6, r7, r8, r9, sl, pc}
 80002de:	428b      	cmp	r3, r1
 80002e0:	d908      	bls.n	80002f4 <__udivmoddi4+0xbc>
 80002e2:	2e00      	cmp	r6, #0
 80002e4:	f000 80ed 	beq.w	80004c2 <__udivmoddi4+0x28a>
 80002e8:	2100      	movs	r1, #0
 80002ea:	e9c6 0500 	strd	r0, r5, [r6]
 80002ee:	4608      	mov	r0, r1
 80002f0:	e8bd 87f0 	ldmia.w	sp!, {r4, r5, r6, r7, r8, r9, sl, pc}
 80002f4:	fab3 f183 	clz	r1, r3
 80002f8:	2900      	cmp	r1, #0
 80002fa:	d149      	bne.n	8000390 <__udivmoddi4+0x158>
 80002fc:	42ab      	cmp	r3, r5
 80002fe:	d302      	bcc.n	8000306 <__udivmoddi4+0xce>
 8000300:	4282      	cmp	r2, r0
 8000302:	f200 80f8 	bhi.w	80004f6 <__udivmoddi4+0x2be>
 8000306:	1a84      	subs	r4, r0, r2
 8000308:	eb65 0203 	sbc.w	r2, r5, r3
 800030c:	2001      	movs	r0, #1
 800030e:	4617      	mov	r7, r2
 8000310:	2e00      	cmp	r6, #0
 8000312:	d0e2      	beq.n	80002da <__udivmoddi4+0xa2>
 8000314:	e9c6 4700 	strd	r4, r7, [r6]
 8000318:	e7df      	b.n	80002da <__udivmoddi4+0xa2>
 800031a:	b902      	cbnz	r2, 800031e <__udivmoddi4+0xe6>
 800031c:	deff      	udf	#255	; 0xff
 800031e:	fab2 f382 	clz	r3, r2
 8000322:	2b00      	cmp	r3, #0
 8000324:	f040 8090 	bne.w	8000448 <__udivmoddi4+0x210>
 8000328:	1a8a      	subs	r2, r1, r2
 800032a:	ea4f 471c 	mov.w	r7, ip, lsr #16
 800032e:	fa1f fe8c 	uxth.w	lr, ip
 8000332:	2101      	movs	r1, #1
 8000334:	fbb2 f5f7 	udiv	r5, r2, r7
 8000338:	fb07 2015 	mls	r0, r7, r5, r2
 800033c:	0c22      	lsrs	r2, r4, #16
 800033e:	ea42 4200 	orr.w	r2, r2, r0, lsl #16
 8000342:	fb0e f005 	mul.w	r0, lr, r5
 8000346:	4290      	cmp	r0, r2
 8000348:	d908      	bls.n	800035c <__udivmoddi4+0x124>
 800034a:	eb1c 0202 	adds.w	r2, ip, r2
 800034e:	f105 38ff 	add.w	r8, r5, #4294967295	; 0xffffffff
 8000352:	d202      	bcs.n	800035a <__udivmoddi4+0x122>
 8000354:	4290      	cmp	r0, r2
 8000356:	f200 80cb 	bhi.w	80004f0 <__udivmoddi4+0x2b8>
 800035a:	4645      	mov	r5, r8
 800035c:	1a12      	subs	r2, r2, r0
 800035e:	b2a4      	uxth	r4, r4
 8000360:	fbb2 f0f7 	udiv	r0, r2, r7
 8000364:	fb07 2210 	mls	r2, r7, r0, r2
 8000368:	ea44 4402 	orr.w	r4, r4, r2, lsl #16
 800036c:	fb0e fe00 	mul.w	lr, lr, r0
 8000370:	45a6      	cmp	lr, r4
 8000372:	d908      	bls.n	8000386 <__udivmoddi4+0x14e>
 8000374:	eb1c 0404 	adds.w	r4, ip, r4
 8000378:	f100 32ff 	add.w	r2, r0, #4294967295	; 0xffffffff
 800037c:	d202      	bcs.n	8000384 <__udivmoddi4+0x14c>
 800037e:	45a6      	cmp	lr, r4
 8000380:	f200 80bb 	bhi.w	80004fa <__udivmoddi4+0x2c2>
 8000384:	4610      	mov	r0, r2
 8000386:	eba4 040e 	sub.w	r4, r4, lr
 800038a:	ea40 4005 	orr.w	r0, r0, r5, lsl #16
 800038e:	e79f      	b.n	80002d0 <__udivmoddi4+0x98>
 8000390:	f1c1 0720 	rsb	r7, r1, #32
 8000394:	408b      	lsls	r3, r1
 8000396:	fa22 fc07 	lsr.w	ip, r2, r7
 800039a:	ea4c 0c03 	orr.w	ip, ip, r3
 800039e:	fa05 f401 	lsl.w	r4, r5, r1
 80003a2:	fa20 f307 	lsr.w	r3, r0, r7
 80003a6:	40fd      	lsrs	r5, r7
 80003a8:	ea4f 491c 	mov.w	r9, ip, lsr #16
 80003ac:	4323      	orrs	r3, r4
 80003ae:	fbb5 f8f9 	udiv	r8, r5, r9
 80003b2:	fa1f fe8c 	uxth.w	lr, ip
 80003b6:	fb09 5518 	mls	r5, r9, r8, r5
 80003ba:	0c1c      	lsrs	r4, r3, #16
 80003bc:	ea44 4405 	orr.w	r4, r4, r5, lsl #16
 80003c0:	fb08 f50e 	mul.w	r5, r8, lr
 80003c4:	42a5      	cmp	r5, r4
 80003c6:	fa02 f201 	lsl.w	r2, r2, r1
 80003ca:	fa00 f001 	lsl.w	r0, r0, r1
 80003ce:	d90b      	bls.n	80003e8 <__udivmoddi4+0x1b0>
 80003d0:	eb1c 0404 	adds.w	r4, ip, r4
 80003d4:	f108 3aff 	add.w	sl, r8, #4294967295	; 0xffffffff
 80003d8:	f080 8088 	bcs.w	80004ec <__udivmoddi4+0x2b4>
 80003dc:	42a5      	cmp	r5, r4
 80003de:	f240 8085 	bls.w	80004ec <__udivmoddi4+0x2b4>
 80003e2:	f1a8 0802 	sub.w	r8, r8, #2
 80003e6:	4464      	add	r4, ip
 80003e8:	1b64      	subs	r4, r4, r5
 80003ea:	b29d      	uxth	r5, r3
 80003ec:	fbb4 f3f9 	udiv	r3, r4, r9
 80003f0:	fb09 4413 	mls	r4, r9, r3, r4
 80003f4:	ea45 4404 	orr.w	r4, r5, r4, lsl #16
 80003f8:	fb03 fe0e 	mul.w	lr, r3, lr
 80003fc:	45a6      	cmp	lr, r4
 80003fe:	d908      	bls.n	8000412 <__udivmoddi4+0x1da>
 8000400:	eb1c 0404 	adds.w	r4, ip, r4
 8000404:	f103 35ff 	add.w	r5, r3, #4294967295	; 0xffffffff
 8000408:	d26c      	bcs.n	80004e4 <__udivmoddi4+0x2ac>
 800040a:	45a6      	cmp	lr, r4
 800040c:	d96a      	bls.n	80004e4 <__udivmoddi4+0x2ac>
 800040e:	3b02      	subs	r3, #2
 8000410:	4464      	add	r4, ip
 8000412:	ea43 4308 	orr.w	r3, r3, r8, lsl #16
 8000416:	fba3 9502 	umull	r9, r5, r3, r2
 800041a:	eba4 040e 	sub.w	r4, r4, lr
 800041e:	42ac      	cmp	r4, r5
 8000420:	46c8      	mov	r8, r9
 8000422:	46ae      	mov	lr, r5
 8000424:	d356      	bcc.n	80004d4 <__udivmoddi4+0x29c>
 8000426:	d053      	beq.n	80004d0 <__udivmoddi4+0x298>
 8000428:	b156      	cbz	r6, 8000440 <__udivmoddi4+0x208>
 800042a:	ebb0 0208 	subs.w	r2, r0, r8
 800042e:	eb64 040e 	sbc.w	r4, r4, lr
 8000432:	fa04 f707 	lsl.w	r7, r4, r7
 8000436:	40ca      	lsrs	r2, r1
 8000438:	40cc      	lsrs	r4, r1
 800043a:	4317      	orrs	r7, r2
 800043c:	e9c6 7400 	strd	r7, r4, [r6]
 8000440:	4618      	mov	r0, r3
 8000442:	2100      	movs	r1, #0
 8000444:	e8bd 87f0 	ldmia.w	sp!, {r4, r5, r6, r7, r8, r9, sl, pc}
 8000448:	f1c3 0120 	rsb	r1, r3, #32
 800044c:	fa02 fc03 	lsl.w	ip, r2, r3
 8000450:	fa20 f201 	lsr.w	r2, r0, r1
 8000454:	fa25 f101 	lsr.w	r1, r5, r1
 8000458:	409d      	lsls	r5, r3
 800045a:	432a      	orrs	r2, r5
 800045c:	ea4f 471c 	mov.w	r7, ip, lsr #16
 8000460:	fa1f fe8c 	uxth.w	lr, ip
 8000464:	fbb1 f0f7 	udiv	r0, r1, r7
 8000468:	fb07 1510 	mls	r5, r7, r0, r1
 800046c:	0c11      	lsrs	r1, r2, #16
 800046e:	ea41 4105 	orr.w	r1, r1, r5, lsl #16
 8000472:	fb00 f50e 	mul.w	r5, r0, lr
 8000476:	428d      	cmp	r5, r1
 8000478:	fa04 f403 	lsl.w	r4, r4, r3
 800047c:	d908      	bls.n	8000490 <__udivmoddi4+0x258>
 800047e:	eb1c 0101 	adds.w	r1, ip, r1
 8000482:	f100 38ff 	add.w	r8, r0, #4294967295	; 0xffffffff
 8000486:	d22f      	bcs.n	80004e8 <__udivmoddi4+0x2b0>
 8000488:	428d      	cmp	r5, r1
 800048a:	d92d      	bls.n	80004e8 <__udivmoddi4+0x2b0>
 800048c:	3802      	subs	r0, #2
 800048e:	4461      	add	r1, ip
 8000490:	1b49      	subs	r1, r1, r5
 8000492:	b292      	uxth	r2, r2
 8000494:	fbb1 f5f7 	udiv	r5, r1, r7
 8000498:	fb07 1115 	mls	r1, r7, r5, r1
 800049c:	ea42 4201 	orr.w	r2, r2, r1, lsl #16
 80004a0:	fb05 f10e 	mul.w	r1, r5, lr
 80004a4:	4291      	cmp	r1, r2
 80004a6:	d908      	bls.n	80004ba <__udivmoddi4+0x282>
 80004a8:	eb1c 0202 	adds.w	r2, ip, r2
 80004ac:	f105 38ff 	add.w	r8, r5, #4294967295	; 0xffffffff
 80004b0:	d216      	bcs.n	80004e0 <__udivmoddi4+0x2a8>
 80004b2:	4291      	cmp	r1, r2
 80004b4:	d914      	bls.n	80004e0 <__udivmoddi4+0x2a8>
 80004b6:	3d02      	subs	r5, #2
 80004b8:	4462      	add	r2, ip
 80004ba:	1a52      	subs	r2, r2, r1
 80004bc:	ea45 4100 	orr.w	r1, r5, r0, lsl #16
 80004c0:	e738      	b.n	8000334 <__udivmoddi4+0xfc>
 80004c2:	4631      	mov	r1, r6
 80004c4:	4630      	mov	r0, r6
 80004c6:	e708      	b.n	80002da <__udivmoddi4+0xa2>
 80004c8:	4639      	mov	r1, r7
 80004ca:	e6e6      	b.n	800029a <__udivmoddi4+0x62>
 80004cc:	4610      	mov	r0, r2
 80004ce:	e6fb      	b.n	80002c8 <__udivmoddi4+0x90>
 80004d0:	4548      	cmp	r0, r9
 80004d2:	d2a9      	bcs.n	8000428 <__udivmoddi4+0x1f0>
 80004d4:	ebb9 0802 	subs.w	r8, r9, r2
 80004d8:	eb65 0e0c 	sbc.w	lr, r5, ip
 80004dc:	3b01      	subs	r3, #1
 80004de:	e7a3      	b.n	8000428 <__udivmoddi4+0x1f0>
 80004e0:	4645      	mov	r5, r8
 80004e2:	e7ea      	b.n	80004ba <__udivmoddi4+0x282>
 80004e4:	462b      	mov	r3, r5
 80004e6:	e794      	b.n	8000412 <__udivmoddi4+0x1da>
 80004e8:	4640      	mov	r0, r8
 80004ea:	e7d1      	b.n	8000490 <__udivmoddi4+0x258>
 80004ec:	46d0      	mov	r8, sl
 80004ee:	e77b      	b.n	80003e8 <__udivmoddi4+0x1b0>
 80004f0:	3d02      	subs	r5, #2
 80004f2:	4462      	add	r2, ip
 80004f4:	e732      	b.n	800035c <__udivmoddi4+0x124>
 80004f6:	4608      	mov	r0, r1
 80004f8:	e70a      	b.n	8000310 <__udivmoddi4+0xd8>
 80004fa:	4464      	add	r4, ip
 80004fc:	3802      	subs	r0, #2
 80004fe:	e742      	b.n	8000386 <__udivmoddi4+0x14e>

08000500 <__aeabi_idiv0>:
 8000500:	4770      	bx	lr
 8000502:	bf00      	nop

08000504 <_Z15CNI_constructorP19__CAN_HandleTypeDef>:

static CNI_t _instance;


void CNI_constructor(CAN_HandleTypeDef *hcan)
{
 8000504:	b480      	push	{r7}
 8000506:	b083      	sub	sp, #12
 8000508:	af00      	add	r7, sp, #0
 800050a:	6078      	str	r0, [r7, #4]
	_instance.mHcan_ = hcan;
 800050c:	4a0a      	ldr	r2, [pc, #40]	; (8000538 <_Z15CNI_constructorP19__CAN_HandleTypeDef+0x34>)
 800050e:	687b      	ldr	r3, [r7, #4]
 8000510:	6013      	str	r3, [r2, #0]

	_instance.mCANtxHeader_.ExtId = 0;
 8000512:	4b09      	ldr	r3, [pc, #36]	; (8000538 <_Z15CNI_constructorP19__CAN_HandleTypeDef+0x34>)
 8000514:	2200      	movs	r2, #0
 8000516:	60da      	str	r2, [r3, #12]
	_instance.mCANtxHeader_.IDE = CAN_ID_STD;
 8000518:	4b07      	ldr	r3, [pc, #28]	; (8000538 <_Z15CNI_constructorP19__CAN_HandleTypeDef+0x34>)
 800051a:	2200      	movs	r2, #0
 800051c:	611a      	str	r2, [r3, #16]
	_instance.mCANtxHeader_.RTR = CAN_RTR_DATA;
 800051e:	4b06      	ldr	r3, [pc, #24]	; (8000538 <_Z15CNI_constructorP19__CAN_HandleTypeDef+0x34>)
 8000520:	2200      	movs	r2, #0
 8000522:	615a      	str	r2, [r3, #20]
	_instance.mCANtxHeader_.TransmitGlobalTime = DISABLE;
 8000524:	4b04      	ldr	r3, [pc, #16]	; (8000538 <_Z15CNI_constructorP19__CAN_HandleTypeDef+0x34>)
 8000526:	2200      	movs	r2, #0
 8000528:	771a      	strb	r2, [r3, #28]
}
 800052a:	bf00      	nop
 800052c:	370c      	adds	r7, #12
 800052e:	46bd      	mov	sp, r7
 8000530:	f85d 7b04 	ldr.w	r7, [sp], #4
 8000534:	4770      	bx	lr
 8000536:	bf00      	nop
 8000538:	200001ac 	.word	0x200001ac

0800053c <_Z8CNI_initv>:


void CNI_init(void)
{
 800053c:	b580      	push	{r7, lr}
 800053e:	b082      	sub	sp, #8
 8000540:	af00      	add	r7, sp, #0
	uint32_t i;

	for(i = 0; i < lenCANfilterList ; i++)
 8000542:	2300      	movs	r3, #0
 8000544:	607b      	str	r3, [r7, #4]
 8000546:	e00e      	b.n	8000566 <_Z8CNI_initv+0x2a>
	{
		HAL_CAN_ConfigFilter(_instance.mHcan_, &CANfiltersList[i]);
 8000548:	4b0c      	ldr	r3, [pc, #48]	; (800057c <_Z8CNI_initv+0x40>)
 800054a:	6818      	ldr	r0, [r3, #0]
 800054c:	687a      	ldr	r2, [r7, #4]
 800054e:	4613      	mov	r3, r2
 8000550:	009b      	lsls	r3, r3, #2
 8000552:	4413      	add	r3, r2
 8000554:	00db      	lsls	r3, r3, #3
 8000556:	4a0a      	ldr	r2, [pc, #40]	; (8000580 <_Z8CNI_initv+0x44>)
 8000558:	4413      	add	r3, r2
 800055a:	4619      	mov	r1, r3
 800055c:	f004 fc4a 	bl	8004df4 <HAL_CAN_ConfigFilter>
	for(i = 0; i < lenCANfilterList ; i++)
 8000560:	687b      	ldr	r3, [r7, #4]
 8000562:	3301      	adds	r3, #1
 8000564:	607b      	str	r3, [r7, #4]
 8000566:	4b07      	ldr	r3, [pc, #28]	; (8000584 <_Z8CNI_initv+0x48>)
 8000568:	681b      	ldr	r3, [r3, #0]
 800056a:	687a      	ldr	r2, [r7, #4]
 800056c:	429a      	cmp	r2, r3
 800056e:	d3eb      	bcc.n	8000548 <_Z8CNI_initv+0xc>
	}
}
 8000570:	bf00      	nop
 8000572:	bf00      	nop
 8000574:	3708      	adds	r7, #8
 8000576:	46bd      	mov	sp, r7
 8000578:	bd80      	pop	{r7, pc}
 800057a:	bf00      	nop
 800057c:	200001ac 	.word	0x200001ac
 8000580:	20000104 	.word	0x20000104
 8000584:	20000130 	.word	0x20000130

08000588 <_Z9CNI_startv>:


void CNI_start(void)
{
 8000588:	b580      	push	{r7, lr}
 800058a:	af00      	add	r7, sp, #0
	HAL_CAN_Start(_instance.mHcan_);
 800058c:	4b03      	ldr	r3, [pc, #12]	; (800059c <_Z9CNI_startv+0x14>)
 800058e:	681b      	ldr	r3, [r3, #0]
 8000590:	4618      	mov	r0, r3
 8000592:	f004 fd0f 	bl	8004fb4 <HAL_CAN_Start>
#if !IS_MASTER
    HAL_CAN_ActivateNotification(_instance.mHcan_, CAN_IT_RX_FIFO0_MSG_PENDING);
#endif
}
 8000596:	bf00      	nop
 8000598:	bd80      	pop	{r7, pc}
 800059a:	bf00      	nop
 800059c:	200001ac 	.word	0x200001ac

080005a0 <_Z12CNI_send_msgm>:


CNI_status_t CNI_send_msg(uint32_t msgHandle)
{
 80005a0:	b580      	push	{r7, lr}
 80005a2:	b086      	sub	sp, #24
 80005a4:	af00      	add	r7, sp, #0
 80005a6:	6078      	str	r0, [r7, #4]
	uint32_t txMailbox;
	serviceID currentMsgServiceID;
	uint32_t i;

	if(msgHandle >= lenCANmsgList)
 80005a8:	4b41      	ldr	r3, [pc, #260]	; (80006b0 <_Z12CNI_send_msgm+0x110>)
 80005aa:	681b      	ldr	r3, [r3, #0]
 80005ac:	687a      	ldr	r2, [r7, #4]
 80005ae:	429a      	cmp	r2, r3
 80005b0:	d301      	bcc.n	80005b6 <_Z12CNI_send_msgm+0x16>
	{
		return CNI_MSG_HANDLE_NOT_VALID;
 80005b2:	2301      	movs	r3, #1
 80005b4:	e077      	b.n	80006a6 <_Z12CNI_send_msgm+0x106>
	}

	if(CANmsgList[msgHandle].mNodeID_ != MY_NODE_ID)
 80005b6:	493f      	ldr	r1, [pc, #252]	; (80006b4 <_Z12CNI_send_msgm+0x114>)
 80005b8:	687a      	ldr	r2, [r7, #4]
 80005ba:	4613      	mov	r3, r2
 80005bc:	009b      	lsls	r3, r3, #2
 80005be:	4413      	add	r3, r2
 80005c0:	009b      	lsls	r3, r3, #2
 80005c2:	440b      	add	r3, r1
 80005c4:	3304      	adds	r3, #4
 80005c6:	681b      	ldr	r3, [r3, #0]
 80005c8:	2b00      	cmp	r3, #0
 80005ca:	d001      	beq.n	80005d0 <_Z12CNI_send_msgm+0x30>
	{
		return CNI_MSG_HANDLE_TX_NOT_ALLOWED;
 80005cc:	2302      	movs	r3, #2
 80005ce:	e06a      	b.n	80006a6 <_Z12CNI_send_msgm+0x106>
	}

	// Armar el mensaje
	currentMsgServiceID = CANmsgList[msgHandle].mServiceID_;
 80005d0:	4938      	ldr	r1, [pc, #224]	; (80006b4 <_Z12CNI_send_msgm+0x114>)
 80005d2:	687a      	ldr	r2, [r7, #4]
 80005d4:	4613      	mov	r3, r2
 80005d6:	009b      	lsls	r3, r3, #2
 80005d8:	4413      	add	r3, r2
 80005da:	009b      	lsls	r3, r3, #2
 80005dc:	440b      	add	r3, r1
 80005de:	681b      	ldr	r3, [r3, #0]
 80005e0:	613b      	str	r3, [r7, #16]
	_instance.mCANtxHeader_.StdId = CAN_MSG_MAKE_STD_ID_TX(currentMsgServiceID);
 80005e2:	693b      	ldr	r3, [r7, #16]
 80005e4:	00db      	lsls	r3, r3, #3
 80005e6:	4a34      	ldr	r2, [pc, #208]	; (80006b8 <_Z12CNI_send_msgm+0x118>)
 80005e8:	6093      	str	r3, [r2, #8]

	// Pasarle el msj al periférico

	// Limpia todos los mensajes pendientes (no debería haber ninguno, pero por las dudas)
	HAL_CAN_AbortTxRequest(_instance.mHcan_,CAN_TX_MAILBOX0|CAN_TX_MAILBOX1|CAN_TX_MAILBOX2);
 80005ea:	4b33      	ldr	r3, [pc, #204]	; (80006b8 <_Z12CNI_send_msgm+0x118>)
 80005ec:	681b      	ldr	r3, [r3, #0]
 80005ee:	2107      	movs	r1, #7
 80005f0:	4618      	mov	r0, r3
 80005f2:	f004 fdf3 	bl	80051dc <HAL_CAN_AbortTxRequest>

	// Comenzando por la posición "msgHandle" se recorre la lista de mensajes. Esto es debido
	// a que es posible que se requiera enviar más de un mensaje.
	i = msgHandle;
 80005f6:	687b      	ldr	r3, [r7, #4]
 80005f8:	617b      	str	r3, [r7, #20]
	while( (i < lenCANmsgList) && (CANmsgList[i].mServiceID_ == currentMsgServiceID) && (CANmsgList[i].mNodeID_ == MY_NODE_ID) )
 80005fa:	e02a      	b.n	8000652 <_Z12CNI_send_msgm+0xb2>
	{
		while(HAL_CAN_GetTxMailboxesFreeLevel(_instance.mHcan_) == 0);
 80005fc:	bf00      	nop
 80005fe:	4b2e      	ldr	r3, [pc, #184]	; (80006b8 <_Z12CNI_send_msgm+0x118>)
 8000600:	681b      	ldr	r3, [r3, #0]
 8000602:	4618      	mov	r0, r3
 8000604:	f004 fe2f 	bl	8005266 <HAL_CAN_GetTxMailboxesFreeLevel>
 8000608:	4603      	mov	r3, r0
 800060a:	2b00      	cmp	r3, #0
 800060c:	bf0c      	ite	eq
 800060e:	2301      	moveq	r3, #1
 8000610:	2300      	movne	r3, #0
 8000612:	b2db      	uxtb	r3, r3
 8000614:	2b00      	cmp	r3, #0
 8000616:	d1f2      	bne.n	80005fe <_Z12CNI_send_msgm+0x5e>

		_instance.mCANtxHeader_.DLC = CANmsgList[i].mLenPayload_;
 8000618:	4926      	ldr	r1, [pc, #152]	; (80006b4 <_Z12CNI_send_msgm+0x114>)
 800061a:	697a      	ldr	r2, [r7, #20]
 800061c:	4613      	mov	r3, r2
 800061e:	009b      	lsls	r3, r3, #2
 8000620:	4413      	add	r3, r2
 8000622:	009b      	lsls	r3, r3, #2
 8000624:	440b      	add	r3, r1
 8000626:	3310      	adds	r3, #16
 8000628:	681b      	ldr	r3, [r3, #0]
 800062a:	4a23      	ldr	r2, [pc, #140]	; (80006b8 <_Z12CNI_send_msgm+0x118>)
 800062c:	6193      	str	r3, [r2, #24]
		HAL_CAN_AddTxMessage(_instance.mHcan_, &_instance.mCANtxHeader_, CANmsgList[i].mPayload_, &txMailbox);
 800062e:	4b22      	ldr	r3, [pc, #136]	; (80006b8 <_Z12CNI_send_msgm+0x118>)
 8000630:	6818      	ldr	r0, [r3, #0]
 8000632:	697a      	ldr	r2, [r7, #20]
 8000634:	4613      	mov	r3, r2
 8000636:	009b      	lsls	r3, r3, #2
 8000638:	4413      	add	r3, r2
 800063a:	009b      	lsls	r3, r3, #2
 800063c:	3308      	adds	r3, #8
 800063e:	4a1d      	ldr	r2, [pc, #116]	; (80006b4 <_Z12CNI_send_msgm+0x114>)
 8000640:	441a      	add	r2, r3
 8000642:	f107 030c 	add.w	r3, r7, #12
 8000646:	491d      	ldr	r1, [pc, #116]	; (80006bc <_Z12CNI_send_msgm+0x11c>)
 8000648:	f004 fcf8 	bl	800503c <HAL_CAN_AddTxMessage>
		i++;
 800064c:	697b      	ldr	r3, [r7, #20]
 800064e:	3301      	adds	r3, #1
 8000650:	617b      	str	r3, [r7, #20]
	while( (i < lenCANmsgList) && (CANmsgList[i].mServiceID_ == currentMsgServiceID) && (CANmsgList[i].mNodeID_ == MY_NODE_ID) )
 8000652:	4b17      	ldr	r3, [pc, #92]	; (80006b0 <_Z12CNI_send_msgm+0x110>)
 8000654:	681b      	ldr	r3, [r3, #0]
 8000656:	697a      	ldr	r2, [r7, #20]
 8000658:	429a      	cmp	r2, r3
 800065a:	d215      	bcs.n	8000688 <_Z12CNI_send_msgm+0xe8>
 800065c:	4915      	ldr	r1, [pc, #84]	; (80006b4 <_Z12CNI_send_msgm+0x114>)
 800065e:	697a      	ldr	r2, [r7, #20]
 8000660:	4613      	mov	r3, r2
 8000662:	009b      	lsls	r3, r3, #2
 8000664:	4413      	add	r3, r2
 8000666:	009b      	lsls	r3, r3, #2
 8000668:	440b      	add	r3, r1
 800066a:	681b      	ldr	r3, [r3, #0]
 800066c:	693a      	ldr	r2, [r7, #16]
 800066e:	429a      	cmp	r2, r3
 8000670:	d10a      	bne.n	8000688 <_Z12CNI_send_msgm+0xe8>
 8000672:	4910      	ldr	r1, [pc, #64]	; (80006b4 <_Z12CNI_send_msgm+0x114>)
 8000674:	697a      	ldr	r2, [r7, #20]
 8000676:	4613      	mov	r3, r2
 8000678:	009b      	lsls	r3, r3, #2
 800067a:	4413      	add	r3, r2
 800067c:	009b      	lsls	r3, r3, #2
 800067e:	440b      	add	r3, r1
 8000680:	3304      	adds	r3, #4
 8000682:	681b      	ldr	r3, [r3, #0]
 8000684:	2b00      	cmp	r3, #0
 8000686:	d0b9      	beq.n	80005fc <_Z12CNI_send_msgm+0x5c>
	}

	// Antes de retornar, se queda esperando a que se terminen de enviar todos los mensajes
	while(HAL_CAN_GetTxMailboxesFreeLevel(_instance.mHcan_) == 0);
 8000688:	bf00      	nop
 800068a:	4b0b      	ldr	r3, [pc, #44]	; (80006b8 <_Z12CNI_send_msgm+0x118>)
 800068c:	681b      	ldr	r3, [r3, #0]
 800068e:	4618      	mov	r0, r3
 8000690:	f004 fde9 	bl	8005266 <HAL_CAN_GetTxMailboxesFreeLevel>
 8000694:	4603      	mov	r3, r0
 8000696:	2b00      	cmp	r3, #0
 8000698:	bf0c      	ite	eq
 800069a:	2301      	moveq	r3, #1
 800069c:	2300      	movne	r3, #0
 800069e:	b2db      	uxtb	r3, r3
 80006a0:	2b00      	cmp	r3, #0
 80006a2:	d1f2      	bne.n	800068a <_Z12CNI_send_msgm+0xea>

	return CNI_OK;
 80006a4:	2300      	movs	r3, #0
}
 80006a6:	4618      	mov	r0, r3
 80006a8:	3718      	adds	r7, #24
 80006aa:	46bd      	mov	sp, r7
 80006ac:	bd80      	pop	{r7, pc}
 80006ae:	bf00      	nop
 80006b0:	2000012c 	.word	0x2000012c
 80006b4:	20000000 	.word	0x20000000
 80006b8:	200001ac 	.word	0x200001ac
 80006bc:	200001b4 	.word	0x200001b4

080006c0 <_Z22CNI_update_msg_contentmPhm>:

	return CNI_OK;
}

CNI_status_t CNI_update_msg_content(uint32_t msgHandle, uint8_t *payload, uint32_t lenPayload)
{
 80006c0:	b580      	push	{r7, lr}
 80006c2:	b088      	sub	sp, #32
 80006c4:	af00      	add	r7, sp, #0
 80006c6:	60f8      	str	r0, [r7, #12]
 80006c8:	60b9      	str	r1, [r7, #8]
 80006ca:	607a      	str	r2, [r7, #4]
	serviceID rxMsgServiceID;
	uint32_t rxNodeID;
	uint32_t auxLenPayload;

	// Chequear si el msgHandle es válido
	if(msgHandle >= lenCANmsgList)
 80006cc:	4b48      	ldr	r3, [pc, #288]	; (80007f0 <_Z22CNI_update_msg_contentmPhm+0x130>)
 80006ce:	681b      	ldr	r3, [r3, #0]
 80006d0:	68fa      	ldr	r2, [r7, #12]
 80006d2:	429a      	cmp	r2, r3
 80006d4:	d301      	bcc.n	80006da <_Z22CNI_update_msg_contentmPhm+0x1a>
	{
		return CNI_MSG_HANDLE_NOT_VALID;
 80006d6:	2301      	movs	r3, #1
 80006d8:	e086      	b.n	80007e8 <_Z22CNI_update_msg_contentmPhm+0x128>
	}

	if(CANmsgList[msgHandle].mNodeID_ != MY_NODE_ID)
 80006da:	4946      	ldr	r1, [pc, #280]	; (80007f4 <_Z22CNI_update_msg_contentmPhm+0x134>)
 80006dc:	68fa      	ldr	r2, [r7, #12]
 80006de:	4613      	mov	r3, r2
 80006e0:	009b      	lsls	r3, r3, #2
 80006e2:	4413      	add	r3, r2
 80006e4:	009b      	lsls	r3, r3, #2
 80006e6:	440b      	add	r3, r1
 80006e8:	3304      	adds	r3, #4
 80006ea:	681b      	ldr	r3, [r3, #0]
 80006ec:	2b00      	cmp	r3, #0
 80006ee:	d001      	beq.n	80006f4 <_Z22CNI_update_msg_contentmPhm+0x34>
	{
		return CNI_MSG_HANDLE_TX_NOT_ALLOWED;
 80006f0:	2302      	movs	r3, #2
 80006f2:	e079      	b.n	80007e8 <_Z22CNI_update_msg_contentmPhm+0x128>
	}

	i = msgHandle;
 80006f4:	68fb      	ldr	r3, [r7, #12]
 80006f6:	61fb      	str	r3, [r7, #28]
	rxMsgServiceID = CANmsgList[msgHandle].mServiceID_;
 80006f8:	493e      	ldr	r1, [pc, #248]	; (80007f4 <_Z22CNI_update_msg_contentmPhm+0x134>)
 80006fa:	68fa      	ldr	r2, [r7, #12]
 80006fc:	4613      	mov	r3, r2
 80006fe:	009b      	lsls	r3, r3, #2
 8000700:	4413      	add	r3, r2
 8000702:	009b      	lsls	r3, r3, #2
 8000704:	440b      	add	r3, r1
 8000706:	681b      	ldr	r3, [r3, #0]
 8000708:	617b      	str	r3, [r7, #20]
	rxNodeID = CANmsgList[msgHandle].mNodeID_;
 800070a:	493a      	ldr	r1, [pc, #232]	; (80007f4 <_Z22CNI_update_msg_contentmPhm+0x134>)
 800070c:	68fa      	ldr	r2, [r7, #12]
 800070e:	4613      	mov	r3, r2
 8000710:	009b      	lsls	r3, r3, #2
 8000712:	4413      	add	r3, r2
 8000714:	009b      	lsls	r3, r3, #2
 8000716:	440b      	add	r3, r1
 8000718:	3304      	adds	r3, #4
 800071a:	681b      	ldr	r3, [r3, #0]
 800071c:	613b      	str	r3, [r7, #16]
	auxLenPayload = lenPayload;
 800071e:	687b      	ldr	r3, [r7, #4]
 8000720:	61bb      	str	r3, [r7, #24]

	while((i < lenCANmsgList) && (CANmsgList[i].mServiceID_ == rxMsgServiceID) && (CANmsgList[i].mNodeID_ == rxNodeID) && (auxLenPayload > 0))
 8000722:	e041      	b.n	80007a8 <_Z22CNI_update_msg_contentmPhm+0xe8>
	{
		if(auxLenPayload > MAX_LEN_PAYLOAD_CAN)
 8000724:	69bb      	ldr	r3, [r7, #24]
 8000726:	2b08      	cmp	r3, #8
 8000728:	d91e      	bls.n	8000768 <_Z22CNI_update_msg_contentmPhm+0xa8>
		{
			//memcpy(CANmsgList[i].mPayload_, &payload[lenPayload-auxLenPayload], MAX_LEN_PAYLOAD_CAN);
			my_copy_array_of_uint8(CANmsgList[i].mPayload_, &payload[lenPayload-auxLenPayload], MAX_LEN_PAYLOAD_CAN);
 800072a:	69fa      	ldr	r2, [r7, #28]
 800072c:	4613      	mov	r3, r2
 800072e:	009b      	lsls	r3, r3, #2
 8000730:	4413      	add	r3, r2
 8000732:	009b      	lsls	r3, r3, #2
 8000734:	3308      	adds	r3, #8
 8000736:	4a2f      	ldr	r2, [pc, #188]	; (80007f4 <_Z22CNI_update_msg_contentmPhm+0x134>)
 8000738:	1898      	adds	r0, r3, r2
 800073a:	687a      	ldr	r2, [r7, #4]
 800073c:	69bb      	ldr	r3, [r7, #24]
 800073e:	1ad3      	subs	r3, r2, r3
 8000740:	68ba      	ldr	r2, [r7, #8]
 8000742:	4413      	add	r3, r2
 8000744:	2208      	movs	r2, #8
 8000746:	4619      	mov	r1, r3
 8000748:	f003 fc87 	bl	800405a <_Z22my_copy_array_of_uint8PhPKhm>
			CANmsgList[i].mLenPayload_ = MAX_LEN_PAYLOAD_CAN;
 800074c:	4929      	ldr	r1, [pc, #164]	; (80007f4 <_Z22CNI_update_msg_contentmPhm+0x134>)
 800074e:	69fa      	ldr	r2, [r7, #28]
 8000750:	4613      	mov	r3, r2
 8000752:	009b      	lsls	r3, r3, #2
 8000754:	4413      	add	r3, r2
 8000756:	009b      	lsls	r3, r3, #2
 8000758:	440b      	add	r3, r1
 800075a:	3310      	adds	r3, #16
 800075c:	2208      	movs	r2, #8
 800075e:	601a      	str	r2, [r3, #0]
			auxLenPayload-=MAX_LEN_PAYLOAD_CAN;
 8000760:	69bb      	ldr	r3, [r7, #24]
 8000762:	3b08      	subs	r3, #8
 8000764:	61bb      	str	r3, [r7, #24]
 8000766:	e01c      	b.n	80007a2 <_Z22CNI_update_msg_contentmPhm+0xe2>
		}
		else
		{
			//memcpy(CANmsgList[i].mPayload_, &payload[lenPayload-auxLenPayload], auxLenPayload);
			my_copy_array_of_uint8(CANmsgList[i].mPayload_, &payload[lenPayload-auxLenPayload], auxLenPayload);
 8000768:	69fa      	ldr	r2, [r7, #28]
 800076a:	4613      	mov	r3, r2
 800076c:	009b      	lsls	r3, r3, #2
 800076e:	4413      	add	r3, r2
 8000770:	009b      	lsls	r3, r3, #2
 8000772:	3308      	adds	r3, #8
 8000774:	4a1f      	ldr	r2, [pc, #124]	; (80007f4 <_Z22CNI_update_msg_contentmPhm+0x134>)
 8000776:	1898      	adds	r0, r3, r2
 8000778:	687a      	ldr	r2, [r7, #4]
 800077a:	69bb      	ldr	r3, [r7, #24]
 800077c:	1ad3      	subs	r3, r2, r3
 800077e:	68ba      	ldr	r2, [r7, #8]
 8000780:	4413      	add	r3, r2
 8000782:	69ba      	ldr	r2, [r7, #24]
 8000784:	4619      	mov	r1, r3
 8000786:	f003 fc68 	bl	800405a <_Z22my_copy_array_of_uint8PhPKhm>
			CANmsgList[i].mLenPayload_ = auxLenPayload;
 800078a:	491a      	ldr	r1, [pc, #104]	; (80007f4 <_Z22CNI_update_msg_contentmPhm+0x134>)
 800078c:	69fa      	ldr	r2, [r7, #28]
 800078e:	4613      	mov	r3, r2
 8000790:	009b      	lsls	r3, r3, #2
 8000792:	4413      	add	r3, r2
 8000794:	009b      	lsls	r3, r3, #2
 8000796:	440b      	add	r3, r1
 8000798:	3310      	adds	r3, #16
 800079a:	69ba      	ldr	r2, [r7, #24]
 800079c:	601a      	str	r2, [r3, #0]
			auxLenPayload = 0;
 800079e:	2300      	movs	r3, #0
 80007a0:	61bb      	str	r3, [r7, #24]
		}
		i++;
 80007a2:	69fb      	ldr	r3, [r7, #28]
 80007a4:	3301      	adds	r3, #1
 80007a6:	61fb      	str	r3, [r7, #28]
	while((i < lenCANmsgList) && (CANmsgList[i].mServiceID_ == rxMsgServiceID) && (CANmsgList[i].mNodeID_ == rxNodeID) && (auxLenPayload > 0))
 80007a8:	4b11      	ldr	r3, [pc, #68]	; (80007f0 <_Z22CNI_update_msg_contentmPhm+0x130>)
 80007aa:	681b      	ldr	r3, [r3, #0]
 80007ac:	69fa      	ldr	r2, [r7, #28]
 80007ae:	429a      	cmp	r2, r3
 80007b0:	d219      	bcs.n	80007e6 <_Z22CNI_update_msg_contentmPhm+0x126>
 80007b2:	4910      	ldr	r1, [pc, #64]	; (80007f4 <_Z22CNI_update_msg_contentmPhm+0x134>)
 80007b4:	69fa      	ldr	r2, [r7, #28]
 80007b6:	4613      	mov	r3, r2
 80007b8:	009b      	lsls	r3, r3, #2
 80007ba:	4413      	add	r3, r2
 80007bc:	009b      	lsls	r3, r3, #2
 80007be:	440b      	add	r3, r1
 80007c0:	681b      	ldr	r3, [r3, #0]
 80007c2:	697a      	ldr	r2, [r7, #20]
 80007c4:	429a      	cmp	r2, r3
 80007c6:	d10e      	bne.n	80007e6 <_Z22CNI_update_msg_contentmPhm+0x126>
 80007c8:	490a      	ldr	r1, [pc, #40]	; (80007f4 <_Z22CNI_update_msg_contentmPhm+0x134>)
 80007ca:	69fa      	ldr	r2, [r7, #28]
 80007cc:	4613      	mov	r3, r2
 80007ce:	009b      	lsls	r3, r3, #2
 80007d0:	4413      	add	r3, r2
 80007d2:	009b      	lsls	r3, r3, #2
 80007d4:	440b      	add	r3, r1
 80007d6:	3304      	adds	r3, #4
 80007d8:	681b      	ldr	r3, [r3, #0]
 80007da:	693a      	ldr	r2, [r7, #16]
 80007dc:	429a      	cmp	r2, r3
 80007de:	d102      	bne.n	80007e6 <_Z22CNI_update_msg_contentmPhm+0x126>
 80007e0:	69bb      	ldr	r3, [r7, #24]
 80007e2:	2b00      	cmp	r3, #0
 80007e4:	d19e      	bne.n	8000724 <_Z22CNI_update_msg_contentmPhm+0x64>
	}

	return CNI_OK;
 80007e6:	2300      	movs	r3, #0
}
 80007e8:	4618      	mov	r0, r3
 80007ea:	3720      	adds	r7, #32
 80007ec:	46bd      	mov	sp, r7
 80007ee:	bd80      	pop	{r7, pc}
 80007f0:	2000012c 	.word	0x2000012c
 80007f4:	20000000 	.word	0x20000000

080007f8 <MX_CAN1_Init>:

CAN_HandleTypeDef hcan1;

/* CAN1 init function */
void MX_CAN1_Init(void)
{
 80007f8:	b580      	push	{r7, lr}
 80007fa:	af00      	add	r7, sp, #0
  /* USER CODE END CAN1_Init 0 */

  /* USER CODE BEGIN CAN1_Init 1 */

  /* USER CODE END CAN1_Init 1 */
  hcan1.Instance = CAN1;
 80007fc:	4b18      	ldr	r3, [pc, #96]	; (8000860 <MX_CAN1_Init+0x68>)
 80007fe:	4a19      	ldr	r2, [pc, #100]	; (8000864 <MX_CAN1_Init+0x6c>)
 8000800:	601a      	str	r2, [r3, #0]
  hcan1.Init.Prescaler = 3;
 8000802:	4b17      	ldr	r3, [pc, #92]	; (8000860 <MX_CAN1_Init+0x68>)
 8000804:	2203      	movs	r2, #3
 8000806:	605a      	str	r2, [r3, #4]
  hcan1.Init.Mode = CAN_MODE_NORMAL;
 8000808:	4b15      	ldr	r3, [pc, #84]	; (8000860 <MX_CAN1_Init+0x68>)
 800080a:	2200      	movs	r2, #0
 800080c:	609a      	str	r2, [r3, #8]
  hcan1.Init.SyncJumpWidth = CAN_SJW_3TQ;
 800080e:	4b14      	ldr	r3, [pc, #80]	; (8000860 <MX_CAN1_Init+0x68>)
 8000810:	f04f 7200 	mov.w	r2, #33554432	; 0x2000000
 8000814:	60da      	str	r2, [r3, #12]
  hcan1.Init.TimeSeg1 = CAN_BS1_8TQ;
 8000816:	4b12      	ldr	r3, [pc, #72]	; (8000860 <MX_CAN1_Init+0x68>)
 8000818:	f44f 22e0 	mov.w	r2, #458752	; 0x70000
 800081c:	611a      	str	r2, [r3, #16]
  hcan1.Init.TimeSeg2 = CAN_BS2_3TQ;
 800081e:	4b10      	ldr	r3, [pc, #64]	; (8000860 <MX_CAN1_Init+0x68>)
 8000820:	f44f 1200 	mov.w	r2, #2097152	; 0x200000
 8000824:	615a      	str	r2, [r3, #20]
  hcan1.Init.TimeTriggeredMode = DISABLE;
 8000826:	4b0e      	ldr	r3, [pc, #56]	; (8000860 <MX_CAN1_Init+0x68>)
 8000828:	2200      	movs	r2, #0
 800082a:	761a      	strb	r2, [r3, #24]
  hcan1.Init.AutoBusOff = DISABLE;
 800082c:	4b0c      	ldr	r3, [pc, #48]	; (8000860 <MX_CAN1_Init+0x68>)
 800082e:	2200      	movs	r2, #0
 8000830:	765a      	strb	r2, [r3, #25]
  hcan1.Init.AutoWakeUp = DISABLE;
 8000832:	4b0b      	ldr	r3, [pc, #44]	; (8000860 <MX_CAN1_Init+0x68>)
 8000834:	2200      	movs	r2, #0
 8000836:	769a      	strb	r2, [r3, #26]
  hcan1.Init.AutoRetransmission = DISABLE;
 8000838:	4b09      	ldr	r3, [pc, #36]	; (8000860 <MX_CAN1_Init+0x68>)
 800083a:	2200      	movs	r2, #0
 800083c:	76da      	strb	r2, [r3, #27]
  hcan1.Init.ReceiveFifoLocked = DISABLE;
 800083e:	4b08      	ldr	r3, [pc, #32]	; (8000860 <MX_CAN1_Init+0x68>)
 8000840:	2200      	movs	r2, #0
 8000842:	771a      	strb	r2, [r3, #28]
  hcan1.Init.TransmitFifoPriority = DISABLE;
 8000844:	4b06      	ldr	r3, [pc, #24]	; (8000860 <MX_CAN1_Init+0x68>)
 8000846:	2200      	movs	r2, #0
 8000848:	775a      	strb	r2, [r3, #29]
  if (HAL_CAN_Init(&hcan1) != HAL_OK)
 800084a:	4805      	ldr	r0, [pc, #20]	; (8000860 <MX_CAN1_Init+0x68>)
 800084c:	f004 f9d6 	bl	8004bfc <HAL_CAN_Init>
 8000850:	4603      	mov	r3, r0
 8000852:	2b00      	cmp	r3, #0
 8000854:	d001      	beq.n	800085a <MX_CAN1_Init+0x62>
  {
    Error_Handler();
 8000856:	f003 f933 	bl	8003ac0 <Error_Handler>
  }
  /* USER CODE BEGIN CAN1_Init 2 */

  /* USER CODE END CAN1_Init 2 */

}
 800085a:	bf00      	nop
 800085c:	bd80      	pop	{r7, pc}
 800085e:	bf00      	nop
 8000860:	200001cc 	.word	0x200001cc
 8000864:	40006400 	.word	0x40006400

08000868 <HAL_CAN_MspInit>:

void HAL_CAN_MspInit(CAN_HandleTypeDef* canHandle)
{
 8000868:	b580      	push	{r7, lr}
 800086a:	b08a      	sub	sp, #40	; 0x28
 800086c:	af00      	add	r7, sp, #0
 800086e:	6078      	str	r0, [r7, #4]

  GPIO_InitTypeDef GPIO_InitStruct = {0};
 8000870:	f107 0314 	add.w	r3, r7, #20
 8000874:	2200      	movs	r2, #0
 8000876:	601a      	str	r2, [r3, #0]
 8000878:	605a      	str	r2, [r3, #4]
 800087a:	609a      	str	r2, [r3, #8]
 800087c:	60da      	str	r2, [r3, #12]
 800087e:	611a      	str	r2, [r3, #16]
  if(canHandle->Instance==CAN1)
 8000880:	687b      	ldr	r3, [r7, #4]
 8000882:	681b      	ldr	r3, [r3, #0]
 8000884:	4a17      	ldr	r2, [pc, #92]	; (80008e4 <HAL_CAN_MspInit+0x7c>)
 8000886:	4293      	cmp	r3, r2
 8000888:	d127      	bne.n	80008da <HAL_CAN_MspInit+0x72>
  {
  /* USER CODE BEGIN CAN1_MspInit 0 */

  /* USER CODE END CAN1_MspInit 0 */
    /* CAN1 clock enable */
    __HAL_RCC_CAN1_CLK_ENABLE();
 800088a:	4b17      	ldr	r3, [pc, #92]	; (80008e8 <HAL_CAN_MspInit+0x80>)
 800088c:	6c1b      	ldr	r3, [r3, #64]	; 0x40
 800088e:	4a16      	ldr	r2, [pc, #88]	; (80008e8 <HAL_CAN_MspInit+0x80>)
 8000890:	f043 7300 	orr.w	r3, r3, #33554432	; 0x2000000
 8000894:	6413      	str	r3, [r2, #64]	; 0x40
 8000896:	4b14      	ldr	r3, [pc, #80]	; (80008e8 <HAL_CAN_MspInit+0x80>)
 8000898:	6c1b      	ldr	r3, [r3, #64]	; 0x40
 800089a:	f003 7300 	and.w	r3, r3, #33554432	; 0x2000000
 800089e:	613b      	str	r3, [r7, #16]
 80008a0:	693b      	ldr	r3, [r7, #16]

    __HAL_RCC_GPIOD_CLK_ENABLE();
 80008a2:	4b11      	ldr	r3, [pc, #68]	; (80008e8 <HAL_CAN_MspInit+0x80>)
 80008a4:	6b1b      	ldr	r3, [r3, #48]	; 0x30
 80008a6:	4a10      	ldr	r2, [pc, #64]	; (80008e8 <HAL_CAN_MspInit+0x80>)
 80008a8:	f043 0308 	orr.w	r3, r3, #8
 80008ac:	6313      	str	r3, [r2, #48]	; 0x30
 80008ae:	4b0e      	ldr	r3, [pc, #56]	; (80008e8 <HAL_CAN_MspInit+0x80>)
 80008b0:	6b1b      	ldr	r3, [r3, #48]	; 0x30
 80008b2:	f003 0308 	and.w	r3, r3, #8
 80008b6:	60fb      	str	r3, [r7, #12]
 80008b8:	68fb      	ldr	r3, [r7, #12]
    /**CAN1 GPIO Configuration
    PD0     ------> CAN1_RX
    PD1     ------> CAN1_TX
    */
    GPIO_InitStruct.Pin = GPIO_PIN_0|GPIO_PIN_1;
 80008ba:	2303      	movs	r3, #3
 80008bc:	617b      	str	r3, [r7, #20]
    GPIO_InitStruct.Mode = GPIO_MODE_AF_PP;
 80008be:	2302      	movs	r3, #2
 80008c0:	61bb      	str	r3, [r7, #24]
    GPIO_InitStruct.Pull = GPIO_NOPULL;
 80008c2:	2300      	movs	r3, #0
 80008c4:	61fb      	str	r3, [r7, #28]
    GPIO_InitStruct.Speed = GPIO_SPEED_FREQ_VERY_HIGH;
 80008c6:	2303      	movs	r3, #3
 80008c8:	623b      	str	r3, [r7, #32]
    GPIO_InitStruct.Alternate = GPIO_AF9_CAN1;
 80008ca:	2309      	movs	r3, #9
 80008cc:	627b      	str	r3, [r7, #36]	; 0x24
    HAL_GPIO_Init(GPIOD, &GPIO_InitStruct);
 80008ce:	f107 0314 	add.w	r3, r7, #20
 80008d2:	4619      	mov	r1, r3
 80008d4:	4805      	ldr	r0, [pc, #20]	; (80008ec <HAL_CAN_MspInit+0x84>)
 80008d6:	f004 fe9f 	bl	8005618 <HAL_GPIO_Init>

  /* USER CODE BEGIN CAN1_MspInit 1 */

  /* USER CODE END CAN1_MspInit 1 */
  }
}
 80008da:	bf00      	nop
 80008dc:	3728      	adds	r7, #40	; 0x28
 80008de:	46bd      	mov	sp, r7
 80008e0:	bd80      	pop	{r7, pc}
 80008e2:	bf00      	nop
 80008e4:	40006400 	.word	0x40006400
 80008e8:	40023800 	.word	0x40023800
 80008ec:	40020c00 	.word	0x40020c00

080008f0 <MX_GPIO_Init>:
     PA12   ------> USB_OTG_FS_DP
     PG11   ------> ETH_TX_EN
     PG13   ------> ETH_TXD0
*/
void MX_GPIO_Init(void)
{
 80008f0:	b580      	push	{r7, lr}
 80008f2:	b08c      	sub	sp, #48	; 0x30
 80008f4:	af00      	add	r7, sp, #0

  GPIO_InitTypeDef GPIO_InitStruct = {0};
 80008f6:	f107 031c 	add.w	r3, r7, #28
 80008fa:	2200      	movs	r2, #0
 80008fc:	601a      	str	r2, [r3, #0]
 80008fe:	605a      	str	r2, [r3, #4]
 8000900:	609a      	str	r2, [r3, #8]
 8000902:	60da      	str	r2, [r3, #12]
 8000904:	611a      	str	r2, [r3, #16]

  /* GPIO Ports Clock Enable */
  __HAL_RCC_GPIOC_CLK_ENABLE();
 8000906:	4b8b      	ldr	r3, [pc, #556]	; (8000b34 <MX_GPIO_Init+0x244>)
 8000908:	6b1b      	ldr	r3, [r3, #48]	; 0x30
 800090a:	4a8a      	ldr	r2, [pc, #552]	; (8000b34 <MX_GPIO_Init+0x244>)
 800090c:	f043 0304 	orr.w	r3, r3, #4
 8000910:	6313      	str	r3, [r2, #48]	; 0x30
 8000912:	4b88      	ldr	r3, [pc, #544]	; (8000b34 <MX_GPIO_Init+0x244>)
 8000914:	6b1b      	ldr	r3, [r3, #48]	; 0x30
 8000916:	f003 0304 	and.w	r3, r3, #4
 800091a:	61bb      	str	r3, [r7, #24]
 800091c:	69bb      	ldr	r3, [r7, #24]
  __HAL_RCC_GPIOH_CLK_ENABLE();
 800091e:	4b85      	ldr	r3, [pc, #532]	; (8000b34 <MX_GPIO_Init+0x244>)
 8000920:	6b1b      	ldr	r3, [r3, #48]	; 0x30
 8000922:	4a84      	ldr	r2, [pc, #528]	; (8000b34 <MX_GPIO_Init+0x244>)
 8000924:	f043 0380 	orr.w	r3, r3, #128	; 0x80
 8000928:	6313      	str	r3, [r2, #48]	; 0x30
 800092a:	4b82      	ldr	r3, [pc, #520]	; (8000b34 <MX_GPIO_Init+0x244>)
 800092c:	6b1b      	ldr	r3, [r3, #48]	; 0x30
 800092e:	f003 0380 	and.w	r3, r3, #128	; 0x80
 8000932:	617b      	str	r3, [r7, #20]
 8000934:	697b      	ldr	r3, [r7, #20]
  __HAL_RCC_GPIOA_CLK_ENABLE();
 8000936:	4b7f      	ldr	r3, [pc, #508]	; (8000b34 <MX_GPIO_Init+0x244>)
 8000938:	6b1b      	ldr	r3, [r3, #48]	; 0x30
 800093a:	4a7e      	ldr	r2, [pc, #504]	; (8000b34 <MX_GPIO_Init+0x244>)
 800093c:	f043 0301 	orr.w	r3, r3, #1
 8000940:	6313      	str	r3, [r2, #48]	; 0x30
 8000942:	4b7c      	ldr	r3, [pc, #496]	; (8000b34 <MX_GPIO_Init+0x244>)
 8000944:	6b1b      	ldr	r3, [r3, #48]	; 0x30
 8000946:	f003 0301 	and.w	r3, r3, #1
 800094a:	613b      	str	r3, [r7, #16]
 800094c:	693b      	ldr	r3, [r7, #16]
  __HAL_RCC_GPIOB_CLK_ENABLE();
 800094e:	4b79      	ldr	r3, [pc, #484]	; (8000b34 <MX_GPIO_Init+0x244>)
 8000950:	6b1b      	ldr	r3, [r3, #48]	; 0x30
 8000952:	4a78      	ldr	r2, [pc, #480]	; (8000b34 <MX_GPIO_Init+0x244>)
 8000954:	f043 0302 	orr.w	r3, r3, #2
 8000958:	6313      	str	r3, [r2, #48]	; 0x30
 800095a:	4b76      	ldr	r3, [pc, #472]	; (8000b34 <MX_GPIO_Init+0x244>)
 800095c:	6b1b      	ldr	r3, [r3, #48]	; 0x30
 800095e:	f003 0302 	and.w	r3, r3, #2
 8000962:	60fb      	str	r3, [r7, #12]
 8000964:	68fb      	ldr	r3, [r7, #12]
  __HAL_RCC_GPIOE_CLK_ENABLE();
 8000966:	4b73      	ldr	r3, [pc, #460]	; (8000b34 <MX_GPIO_Init+0x244>)
 8000968:	6b1b      	ldr	r3, [r3, #48]	; 0x30
 800096a:	4a72      	ldr	r2, [pc, #456]	; (8000b34 <MX_GPIO_Init+0x244>)
 800096c:	f043 0310 	orr.w	r3, r3, #16
 8000970:	6313      	str	r3, [r2, #48]	; 0x30
 8000972:	4b70      	ldr	r3, [pc, #448]	; (8000b34 <MX_GPIO_Init+0x244>)
 8000974:	6b1b      	ldr	r3, [r3, #48]	; 0x30
 8000976:	f003 0310 	and.w	r3, r3, #16
 800097a:	60bb      	str	r3, [r7, #8]
 800097c:	68bb      	ldr	r3, [r7, #8]
  __HAL_RCC_GPIOD_CLK_ENABLE();
 800097e:	4b6d      	ldr	r3, [pc, #436]	; (8000b34 <MX_GPIO_Init+0x244>)
 8000980:	6b1b      	ldr	r3, [r3, #48]	; 0x30
 8000982:	4a6c      	ldr	r2, [pc, #432]	; (8000b34 <MX_GPIO_Init+0x244>)
 8000984:	f043 0308 	orr.w	r3, r3, #8
 8000988:	6313      	str	r3, [r2, #48]	; 0x30
 800098a:	4b6a      	ldr	r3, [pc, #424]	; (8000b34 <MX_GPIO_Init+0x244>)
 800098c:	6b1b      	ldr	r3, [r3, #48]	; 0x30
 800098e:	f003 0308 	and.w	r3, r3, #8
 8000992:	607b      	str	r3, [r7, #4]
 8000994:	687b      	ldr	r3, [r7, #4]
  __HAL_RCC_GPIOG_CLK_ENABLE();
 8000996:	4b67      	ldr	r3, [pc, #412]	; (8000b34 <MX_GPIO_Init+0x244>)
 8000998:	6b1b      	ldr	r3, [r3, #48]	; 0x30
 800099a:	4a66      	ldr	r2, [pc, #408]	; (8000b34 <MX_GPIO_Init+0x244>)
 800099c:	f043 0340 	orr.w	r3, r3, #64	; 0x40
 80009a0:	6313      	str	r3, [r2, #48]	; 0x30
 80009a2:	4b64      	ldr	r3, [pc, #400]	; (8000b34 <MX_GPIO_Init+0x244>)
 80009a4:	6b1b      	ldr	r3, [r3, #48]	; 0x30
 80009a6:	f003 0340 	and.w	r3, r3, #64	; 0x40
 80009aa:	603b      	str	r3, [r7, #0]
 80009ac:	683b      	ldr	r3, [r7, #0]

  /*Configure GPIO pin Output Level */
  HAL_GPIO_WritePin(GPIOB, LD1_Pin|LD3_Pin|LD2_Pin, GPIO_PIN_RESET);
 80009ae:	2200      	movs	r2, #0
 80009b0:	f244 0181 	movw	r1, #16513	; 0x4081
 80009b4:	4860      	ldr	r0, [pc, #384]	; (8000b38 <MX_GPIO_Init+0x248>)
 80009b6:	f004 ffdb 	bl	8005970 <HAL_GPIO_WritePin>

  /*Configure GPIO pin Output Level */
  HAL_GPIO_WritePin(IMU_CS_GPIO_Port, IMU_CS_Pin, GPIO_PIN_RESET);
 80009ba:	2200      	movs	r2, #0
 80009bc:	f44f 6180 	mov.w	r1, #1024	; 0x400
 80009c0:	485e      	ldr	r0, [pc, #376]	; (8000b3c <MX_GPIO_Init+0x24c>)
 80009c2:	f004 ffd5 	bl	8005970 <HAL_GPIO_WritePin>

  /*Configure GPIO pin Output Level */
  HAL_GPIO_WritePin(USB_PowerSwitchOn_GPIO_Port, USB_PowerSwitchOn_Pin, GPIO_PIN_RESET);
 80009c6:	2200      	movs	r2, #0
 80009c8:	2140      	movs	r1, #64	; 0x40
 80009ca:	485d      	ldr	r0, [pc, #372]	; (8000b40 <MX_GPIO_Init+0x250>)
 80009cc:	f004 ffd0 	bl	8005970 <HAL_GPIO_WritePin>

  /*Configure GPIO pin : PtPin */
  GPIO_InitStruct.Pin = USER_Btn_Pin;
 80009d0:	f44f 5300 	mov.w	r3, #8192	; 0x2000
 80009d4:	61fb      	str	r3, [r7, #28]
  GPIO_InitStruct.Mode = GPIO_MODE_IT_RISING;
 80009d6:	f44f 1388 	mov.w	r3, #1114112	; 0x110000
 80009da:	623b      	str	r3, [r7, #32]
  GPIO_InitStruct.Pull = GPIO_NOPULL;
 80009dc:	2300      	movs	r3, #0
 80009de:	627b      	str	r3, [r7, #36]	; 0x24
  HAL_GPIO_Init(USER_Btn_GPIO_Port, &GPIO_InitStruct);
 80009e0:	f107 031c 	add.w	r3, r7, #28
 80009e4:	4619      	mov	r1, r3
 80009e6:	4857      	ldr	r0, [pc, #348]	; (8000b44 <MX_GPIO_Init+0x254>)
 80009e8:	f004 fe16 	bl	8005618 <HAL_GPIO_Init>

  /*Configure GPIO pins : PCPin PCPin PCPin */
  GPIO_InitStruct.Pin = RMII_MDC_Pin|RMII_RXD0_Pin|RMII_RXD1_Pin;
 80009ec:	2332      	movs	r3, #50	; 0x32
 80009ee:	61fb      	str	r3, [r7, #28]
  GPIO_InitStruct.Mode = GPIO_MODE_AF_PP;
 80009f0:	2302      	movs	r3, #2
 80009f2:	623b      	str	r3, [r7, #32]
  GPIO_InitStruct.Pull = GPIO_NOPULL;
 80009f4:	2300      	movs	r3, #0
 80009f6:	627b      	str	r3, [r7, #36]	; 0x24
  GPIO_InitStruct.Speed = GPIO_SPEED_FREQ_VERY_HIGH;
 80009f8:	2303      	movs	r3, #3
 80009fa:	62bb      	str	r3, [r7, #40]	; 0x28
  GPIO_InitStruct.Alternate = GPIO_AF11_ETH;
 80009fc:	230b      	movs	r3, #11
 80009fe:	62fb      	str	r3, [r7, #44]	; 0x2c
  HAL_GPIO_Init(GPIOC, &GPIO_InitStruct);
 8000a00:	f107 031c 	add.w	r3, r7, #28
 8000a04:	4619      	mov	r1, r3
 8000a06:	484f      	ldr	r0, [pc, #316]	; (8000b44 <MX_GPIO_Init+0x254>)
 8000a08:	f004 fe06 	bl	8005618 <HAL_GPIO_Init>

  /*Configure GPIO pins : PAPin PAPin PAPin */
  GPIO_InitStruct.Pin = RMII_REF_CLK_Pin|RMII_MDIO_Pin|RMII_CRS_DV_Pin;
 8000a0c:	2386      	movs	r3, #134	; 0x86
 8000a0e:	61fb      	str	r3, [r7, #28]
  GPIO_InitStruct.Mode = GPIO_MODE_AF_PP;
 8000a10:	2302      	movs	r3, #2
 8000a12:	623b      	str	r3, [r7, #32]
  GPIO_InitStruct.Pull = GPIO_NOPULL;
 8000a14:	2300      	movs	r3, #0
 8000a16:	627b      	str	r3, [r7, #36]	; 0x24
  GPIO_InitStruct.Speed = GPIO_SPEED_FREQ_VERY_HIGH;
 8000a18:	2303      	movs	r3, #3
 8000a1a:	62bb      	str	r3, [r7, #40]	; 0x28
  GPIO_InitStruct.Alternate = GPIO_AF11_ETH;
 8000a1c:	230b      	movs	r3, #11
 8000a1e:	62fb      	str	r3, [r7, #44]	; 0x2c
  HAL_GPIO_Init(GPIOA, &GPIO_InitStruct);
 8000a20:	f107 031c 	add.w	r3, r7, #28
 8000a24:	4619      	mov	r1, r3
 8000a26:	4848      	ldr	r0, [pc, #288]	; (8000b48 <MX_GPIO_Init+0x258>)
 8000a28:	f004 fdf6 	bl	8005618 <HAL_GPIO_Init>

  /*Configure GPIO pins : PBPin PBPin PBPin */
  GPIO_InitStruct.Pin = LD1_Pin|LD3_Pin|LD2_Pin;
 8000a2c:	f244 0381 	movw	r3, #16513	; 0x4081
 8000a30:	61fb      	str	r3, [r7, #28]
  GPIO_InitStruct.Mode = GPIO_MODE_OUTPUT_PP;
 8000a32:	2301      	movs	r3, #1
 8000a34:	623b      	str	r3, [r7, #32]
  GPIO_InitStruct.Pull = GPIO_NOPULL;
 8000a36:	2300      	movs	r3, #0
 8000a38:	627b      	str	r3, [r7, #36]	; 0x24
  GPIO_InitStruct.Speed = GPIO_SPEED_FREQ_LOW;
 8000a3a:	2300      	movs	r3, #0
 8000a3c:	62bb      	str	r3, [r7, #40]	; 0x28
  HAL_GPIO_Init(GPIOB, &GPIO_InitStruct);
 8000a3e:	f107 031c 	add.w	r3, r7, #28
 8000a42:	4619      	mov	r1, r3
 8000a44:	483c      	ldr	r0, [pc, #240]	; (8000b38 <MX_GPIO_Init+0x248>)
 8000a46:	f004 fde7 	bl	8005618 <HAL_GPIO_Init>

  /*Configure GPIO pin : PtPin */
  GPIO_InitStruct.Pin = IMU_CS_Pin;
 8000a4a:	f44f 6380 	mov.w	r3, #1024	; 0x400
 8000a4e:	61fb      	str	r3, [r7, #28]
  GPIO_InitStruct.Mode = GPIO_MODE_OUTPUT_PP;
 8000a50:	2301      	movs	r3, #1
 8000a52:	623b      	str	r3, [r7, #32]
  GPIO_InitStruct.Pull = GPIO_NOPULL;
 8000a54:	2300      	movs	r3, #0
 8000a56:	627b      	str	r3, [r7, #36]	; 0x24
  GPIO_InitStruct.Speed = GPIO_SPEED_FREQ_LOW;
 8000a58:	2300      	movs	r3, #0
 8000a5a:	62bb      	str	r3, [r7, #40]	; 0x28
  HAL_GPIO_Init(IMU_CS_GPIO_Port, &GPIO_InitStruct);
 8000a5c:	f107 031c 	add.w	r3, r7, #28
 8000a60:	4619      	mov	r1, r3
 8000a62:	4836      	ldr	r0, [pc, #216]	; (8000b3c <MX_GPIO_Init+0x24c>)
 8000a64:	f004 fdd8 	bl	8005618 <HAL_GPIO_Init>

  /*Configure GPIO pin : PtPin */
  GPIO_InitStruct.Pin = RMII_TXD1_Pin;
 8000a68:	f44f 5300 	mov.w	r3, #8192	; 0x2000
 8000a6c:	61fb      	str	r3, [r7, #28]
  GPIO_InitStruct.Mode = GPIO_MODE_AF_PP;
 8000a6e:	2302      	movs	r3, #2
 8000a70:	623b      	str	r3, [r7, #32]
  GPIO_InitStruct.Pull = GPIO_NOPULL;
 8000a72:	2300      	movs	r3, #0
 8000a74:	627b      	str	r3, [r7, #36]	; 0x24
  GPIO_InitStruct.Speed = GPIO_SPEED_FREQ_VERY_HIGH;
 8000a76:	2303      	movs	r3, #3
 8000a78:	62bb      	str	r3, [r7, #40]	; 0x28
  GPIO_InitStruct.Alternate = GPIO_AF11_ETH;
 8000a7a:	230b      	movs	r3, #11
 8000a7c:	62fb      	str	r3, [r7, #44]	; 0x2c
  HAL_GPIO_Init(RMII_TXD1_GPIO_Port, &GPIO_InitStruct);
 8000a7e:	f107 031c 	add.w	r3, r7, #28
 8000a82:	4619      	mov	r1, r3
 8000a84:	482c      	ldr	r0, [pc, #176]	; (8000b38 <MX_GPIO_Init+0x248>)
 8000a86:	f004 fdc7 	bl	8005618 <HAL_GPIO_Init>

  /*Configure GPIO pin : PtPin */
  GPIO_InitStruct.Pin = USB_PowerSwitchOn_Pin;
 8000a8a:	2340      	movs	r3, #64	; 0x40
 8000a8c:	61fb      	str	r3, [r7, #28]
  GPIO_InitStruct.Mode = GPIO_MODE_OUTPUT_PP;
 8000a8e:	2301      	movs	r3, #1
 8000a90:	623b      	str	r3, [r7, #32]
  GPIO_InitStruct.Pull = GPIO_NOPULL;
 8000a92:	2300      	movs	r3, #0
 8000a94:	627b      	str	r3, [r7, #36]	; 0x24
  GPIO_InitStruct.Speed = GPIO_SPEED_FREQ_LOW;
 8000a96:	2300      	movs	r3, #0
 8000a98:	62bb      	str	r3, [r7, #40]	; 0x28
  HAL_GPIO_Init(USB_PowerSwitchOn_GPIO_Port, &GPIO_InitStruct);
 8000a9a:	f107 031c 	add.w	r3, r7, #28
 8000a9e:	4619      	mov	r1, r3
 8000aa0:	4827      	ldr	r0, [pc, #156]	; (8000b40 <MX_GPIO_Init+0x250>)
 8000aa2:	f004 fdb9 	bl	8005618 <HAL_GPIO_Init>

  /*Configure GPIO pin : PtPin */
  GPIO_InitStruct.Pin = USB_OverCurrent_Pin;
 8000aa6:	2380      	movs	r3, #128	; 0x80
 8000aa8:	61fb      	str	r3, [r7, #28]
  GPIO_InitStruct.Mode = GPIO_MODE_INPUT;
 8000aaa:	2300      	movs	r3, #0
 8000aac:	623b      	str	r3, [r7, #32]
  GPIO_InitStruct.Pull = GPIO_NOPULL;
 8000aae:	2300      	movs	r3, #0
 8000ab0:	627b      	str	r3, [r7, #36]	; 0x24
  HAL_GPIO_Init(USB_OverCurrent_GPIO_Port, &GPIO_InitStruct);
 8000ab2:	f107 031c 	add.w	r3, r7, #28
 8000ab6:	4619      	mov	r1, r3
 8000ab8:	4821      	ldr	r0, [pc, #132]	; (8000b40 <MX_GPIO_Init+0x250>)
 8000aba:	f004 fdad 	bl	8005618 <HAL_GPIO_Init>

  /*Configure GPIO pins : PAPin PAPin PAPin PAPin */
  GPIO_InitStruct.Pin = USB_SOF_Pin|USB_ID_Pin|USB_DM_Pin|USB_DP_Pin;
 8000abe:	f44f 53e8 	mov.w	r3, #7424	; 0x1d00
 8000ac2:	61fb      	str	r3, [r7, #28]
  GPIO_InitStruct.Mode = GPIO_MODE_AF_PP;
 8000ac4:	2302      	movs	r3, #2
 8000ac6:	623b      	str	r3, [r7, #32]
  GPIO_InitStruct.Pull = GPIO_NOPULL;
 8000ac8:	2300      	movs	r3, #0
 8000aca:	627b      	str	r3, [r7, #36]	; 0x24
  GPIO_InitStruct.Speed = GPIO_SPEED_FREQ_VERY_HIGH;
 8000acc:	2303      	movs	r3, #3
 8000ace:	62bb      	str	r3, [r7, #40]	; 0x28
  GPIO_InitStruct.Alternate = GPIO_AF10_OTG_FS;
 8000ad0:	230a      	movs	r3, #10
 8000ad2:	62fb      	str	r3, [r7, #44]	; 0x2c
  HAL_GPIO_Init(GPIOA, &GPIO_InitStruct);
 8000ad4:	f107 031c 	add.w	r3, r7, #28
 8000ad8:	4619      	mov	r1, r3
 8000ada:	481b      	ldr	r0, [pc, #108]	; (8000b48 <MX_GPIO_Init+0x258>)
 8000adc:	f004 fd9c 	bl	8005618 <HAL_GPIO_Init>

  /*Configure GPIO pin : PtPin */
  GPIO_InitStruct.Pin = USB_VBUS_Pin;
 8000ae0:	f44f 7300 	mov.w	r3, #512	; 0x200
 8000ae4:	61fb      	str	r3, [r7, #28]
  GPIO_InitStruct.Mode = GPIO_MODE_INPUT;
 8000ae6:	2300      	movs	r3, #0
 8000ae8:	623b      	str	r3, [r7, #32]
  GPIO_InitStruct.Pull = GPIO_NOPULL;
 8000aea:	2300      	movs	r3, #0
 8000aec:	627b      	str	r3, [r7, #36]	; 0x24
  HAL_GPIO_Init(USB_VBUS_GPIO_Port, &GPIO_InitStruct);
 8000aee:	f107 031c 	add.w	r3, r7, #28
 8000af2:	4619      	mov	r1, r3
 8000af4:	4814      	ldr	r0, [pc, #80]	; (8000b48 <MX_GPIO_Init+0x258>)
 8000af6:	f004 fd8f 	bl	8005618 <HAL_GPIO_Init>

  /*Configure GPIO pins : PGPin PGPin */
  GPIO_InitStruct.Pin = RMII_TX_EN_Pin|RMII_TXD0_Pin;
 8000afa:	f44f 5320 	mov.w	r3, #10240	; 0x2800
 8000afe:	61fb      	str	r3, [r7, #28]
  GPIO_InitStruct.Mode = GPIO_MODE_AF_PP;
 8000b00:	2302      	movs	r3, #2
 8000b02:	623b      	str	r3, [r7, #32]
  GPIO_InitStruct.Pull = GPIO_NOPULL;
 8000b04:	2300      	movs	r3, #0
 8000b06:	627b      	str	r3, [r7, #36]	; 0x24
  GPIO_InitStruct.Speed = GPIO_SPEED_FREQ_VERY_HIGH;
 8000b08:	2303      	movs	r3, #3
 8000b0a:	62bb      	str	r3, [r7, #40]	; 0x28
  GPIO_InitStruct.Alternate = GPIO_AF11_ETH;
 8000b0c:	230b      	movs	r3, #11
 8000b0e:	62fb      	str	r3, [r7, #44]	; 0x2c
  HAL_GPIO_Init(GPIOG, &GPIO_InitStruct);
 8000b10:	f107 031c 	add.w	r3, r7, #28
 8000b14:	4619      	mov	r1, r3
 8000b16:	480a      	ldr	r0, [pc, #40]	; (8000b40 <MX_GPIO_Init+0x250>)
 8000b18:	f004 fd7e 	bl	8005618 <HAL_GPIO_Init>

  /* EXTI interrupt init*/
  HAL_NVIC_SetPriority(EXTI15_10_IRQn, 0, 0);
 8000b1c:	2200      	movs	r2, #0
 8000b1e:	2100      	movs	r1, #0
 8000b20:	2028      	movs	r0, #40	; 0x28
 8000b22:	f004 fcb0 	bl	8005486 <HAL_NVIC_SetPriority>
  HAL_NVIC_EnableIRQ(EXTI15_10_IRQn);
 8000b26:	2028      	movs	r0, #40	; 0x28
 8000b28:	f004 fcc9 	bl	80054be <HAL_NVIC_EnableIRQ>

}
 8000b2c:	bf00      	nop
 8000b2e:	3730      	adds	r7, #48	; 0x30
 8000b30:	46bd      	mov	sp, r7
 8000b32:	bd80      	pop	{r7, pc}
 8000b34:	40023800 	.word	0x40023800
 8000b38:	40020400 	.word	0x40020400
 8000b3c:	40021000 	.word	0x40021000
 8000b40:	40021800 	.word	0x40021800
 8000b44:	40020800 	.word	0x40020800
 8000b48:	40020000 	.word	0x40020000

08000b4c <_ZN5STM324gpioC1EP12GPIO_TypeDeft>:
#include "stm32f7xx_hal.h"


namespace STM32{

    gpio::gpio(GPIO_TypeDef* pPortHandler, uint16_t pin)
 8000b4c:	b580      	push	{r7, lr}
 8000b4e:	b084      	sub	sp, #16
 8000b50:	af00      	add	r7, sp, #0
 8000b52:	60f8      	str	r0, [r7, #12]
 8000b54:	60b9      	str	r1, [r7, #8]
 8000b56:	4613      	mov	r3, r2
 8000b58:	80fb      	strh	r3, [r7, #6]
 8000b5a:	68fb      	ldr	r3, [r7, #12]
 8000b5c:	4618      	mov	r0, r3
 8000b5e:	f000 f854 	bl	8000c0a <_ZNSt8functionIFvvEEC1Ev>
    {
        m_portHandler = pPortHandler;
 8000b62:	68fb      	ldr	r3, [r7, #12]
 8000b64:	68ba      	ldr	r2, [r7, #8]
 8000b66:	611a      	str	r2, [r3, #16]
        m_pin = pin;
 8000b68:	68fb      	ldr	r3, [r7, #12]
 8000b6a:	88fa      	ldrh	r2, [r7, #6]
 8000b6c:	829a      	strh	r2, [r3, #20]
    }
 8000b6e:	68fb      	ldr	r3, [r7, #12]
 8000b70:	4618      	mov	r0, r3
 8000b72:	3710      	adds	r7, #16
 8000b74:	46bd      	mov	sp, r7
 8000b76:	bd80      	pop	{r7, pc}

08000b78 <_ZN5STM324gpio6toggleEv>:
        GPIO_PinState ret = HAL_GPIO_ReadPin(m_portHandler, m_pin);
        return ret == GPIO_PIN_SET ? GPIO_ST::HIGH : GPIO_ST::LOW;
    }

    void gpio::toggle()
    {
 8000b78:	b580      	push	{r7, lr}
 8000b7a:	b082      	sub	sp, #8
 8000b7c:	af00      	add	r7, sp, #0
 8000b7e:	6078      	str	r0, [r7, #4]
        HAL_GPIO_TogglePin(m_portHandler, m_pin);
 8000b80:	687b      	ldr	r3, [r7, #4]
 8000b82:	691a      	ldr	r2, [r3, #16]
 8000b84:	687b      	ldr	r3, [r7, #4]
 8000b86:	8a9b      	ldrh	r3, [r3, #20]
 8000b88:	4619      	mov	r1, r3
 8000b8a:	4610      	mov	r0, r2
 8000b8c:	f004 ff09 	bl	80059a2 <HAL_GPIO_TogglePin>
    }
 8000b90:	bf00      	nop
 8000b92:	3708      	adds	r7, #8
 8000b94:	46bd      	mov	sp, r7
 8000b96:	bd80      	pop	{r7, pc}

08000b98 <_ZN5STM324gpio5writeE7GPIO_ST>:

    void gpio::write(GPIO_ST st)
    {
 8000b98:	b580      	push	{r7, lr}
 8000b9a:	b084      	sub	sp, #16
 8000b9c:	af00      	add	r7, sp, #0
 8000b9e:	6078      	str	r0, [r7, #4]
 8000ba0:	6039      	str	r1, [r7, #0]
        GPIO_PinState pinState = map_hal_st_to_igpio_st(st); 
 8000ba2:	6838      	ldr	r0, [r7, #0]
 8000ba4:	f000 f80e 	bl	8000bc4 <_ZN5STM324gpio22map_hal_st_to_igpio_stE7GPIO_ST>
 8000ba8:	4603      	mov	r3, r0
 8000baa:	73fb      	strb	r3, [r7, #15]
        HAL_GPIO_WritePin(m_portHandler, m_pin, pinState);
 8000bac:	687b      	ldr	r3, [r7, #4]
 8000bae:	6918      	ldr	r0, [r3, #16]
 8000bb0:	687b      	ldr	r3, [r7, #4]
 8000bb2:	8a9b      	ldrh	r3, [r3, #20]
 8000bb4:	7bfa      	ldrb	r2, [r7, #15]
 8000bb6:	4619      	mov	r1, r3
 8000bb8:	f004 feda 	bl	8005970 <HAL_GPIO_WritePin>
    }
 8000bbc:	bf00      	nop
 8000bbe:	3710      	adds	r7, #16
 8000bc0:	46bd      	mov	sp, r7
 8000bc2:	bd80      	pop	{r7, pc}

08000bc4 <_ZN5STM324gpio22map_hal_st_to_igpio_stE7GPIO_ST>:

    GPIO_PinState gpio::map_hal_st_to_igpio_st(GPIO_ST st)
	{
 8000bc4:	b480      	push	{r7}
 8000bc6:	b083      	sub	sp, #12
 8000bc8:	af00      	add	r7, sp, #0
 8000bca:	6078      	str	r0, [r7, #4]
		return st == GPIO_ST::HIGH ? GPIO_PIN_SET : GPIO_PIN_RESET;
 8000bcc:	687b      	ldr	r3, [r7, #4]
 8000bce:	2b01      	cmp	r3, #1
 8000bd0:	d101      	bne.n	8000bd6 <_ZN5STM324gpio22map_hal_st_to_igpio_stE7GPIO_ST+0x12>
 8000bd2:	2301      	movs	r3, #1
 8000bd4:	e000      	b.n	8000bd8 <_ZN5STM324gpio22map_hal_st_to_igpio_stE7GPIO_ST+0x14>
 8000bd6:	2300      	movs	r3, #0
	}
 8000bd8:	4618      	mov	r0, r3
 8000bda:	370c      	adds	r7, #12
 8000bdc:	46bd      	mov	sp, r7
 8000bde:	f85d 7b04 	ldr.w	r7, [sp], #4
 8000be2:	4770      	bx	lr

08000be4 <_ZNSt14_Function_baseC1Ev>:
	  static bool
	  _M_not_empty_function(const _Tp&)
	  { return true; }
      };

    _Function_base() = default;
 8000be4:	b480      	push	{r7}
 8000be6:	b083      	sub	sp, #12
 8000be8:	af00      	add	r7, sp, #0
 8000bea:	6078      	str	r0, [r7, #4]
 8000bec:	687b      	ldr	r3, [r7, #4]
 8000bee:	461a      	mov	r2, r3
 8000bf0:	2300      	movs	r3, #0
 8000bf2:	6013      	str	r3, [r2, #0]
 8000bf4:	6053      	str	r3, [r2, #4]
 8000bf6:	687b      	ldr	r3, [r7, #4]
 8000bf8:	2200      	movs	r2, #0
 8000bfa:	609a      	str	r2, [r3, #8]
 8000bfc:	687b      	ldr	r3, [r7, #4]
 8000bfe:	4618      	mov	r0, r3
 8000c00:	370c      	adds	r7, #12
 8000c02:	46bd      	mov	sp, r7
 8000c04:	f85d 7b04 	ldr.w	r7, [sp], #4
 8000c08:	4770      	bx	lr

08000c0a <_ZNSt8functionIFvvEEC1Ev>:

      /**
       *  @brief Default construct creates an empty function call wrapper.
       *  @post `!(bool)*this`
       */
      function() noexcept
 8000c0a:	b580      	push	{r7, lr}
 8000c0c:	b082      	sub	sp, #8
 8000c0e:	af00      	add	r7, sp, #0
 8000c10:	6078      	str	r0, [r7, #4]
      : _Function_base() { }
 8000c12:	687b      	ldr	r3, [r7, #4]
 8000c14:	461a      	mov	r2, r3
 8000c16:	2300      	movs	r3, #0
 8000c18:	6013      	str	r3, [r2, #0]
 8000c1a:	6053      	str	r3, [r2, #4]
 8000c1c:	6093      	str	r3, [r2, #8]
 8000c1e:	687b      	ldr	r3, [r7, #4]
 8000c20:	4618      	mov	r0, r3
 8000c22:	f7ff ffdf 	bl	8000be4 <_ZNSt14_Function_baseC1Ev>
 8000c26:	687b      	ldr	r3, [r7, #4]
 8000c28:	2200      	movs	r2, #0
 8000c2a:	60da      	str	r2, [r3, #12]
 8000c2c:	687b      	ldr	r3, [r7, #4]
 8000c2e:	4618      	mov	r0, r3
 8000c30:	3708      	adds	r7, #8
 8000c32:	46bd      	mov	sp, r7
 8000c34:	bd80      	pop	{r7, pc}

08000c36 <_ZNSt9_Any_data9_M_accessEv>:
    void*       _M_access()       { return &_M_pod_data[0]; }
 8000c36:	b480      	push	{r7}
 8000c38:	b083      	sub	sp, #12
 8000c3a:	af00      	add	r7, sp, #0
 8000c3c:	6078      	str	r0, [r7, #4]
 8000c3e:	687b      	ldr	r3, [r7, #4]
 8000c40:	4618      	mov	r0, r3
 8000c42:	370c      	adds	r7, #12
 8000c44:	46bd      	mov	sp, r7
 8000c46:	f85d 7b04 	ldr.w	r7, [sp], #4
 8000c4a:	4770      	bx	lr

08000c4c <_ZNKSt9_Any_data9_M_accessEv>:
    const void* _M_access() const { return &_M_pod_data[0]; }
 8000c4c:	b480      	push	{r7}
 8000c4e:	b083      	sub	sp, #12
 8000c50:	af00      	add	r7, sp, #0
 8000c52:	6078      	str	r0, [r7, #4]
 8000c54:	687b      	ldr	r3, [r7, #4]
 8000c56:	4618      	mov	r0, r3
 8000c58:	370c      	adds	r7, #12
 8000c5a:	46bd      	mov	sp, r7
 8000c5c:	f85d 7b04 	ldr.w	r7, [sp], #4
 8000c60:	4770      	bx	lr

08000c62 <_ZNSt14_Function_baseD1Ev>:
    ~_Function_base()
 8000c62:	b580      	push	{r7, lr}
 8000c64:	b082      	sub	sp, #8
 8000c66:	af00      	add	r7, sp, #0
 8000c68:	6078      	str	r0, [r7, #4]
      if (_M_manager)
 8000c6a:	687b      	ldr	r3, [r7, #4]
 8000c6c:	689b      	ldr	r3, [r3, #8]
 8000c6e:	2b00      	cmp	r3, #0
 8000c70:	d005      	beq.n	8000c7e <_ZNSt14_Function_baseD1Ev+0x1c>
	_M_manager(_M_functor, _M_functor, __destroy_functor);
 8000c72:	687b      	ldr	r3, [r7, #4]
 8000c74:	689b      	ldr	r3, [r3, #8]
 8000c76:	6878      	ldr	r0, [r7, #4]
 8000c78:	6879      	ldr	r1, [r7, #4]
 8000c7a:	2203      	movs	r2, #3
 8000c7c:	4798      	blx	r3
    }
 8000c7e:	687b      	ldr	r3, [r7, #4]
 8000c80:	4618      	mov	r0, r3
 8000c82:	3708      	adds	r7, #8
 8000c84:	46bd      	mov	sp, r7
 8000c86:	bd80      	pop	{r7, pc}

08000c88 <_ZN9iPHandler4lockEv>:
    	}else{
    		return normalMode ? reg << 1 : (reg  << 0x01 | 1);
    	}
    }

    bool lock()
 8000c88:	b480      	push	{r7}
 8000c8a:	b083      	sub	sp, #12
 8000c8c:	af00      	add	r7, sp, #0
 8000c8e:	6078      	str	r0, [r7, #4]
	{
		if(m_mutex){
 8000c90:	687b      	ldr	r3, [r7, #4]
 8000c92:	7a1b      	ldrb	r3, [r3, #8]
 8000c94:	2b00      	cmp	r3, #0
 8000c96:	d001      	beq.n	8000c9c <_ZN9iPHandler4lockEv+0x14>
			return false;
 8000c98:	2300      	movs	r3, #0
 8000c9a:	e003      	b.n	8000ca4 <_ZN9iPHandler4lockEv+0x1c>
		}
		m_mutex = true;
 8000c9c:	687b      	ldr	r3, [r7, #4]
 8000c9e:	2201      	movs	r2, #1
 8000ca0:	721a      	strb	r2, [r3, #8]
		return true;
 8000ca2:	2301      	movs	r3, #1
	}
 8000ca4:	4618      	mov	r0, r3
 8000ca6:	370c      	adds	r7, #12
 8000ca8:	46bd      	mov	sp, r7
 8000caa:	f85d 7b04 	ldr.w	r7, [sp], #4
 8000cae:	4770      	bx	lr

08000cb0 <_ZN9iPHandler6unlockEv>:


	bool unlock()
 8000cb0:	b480      	push	{r7}
 8000cb2:	b083      	sub	sp, #12
 8000cb4:	af00      	add	r7, sp, #0
 8000cb6:	6078      	str	r0, [r7, #4]
	{
		if(!m_mutex){
 8000cb8:	687b      	ldr	r3, [r7, #4]
 8000cba:	7a1b      	ldrb	r3, [r3, #8]
 8000cbc:	f083 0301 	eor.w	r3, r3, #1
 8000cc0:	b2db      	uxtb	r3, r3
 8000cc2:	2b00      	cmp	r3, #0
 8000cc4:	d001      	beq.n	8000cca <_ZN9iPHandler6unlockEv+0x1a>
			return false;
 8000cc6:	2300      	movs	r3, #0
 8000cc8:	e003      	b.n	8000cd2 <_ZN9iPHandler6unlockEv+0x22>
		}
		m_mutex = false;
 8000cca:	687b      	ldr	r3, [r7, #4]
 8000ccc:	2200      	movs	r2, #0
 8000cce:	721a      	strb	r2, [r3, #8]
		return true;
 8000cd0:	2301      	movs	r3, #1
	}
 8000cd2:	4618      	mov	r0, r3
 8000cd4:	370c      	adds	r7, #12
 8000cd6:	46bd      	mov	sp, r7
 8000cd8:	f85d 7b04 	ldr.w	r7, [sp], #4
 8000cdc:	4770      	bx	lr

08000cde <_ZN8ICM426888GYRO_CNFlsENS0_3ODREh>:
        constexpr uint32_t operator<<(uint8_t n, ODR odr)
        {
            return  n << static_cast<uint8_t> (odr);
        }
        constexpr uint32_t operator<<(ODR odr, uint8_t n)
        {
 8000cde:	b480      	push	{r7}
 8000ce0:	b083      	sub	sp, #12
 8000ce2:	af00      	add	r7, sp, #0
 8000ce4:	6078      	str	r0, [r7, #4]
 8000ce6:	460b      	mov	r3, r1
 8000ce8:	70fb      	strb	r3, [r7, #3]
            return  static_cast<uint8_t> (odr) << n ;
 8000cea:	687b      	ldr	r3, [r7, #4]
 8000cec:	b2db      	uxtb	r3, r3
 8000cee:	461a      	mov	r2, r3
 8000cf0:	78fb      	ldrb	r3, [r7, #3]
 8000cf2:	fa02 f303 	lsl.w	r3, r2, r3
        }
 8000cf6:	4618      	mov	r0, r3
 8000cf8:	370c      	adds	r7, #12
 8000cfa:	46bd      	mov	sp, r7
 8000cfc:	f85d 7b04 	ldr.w	r7, [sp], #4
 8000d00:	4770      	bx	lr

08000d02 <_ZN8ICM426888GYRO_CNFlsENS0_3FSREh>:
        constexpr uint32_t operator<<(uint8_t n, FSR fsr)
        {
            return  n << static_cast<uint8_t> (fsr);
        }   
        constexpr uint32_t operator<<( FSR fsr, uint8_t n)
        {
 8000d02:	b480      	push	{r7}
 8000d04:	b083      	sub	sp, #12
 8000d06:	af00      	add	r7, sp, #0
 8000d08:	6078      	str	r0, [r7, #4]
 8000d0a:	460b      	mov	r3, r1
 8000d0c:	70fb      	strb	r3, [r7, #3]
            return  static_cast<uint8_t> (fsr) << n;
 8000d0e:	687b      	ldr	r3, [r7, #4]
 8000d10:	b2db      	uxtb	r3, r3
 8000d12:	461a      	mov	r2, r3
 8000d14:	78fb      	ldrb	r3, [r7, #3]
 8000d16:	fa02 f303 	lsl.w	r3, r2, r3
        } 
 8000d1a:	4618      	mov	r0, r3
 8000d1c:	370c      	adds	r7, #12
 8000d1e:	46bd      	mov	sp, r7
 8000d20:	f85d 7b04 	ldr.w	r7, [sp], #4
 8000d24:	4770      	bx	lr

08000d26 <_ZN8ICM426889ACCEL_CNFlsENS0_3ODREh>:
        constexpr uint32_t operator<<(uint8_t n, ODR odr)
        {
            return  n << static_cast<uint8_t> (odr);
        }
        constexpr uint32_t operator<<( ODR odr, uint8_t n)
        {
 8000d26:	b480      	push	{r7}
 8000d28:	b083      	sub	sp, #12
 8000d2a:	af00      	add	r7, sp, #0
 8000d2c:	6078      	str	r0, [r7, #4]
 8000d2e:	460b      	mov	r3, r1
 8000d30:	70fb      	strb	r3, [r7, #3]
            return  static_cast<uint8_t> (odr) << n;
 8000d32:	687b      	ldr	r3, [r7, #4]
 8000d34:	b2db      	uxtb	r3, r3
 8000d36:	461a      	mov	r2, r3
 8000d38:	78fb      	ldrb	r3, [r7, #3]
 8000d3a:	fa02 f303 	lsl.w	r3, r2, r3
        }
 8000d3e:	4618      	mov	r0, r3
 8000d40:	370c      	adds	r7, #12
 8000d42:	46bd      	mov	sp, r7
 8000d44:	f85d 7b04 	ldr.w	r7, [sp], #4
 8000d48:	4770      	bx	lr

08000d4a <_ZN8ICM426889ACCEL_CNFlsENS0_3FSREh>:
        constexpr uint32_t operator<<(uint8_t n, FSR fsr)
        {
            return  n << static_cast<uint8_t> (fsr);
        } 
        constexpr uint32_t operator<<(FSR fsr, uint8_t n)
        {
 8000d4a:	b480      	push	{r7}
 8000d4c:	b083      	sub	sp, #12
 8000d4e:	af00      	add	r7, sp, #0
 8000d50:	6078      	str	r0, [r7, #4]
 8000d52:	460b      	mov	r3, r1
 8000d54:	70fb      	strb	r3, [r7, #3]
            return  static_cast<uint8_t> (fsr) << n;
 8000d56:	687b      	ldr	r3, [r7, #4]
 8000d58:	b2db      	uxtb	r3, r3
 8000d5a:	461a      	mov	r2, r3
 8000d5c:	78fb      	ldrb	r3, [r7, #3]
 8000d5e:	fa02 f303 	lsl.w	r3, r2, r3
        } 
 8000d62:	4618      	mov	r0, r3
 8000d64:	370c      	adds	r7, #12
 8000d66:	46bd      	mov	sp, r7
 8000d68:	f85d 7b04 	ldr.w	r7, [sp], #4
 8000d6c:	4770      	bx	lr

08000d6e <_ZN8ICM4268811FIFO_CONFIG13SET_FIFO_MODEENS_9FIFO_MODEE>:
    //FIFOconfig addresses and bits
	constexpr uint8_t FIFO_CONFIG_ADD = 0x16;
	namespace FIFO_CONFIG {
		constexpr uint8_t FIFO_MODE_POS = 0x06;
		constexpr uint8_t FIFO_MODE_MASK = static_cast<uint8_t>(0xC0  << FIFO_MODE_POS);
		constexpr uint8_t SET_FIFO_MODE(FIFO_MODE fifoMode) {
 8000d6e:	b480      	push	{r7}
 8000d70:	b083      	sub	sp, #12
 8000d72:	af00      	add	r7, sp, #0
 8000d74:	6078      	str	r0, [r7, #4]
			return  (static_cast<uint8_t>(fifoMode) << FIFO_MODE_POS);
 8000d76:	687b      	ldr	r3, [r7, #4]
 8000d78:	b2db      	uxtb	r3, r3
 8000d7a:	019b      	lsls	r3, r3, #6
 8000d7c:	b2db      	uxtb	r3, r3
		}
 8000d7e:	4618      	mov	r0, r3
 8000d80:	370c      	adds	r7, #12
 8000d82:	46bd      	mov	sp, r7
 8000d84:	f85d 7b04 	ldr.w	r7, [sp], #4
 8000d88:	4770      	bx	lr

08000d8a <_ZN8ICM4268812GYRO_CONFIG07SET_FSREhNS_8GYRO_CNF3FSRE>:
    //Gyro config addresses and bits
    constexpr uint8_t GYRO_CONFIG0_ADD = 0x4F;
    namespace GYRO_CONFIG0 {
        constexpr uint8_t FS_SEL_POS = 0x05;
        constexpr uint8_t FS_SEL_MASK = 0x07  << FS_SEL_POS;
        constexpr uint8_t SET_FSR(uint8_t reg, GYRO_CNF::FSR fsr) {
 8000d8a:	b590      	push	{r4, r7, lr}
 8000d8c:	b083      	sub	sp, #12
 8000d8e:	af00      	add	r7, sp, #0
 8000d90:	4603      	mov	r3, r0
 8000d92:	6039      	str	r1, [r7, #0]
 8000d94:	71fb      	strb	r3, [r7, #7]
            return  (reg & ~FS_SEL_MASK) | ( fsr << FS_SEL_POS);
 8000d96:	79fb      	ldrb	r3, [r7, #7]
 8000d98:	f003 031f 	and.w	r3, r3, #31
 8000d9c:	b2dc      	uxtb	r4, r3
 8000d9e:	2105      	movs	r1, #5
 8000da0:	6838      	ldr	r0, [r7, #0]
 8000da2:	f7ff ffae 	bl	8000d02 <_ZN8ICM426888GYRO_CNFlsENS0_3FSREh>
 8000da6:	4603      	mov	r3, r0
 8000da8:	b2db      	uxtb	r3, r3
 8000daa:	4323      	orrs	r3, r4
 8000dac:	b2db      	uxtb	r3, r3
        }
 8000dae:	4618      	mov	r0, r3
 8000db0:	370c      	adds	r7, #12
 8000db2:	46bd      	mov	sp, r7
 8000db4:	bd90      	pop	{r4, r7, pc}

08000db6 <_ZN8ICM4268812GYRO_CONFIG07SET_ODREhNS_8GYRO_CNF3ODRE>:

        constexpr uint8_t ODR_POS = 0x00;
        constexpr uint8_t ODR_MASK = 0x0F  << ODR_POS;
        constexpr uint8_t SET_ODR(uint8_t reg, GYRO_CNF::ODR odr) {
 8000db6:	b590      	push	{r4, r7, lr}
 8000db8:	b083      	sub	sp, #12
 8000dba:	af00      	add	r7, sp, #0
 8000dbc:	4603      	mov	r3, r0
 8000dbe:	6039      	str	r1, [r7, #0]
 8000dc0:	71fb      	strb	r3, [r7, #7]
            return  (reg & ~ODR_MASK) | ( odr << ODR_POS);
 8000dc2:	79fb      	ldrb	r3, [r7, #7]
 8000dc4:	f023 030f 	bic.w	r3, r3, #15
 8000dc8:	b2dc      	uxtb	r4, r3
 8000dca:	2100      	movs	r1, #0
 8000dcc:	6838      	ldr	r0, [r7, #0]
 8000dce:	f7ff ff86 	bl	8000cde <_ZN8ICM426888GYRO_CNFlsENS0_3ODREh>
 8000dd2:	4603      	mov	r3, r0
 8000dd4:	b2db      	uxtb	r3, r3
 8000dd6:	4323      	orrs	r3, r4
 8000dd8:	b2db      	uxtb	r3, r3
        }
 8000dda:	4618      	mov	r0, r3
 8000ddc:	370c      	adds	r7, #12
 8000dde:	46bd      	mov	sp, r7
 8000de0:	bd90      	pop	{r4, r7, pc}

08000de2 <_ZN8ICM4268813ACCEL_CONFIG07SET_FSREhNS_9ACCEL_CNF3FSRE>:
    //Accel config addresses and bits
    constexpr uint8_t ACCEL_CONFIG0_ADD = 0x50;
    namespace ACCEL_CONFIG0 {
        constexpr uint8_t FS_SEL_POS = 0x05;
        constexpr uint8_t FS_SEL_MASK = 0x07  << FS_SEL_POS;
        constexpr uint8_t SET_FSR(uint8_t reg, ACCEL_CNF::FSR fsr) {
 8000de2:	b590      	push	{r4, r7, lr}
 8000de4:	b083      	sub	sp, #12
 8000de6:	af00      	add	r7, sp, #0
 8000de8:	4603      	mov	r3, r0
 8000dea:	6039      	str	r1, [r7, #0]
 8000dec:	71fb      	strb	r3, [r7, #7]
            return   (reg & ~FS_SEL_MASK)  | ( fsr << FS_SEL_POS);
 8000dee:	79fb      	ldrb	r3, [r7, #7]
 8000df0:	f003 031f 	and.w	r3, r3, #31
 8000df4:	b2dc      	uxtb	r4, r3
 8000df6:	2105      	movs	r1, #5
 8000df8:	6838      	ldr	r0, [r7, #0]
 8000dfa:	f7ff ffa6 	bl	8000d4a <_ZN8ICM426889ACCEL_CNFlsENS0_3FSREh>
 8000dfe:	4603      	mov	r3, r0
 8000e00:	b2db      	uxtb	r3, r3
 8000e02:	4323      	orrs	r3, r4
 8000e04:	b2db      	uxtb	r3, r3
        }
 8000e06:	4618      	mov	r0, r3
 8000e08:	370c      	adds	r7, #12
 8000e0a:	46bd      	mov	sp, r7
 8000e0c:	bd90      	pop	{r4, r7, pc}

08000e0e <_ZN8ICM4268813ACCEL_CONFIG07SET_ODREhNS_9ACCEL_CNF3ODRE>:

        constexpr uint8_t ODR_POS = 0x00;
        constexpr uint8_t ODR_MASK = 0x0F  << ODR_POS;
        constexpr uint8_t SET_ODR(uint8_t reg, ACCEL_CNF::ODR odr) {
 8000e0e:	b590      	push	{r4, r7, lr}
 8000e10:	b083      	sub	sp, #12
 8000e12:	af00      	add	r7, sp, #0
 8000e14:	4603      	mov	r3, r0
 8000e16:	6039      	str	r1, [r7, #0]
 8000e18:	71fb      	strb	r3, [r7, #7]
            return   (reg & ~ODR_MASK) | ( odr << ODR_POS);
 8000e1a:	79fb      	ldrb	r3, [r7, #7]
 8000e1c:	f023 030f 	bic.w	r3, r3, #15
 8000e20:	b2dc      	uxtb	r4, r3
 8000e22:	2100      	movs	r1, #0
 8000e24:	6838      	ldr	r0, [r7, #0]
 8000e26:	f7ff ff7e 	bl	8000d26 <_ZN8ICM426889ACCEL_CNFlsENS0_3ODREh>
 8000e2a:	4603      	mov	r3, r0
 8000e2c:	b2db      	uxtb	r3, r3
 8000e2e:	4323      	orrs	r3, r4
 8000e30:	b2db      	uxtb	r3, r3
        }
 8000e32:	4618      	mov	r0, r3
 8000e34:	370c      	adds	r7, #12
 8000e36:	46bd      	mov	sp, r7
 8000e38:	bd90      	pop	{r4, r7, pc}
	...

08000e3c <_ZN4iIMUC1Ev>:
 * @brief Define un struct vacio para que se haga un struct herencia del mismo en los archivos de implementación. Esto es para dejar a la implementación la forma en obtener los  datos de la IMU. Por ejemplo, si se tiene 1 IMU con lectura sobre 1 solo eje vs 3 ejes. De esta forma también se podría usar esta interfaz para implementar acelerómetros.
 * 
 */
// struct iImu_data{};

class iIMU {
 8000e3c:	b480      	push	{r7}
 8000e3e:	b083      	sub	sp, #12
 8000e40:	af00      	add	r7, sp, #0
 8000e42:	6078      	str	r0, [r7, #4]
 8000e44:	4a04      	ldr	r2, [pc, #16]	; (8000e58 <_ZN4iIMUC1Ev+0x1c>)
 8000e46:	687b      	ldr	r3, [r7, #4]
 8000e48:	601a      	str	r2, [r3, #0]
 8000e4a:	687b      	ldr	r3, [r7, #4]
 8000e4c:	4618      	mov	r0, r3
 8000e4e:	370c      	adds	r7, #12
 8000e50:	46bd      	mov	sp, r7
 8000e52:	f85d 7b04 	ldr.w	r7, [sp], #4
 8000e56:	4770      	bx	lr
 8000e58:	08009834 	.word	0x08009834

08000e5c <_ZN8ICM426889RegistersC1Ev>:
namespace ICM42688{

    constexpr uint16_t BUFFER_SIZE = 32;
    constexpr uint16_t IMU_DATA_BUFFER_SIZE = 16;

    struct Registers {
 8000e5c:	b480      	push	{r7}
 8000e5e:	b083      	sub	sp, #12
 8000e60:	af00      	add	r7, sp, #0
 8000e62:	6078      	str	r0, [r7, #4]
 8000e64:	687b      	ldr	r3, [r7, #4]
 8000e66:	2206      	movs	r2, #6
 8000e68:	701a      	strb	r2, [r3, #0]
 8000e6a:	687b      	ldr	r3, [r7, #4]
 8000e6c:	2206      	movs	r2, #6
 8000e6e:	705a      	strb	r2, [r3, #1]
 8000e70:	687b      	ldr	r3, [r7, #4]
 8000e72:	2230      	movs	r2, #48	; 0x30
 8000e74:	709a      	strb	r2, [r3, #2]
 8000e76:	687b      	ldr	r3, [r7, #4]
 8000e78:	2200      	movs	r2, #0
 8000e7a:	70da      	strb	r2, [r3, #3]
 8000e7c:	687b      	ldr	r3, [r7, #4]
 8000e7e:	2200      	movs	r2, #0
 8000e80:	711a      	strb	r2, [r3, #4]
 8000e82:	687b      	ldr	r3, [r7, #4]
 8000e84:	2200      	movs	r2, #0
 8000e86:	715a      	strb	r2, [r3, #5]
 8000e88:	687b      	ldr	r3, [r7, #4]
 8000e8a:	2200      	movs	r2, #0
 8000e8c:	719a      	strb	r2, [r3, #6]
 8000e8e:	687b      	ldr	r3, [r7, #4]
 8000e90:	4618      	mov	r0, r3
 8000e92:	370c      	adds	r7, #12
 8000e94:	46bd      	mov	sp, r7
 8000e96:	f85d 7b04 	ldr.w	r7, [sp], #4
 8000e9a:	4770      	bx	lr

08000e9c <_ZN8ICM426888icm42688C1ERNS_6ConfigEP9iPHandlerPN5STM324gpioEhS7_S7_>:
#include "icm42688_utils.hpp"
#include "icm42688.hpp"

namespace ICM42688{

    icm42688::icm42688( Config& cnf, iPHandler* handler, gpio *cs,
 8000e9c:	b5b0      	push	{r4, r5, r7, lr}
 8000e9e:	b084      	sub	sp, #16
 8000ea0:	af00      	add	r7, sp, #0
 8000ea2:	60f8      	str	r0, [r7, #12]
 8000ea4:	60b9      	str	r1, [r7, #8]
 8000ea6:	607a      	str	r2, [r7, #4]
 8000ea8:	603b      	str	r3, [r7, #0]
        , m_handler(handler)
        , m_cs(cs)
        , m_i2cAdd(slaveAdd)
        , m_INT1(INT1)
        , m_INT2(INT2)
        , m_currentBankReg(bankRegister::BANK0)
 8000eaa:	68fb      	ldr	r3, [r7, #12]
 8000eac:	4618      	mov	r0, r3
 8000eae:	f7ff ffc5 	bl	8000e3c <_ZN4iIMUC1Ev>
 8000eb2:	4a34      	ldr	r2, [pc, #208]	; (8000f84 <_ZN8ICM426888icm42688C1ERNS_6ConfigEP9iPHandlerPN5STM324gpioEhS7_S7_+0xe8>)
 8000eb4:	68fb      	ldr	r3, [r7, #12]
 8000eb6:	601a      	str	r2, [r3, #0]
        : imuDataBuffer()
 8000eb8:	68fb      	ldr	r3, [r7, #12]
 8000eba:	3304      	adds	r3, #4
 8000ebc:	4618      	mov	r0, r3
 8000ebe:	f001 f935 	bl	800212c <_ZN11circ_bufferI7IMUDataLm16EtEC1Ev>
        , m_cnf(cnf)
 8000ec2:	68fb      	ldr	r3, [r7, #12]
 8000ec4:	68ba      	ldr	r2, [r7, #8]
 8000ec6:	f503 74e8 	add.w	r4, r3, #464	; 0x1d0
 8000eca:	4615      	mov	r5, r2
 8000ecc:	cd0f      	ldmia	r5!, {r0, r1, r2, r3}
 8000ece:	c40f      	stmia	r4!, {r0, r1, r2, r3}
 8000ed0:	cd0f      	ldmia	r5!, {r0, r1, r2, r3}
 8000ed2:	c40f      	stmia	r4!, {r0, r1, r2, r3}
 8000ed4:	e895 0003 	ldmia.w	r5, {r0, r1}
 8000ed8:	e884 0003 	stmia.w	r4, {r0, r1}
        , m_currentBankReg(bankRegister::BANK0)
 8000edc:	68fb      	ldr	r3, [r7, #12]
 8000ede:	f503 730e 	add.w	r3, r3, #568	; 0x238
 8000ee2:	4618      	mov	r0, r3
 8000ee4:	f7ff ffba 	bl	8000e5c <_ZN8ICM426889RegistersC1Ev>
        , m_handler(handler)
 8000ee8:	68fb      	ldr	r3, [r7, #12]
 8000eea:	687a      	ldr	r2, [r7, #4]
 8000eec:	f8c3 2240 	str.w	r2, [r3, #576]	; 0x240
        , m_cs(cs)
 8000ef0:	68fb      	ldr	r3, [r7, #12]
 8000ef2:	683a      	ldr	r2, [r7, #0]
 8000ef4:	f8c3 2244 	str.w	r2, [r3, #580]	; 0x244
        , m_i2cAdd(slaveAdd)
 8000ef8:	68fb      	ldr	r3, [r7, #12]
 8000efa:	f897 2020 	ldrb.w	r2, [r7, #32]
 8000efe:	f883 2248 	strb.w	r2, [r3, #584]	; 0x248
        , m_INT1(INT1)
 8000f02:	68fb      	ldr	r3, [r7, #12]
 8000f04:	6a7a      	ldr	r2, [r7, #36]	; 0x24
 8000f06:	f8c3 2250 	str.w	r2, [r3, #592]	; 0x250
        , m_INT2(INT2)
 8000f0a:	68fb      	ldr	r3, [r7, #12]
 8000f0c:	6aba      	ldr	r2, [r7, #40]	; 0x28
 8000f0e:	f8c3 2254 	str.w	r2, [r3, #596]	; 0x254
        , m_currentBankReg(bankRegister::BANK0)
 8000f12:	68fb      	ldr	r3, [r7, #12]
 8000f14:	2200      	movs	r2, #0
 8000f16:	f8c3 2258 	str.w	r2, [r3, #600]	; 0x258

    {
        m_mode = COMM_MODE::BLCK;
 8000f1a:	68fb      	ldr	r3, [r7, #12]
 8000f1c:	2200      	movs	r2, #0
 8000f1e:	f8c3 224c 	str.w	r2, [r3, #588]	; 0x24c
        m_gyroODRValue    = map_gyro_ODR_CNF_to_ODR(m_cnf.gyroODR);
 8000f22:	68fb      	ldr	r3, [r7, #12]
 8000f24:	f8d3 31d4 	ldr.w	r3, [r3, #468]	; 0x1d4
 8000f28:	4618      	mov	r0, r3
 8000f2a:	f002 fb79 	bl	8003620 <_ZN8ICM4268823map_gyro_ODR_CNF_to_ODRENS_8GYRO_CNF3ODRE>
 8000f2e:	eef0 7a40 	vmov.f32	s15, s0
 8000f32:	68fb      	ldr	r3, [r7, #12]
 8000f34:	edc3 7a98 	vstr	s15, [r3, #608]	; 0x260
        m_gyroFSRValue    = map_gyro_FSR_CNF_to_FSR(m_cnf.gyroFSR);
 8000f38:	68fb      	ldr	r3, [r7, #12]
 8000f3a:	f8d3 31d0 	ldr.w	r3, [r3, #464]	; 0x1d0
 8000f3e:	4618      	mov	r0, r3
 8000f40:	f002 fbce 	bl	80036e0 <_ZN8ICM4268823map_gyro_FSR_CNF_to_FSRENS_8GYRO_CNF3FSRE>
 8000f44:	eef0 7a40 	vmov.f32	s15, s0
 8000f48:	68fb      	ldr	r3, [r7, #12]
 8000f4a:	edc3 7a97 	vstr	s15, [r3, #604]	; 0x25c
        m_accelODRValue   = map_accel_ODR_CNF_to_ODR(m_cnf.accelODR);
 8000f4e:	68fb      	ldr	r3, [r7, #12]
 8000f50:	f8d3 31dc 	ldr.w	r3, [r3, #476]	; 0x1dc
 8000f54:	4618      	mov	r0, r3
 8000f56:	f002 fbe7 	bl	8003728 <_ZN8ICM4268824map_accel_ODR_CNF_to_ODRENS_9ACCEL_CNF3ODRE>
 8000f5a:	eef0 7a40 	vmov.f32	s15, s0
 8000f5e:	68fb      	ldr	r3, [r7, #12]
 8000f60:	edc3 7a9a 	vstr	s15, [r3, #616]	; 0x268
        m_accelFSRValue   = map_accel_FSR_CNF_to_FSR(m_cnf.accelFSR);
 8000f64:	68fb      	ldr	r3, [r7, #12]
 8000f66:	f8d3 31d8 	ldr.w	r3, [r3, #472]	; 0x1d8
 8000f6a:	4618      	mov	r0, r3
 8000f6c:	f002 fc3c 	bl	80037e8 <_ZN8ICM4268824map_accel_FSR_CNF_to_FSRENS_9ACCEL_CNF3FSRE>
 8000f70:	eef0 7a40 	vmov.f32	s15, s0
 8000f74:	68fb      	ldr	r3, [r7, #12]
 8000f76:	edc3 7a99 	vstr	s15, [r3, #612]	; 0x264
    }
 8000f7a:	68fb      	ldr	r3, [r7, #12]
 8000f7c:	4618      	mov	r0, r3
 8000f7e:	3710      	adds	r7, #16
 8000f80:	46bd      	mov	sp, r7
 8000f82:	bdb0      	pop	{r4, r5, r7, pc}
 8000f84:	080097e4 	.word	0x080097e4

08000f88 <_ZN8ICM426888icm42688C1ERNS_6ConfigEP9iPHandlerPN5STM324gpioE>:
        m_spiSet = true;
        //write_config();
        enable();
    }

    icm42688::icm42688(Config& cnf, iPHandler *handlerSpi, gpio *cs)
 8000f88:	b580      	push	{r7, lr}
 8000f8a:	b088      	sub	sp, #32
 8000f8c:	af04      	add	r7, sp, #16
 8000f8e:	60f8      	str	r0, [r7, #12]
 8000f90:	60b9      	str	r1, [r7, #8]
 8000f92:	607a      	str	r2, [r7, #4]
 8000f94:	603b      	str	r3, [r7, #0]
        : icm42688(cnf, handlerSpi, cs, 0xFF, nullptr, nullptr)
 8000f96:	2300      	movs	r3, #0
 8000f98:	9302      	str	r3, [sp, #8]
 8000f9a:	2300      	movs	r3, #0
 8000f9c:	9301      	str	r3, [sp, #4]
 8000f9e:	23ff      	movs	r3, #255	; 0xff
 8000fa0:	9300      	str	r3, [sp, #0]
 8000fa2:	683b      	ldr	r3, [r7, #0]
 8000fa4:	687a      	ldr	r2, [r7, #4]
 8000fa6:	68b9      	ldr	r1, [r7, #8]
 8000fa8:	68f8      	ldr	r0, [r7, #12]
 8000faa:	f7ff ff77 	bl	8000e9c <_ZN8ICM426888icm42688C1ERNS_6ConfigEP9iPHandlerPN5STM324gpioEhS7_S7_>
    {
        m_spiSet = true;
 8000fae:	68fb      	ldr	r3, [r7, #12]
 8000fb0:	2201      	movs	r2, #1
 8000fb2:	f883 2249 	strb.w	r2, [r3, #585]	; 0x249
        //write_config();
        enable();
 8000fb6:	68f8      	ldr	r0, [r7, #12]
 8000fb8:	f000 ff30 	bl	8001e1c <_ZN8ICM426888icm426886enableEv>
    }
 8000fbc:	68fb      	ldr	r3, [r7, #12]
 8000fbe:	4618      	mov	r0, r3
 8000fc0:	3710      	adds	r7, #16
 8000fc2:	46bd      	mov	sp, r7
 8000fc4:	bd80      	pop	{r7, pc}

08000fc6 <_ZN11PHandlerOptC1Ev>:
struct PHandlerOpt {
 8000fc6:	b480      	push	{r7}
 8000fc8:	b083      	sub	sp, #12
 8000fca:	af00      	add	r7, sp, #0
 8000fcc:	6078      	str	r0, [r7, #4]
 8000fce:	687b      	ldr	r3, [r7, #4]
 8000fd0:	2200      	movs	r2, #0
 8000fd2:	605a      	str	r2, [r3, #4]
 8000fd4:	687b      	ldr	r3, [r7, #4]
 8000fd6:	2200      	movs	r2, #0
 8000fd8:	609a      	str	r2, [r3, #8]
 8000fda:	687b      	ldr	r3, [r7, #4]
 8000fdc:	2201      	movs	r2, #1
 8000fde:	731a      	strb	r2, [r3, #12]
 8000fe0:	687b      	ldr	r3, [r7, #4]
 8000fe2:	2201      	movs	r2, #1
 8000fe4:	735a      	strb	r2, [r3, #13]
 8000fe6:	687b      	ldr	r3, [r7, #4]
 8000fe8:	2201      	movs	r2, #1
 8000fea:	739a      	strb	r2, [r3, #14]
 8000fec:	687b      	ldr	r3, [r7, #4]
 8000fee:	4618      	mov	r0, r3
 8000ff0:	370c      	adds	r7, #12
 8000ff2:	46bd      	mov	sp, r7
 8000ff4:	f85d 7b04 	ldr.w	r7, [sp], #4
 8000ff8:	4770      	bx	lr

08000ffa <_ZN8ICM426888icm4268817set_bank_registerENS_12bankRegisterE>:
        enable();
    }


    iIMU_ST icm42688::set_bank_register(bankRegister bankReg)
    {
 8000ffa:	b580      	push	{r7, lr}
 8000ffc:	b088      	sub	sp, #32
 8000ffe:	af00      	add	r7, sp, #0
 8001000:	6078      	str	r0, [r7, #4]
 8001002:	6039      	str	r1, [r7, #0]
        //iHANDLER_ST retHandler(iHANDLER_ST::OK);
        uint8_t bank;
        PHandlerOpt opt;
 8001004:	f107 030c 	add.w	r3, r7, #12
 8001008:	4618      	mov	r0, r3
 800100a:	f7ff ffdc 	bl	8000fc6 <_ZN11PHandlerOptC1Ev>

        if(m_currentBankReg != bankReg){
 800100e:	687b      	ldr	r3, [r7, #4]
 8001010:	f8d3 3258 	ldr.w	r3, [r3, #600]	; 0x258
 8001014:	683a      	ldr	r2, [r7, #0]
 8001016:	429a      	cmp	r2, r3
 8001018:	d033      	beq.n	8001082 <_ZN8ICM426888icm4268817set_bank_registerENS_12bankRegisterE+0x88>

            bank = static_cast<uint8_t>(bankReg);
 800101a:	683b      	ldr	r3, [r7, #0]
 800101c:	77fb      	strb	r3, [r7, #31]
            opt.add = REG_BANK_SEL_ADD;
 800101e:	2376      	movs	r3, #118	; 0x76
 8001020:	733b      	strb	r3, [r7, #12]
            opt.size = 1;
 8001022:	2301      	movs	r3, #1
 8001024:	737b      	strb	r3, [r7, #13]
            opt.slave = m_spiSet ? static_cast<void*>(m_cs) : static_cast<void*>(&m_i2cAdd);
 8001026:	687b      	ldr	r3, [r7, #4]
 8001028:	f893 3249 	ldrb.w	r3, [r3, #585]	; 0x249
 800102c:	2b00      	cmp	r3, #0
 800102e:	d003      	beq.n	8001038 <_ZN8ICM426888icm4268817set_bank_registerENS_12bankRegisterE+0x3e>
 8001030:	687b      	ldr	r3, [r7, #4]
 8001032:	f8d3 3244 	ldr.w	r3, [r3, #580]	; 0x244
 8001036:	e002      	b.n	800103e <_ZN8ICM426888icm4268817set_bank_registerENS_12bankRegisterE+0x44>
 8001038:	687b      	ldr	r3, [r7, #4]
 800103a:	f503 7312 	add.w	r3, r3, #584	; 0x248
 800103e:	613b      	str	r3, [r7, #16]
            m_TxBuffer[0] = bank;
 8001040:	687b      	ldr	r3, [r7, #4]
 8001042:	7ffa      	ldrb	r2, [r7, #31]
 8001044:	f883 21f8 	strb.w	r2, [r3, #504]	; 0x1f8

            if(m_handler->write_registers(m_TxBuffer, opt) != iPHANDLER_ST::OK){
 8001048:	687b      	ldr	r3, [r7, #4]
 800104a:	f8d3 0240 	ldr.w	r0, [r3, #576]	; 0x240
 800104e:	687b      	ldr	r3, [r7, #4]
 8001050:	f8d3 3240 	ldr.w	r3, [r3, #576]	; 0x240
 8001054:	681b      	ldr	r3, [r3, #0]
 8001056:	3304      	adds	r3, #4
 8001058:	681b      	ldr	r3, [r3, #0]
 800105a:	687a      	ldr	r2, [r7, #4]
 800105c:	f502 71fc 	add.w	r1, r2, #504	; 0x1f8
 8001060:	f107 020c 	add.w	r2, r7, #12
 8001064:	4798      	blx	r3
 8001066:	4603      	mov	r3, r0
 8001068:	2b00      	cmp	r3, #0
 800106a:	bf14      	ite	ne
 800106c:	2301      	movne	r3, #1
 800106e:	2300      	moveq	r3, #0
 8001070:	b2db      	uxtb	r3, r3
 8001072:	2b00      	cmp	r3, #0
 8001074:	d001      	beq.n	800107a <_ZN8ICM426888icm4268817set_bank_registerENS_12bankRegisterE+0x80>
            	return iIMU_ST::ERROR_COMM;
 8001076:	2301      	movs	r3, #1
 8001078:	e004      	b.n	8001084 <_ZN8ICM426888icm4268817set_bank_registerENS_12bankRegisterE+0x8a>
            }

            m_currentBankReg = bankReg;
 800107a:	687b      	ldr	r3, [r7, #4]
 800107c:	683a      	ldr	r2, [r7, #0]
 800107e:	f8c3 2258 	str.w	r2, [r3, #600]	; 0x258
        }

        return iIMU_ST::OK;
 8001082:	2300      	movs	r3, #0
    }
 8001084:	4618      	mov	r0, r3
 8001086:	3720      	adds	r7, #32
 8001088:	46bd      	mov	sp, r7
 800108a:	bd80      	pop	{r7, pc}

0800108c <_ZN8ICM426888icm426889save_dataEv>:

    /////////////////////////////////////// PUBLIC ///////////////////////////////////////

        
    iIMU_ST icm42688::save_data()
    {
 800108c:	b580      	push	{r7, lr}
 800108e:	b088      	sub	sp, #32
 8001090:	af00      	add	r7, sp, #0
 8001092:	6078      	str	r0, [r7, #4]
        iIMU_ST ret = iIMU_ST::OK;
 8001094:	2300      	movs	r3, #0
 8001096:	61fb      	str	r3, [r7, #28]
        iPHANDLER_ST retHandler(iPHANDLER_ST::OK);
 8001098:	2300      	movs	r3, #0
 800109a:	61bb      	str	r3, [r7, #24]
        PHandlerOpt opt;
 800109c:	f107 0308 	add.w	r3, r7, #8
 80010a0:	4618      	mov	r0, r3
 80010a2:	f7ff ff90 	bl	8000fc6 <_ZN11PHandlerOptC1Ev>

        ret = set_bank_register(bankRegister::BANK0);
 80010a6:	2100      	movs	r1, #0
 80010a8:	6878      	ldr	r0, [r7, #4]
 80010aa:	f7ff ffa6 	bl	8000ffa <_ZN8ICM426888icm4268817set_bank_registerENS_12bankRegisterE>
 80010ae:	61f8      	str	r0, [r7, #28]
        if( ret != iIMU_ST::OK){
 80010b0:	69fb      	ldr	r3, [r7, #28]
 80010b2:	2b00      	cmp	r3, #0
 80010b4:	d001      	beq.n	80010ba <_ZN8ICM426888icm426889save_dataEv+0x2e>
            return ret;
 80010b6:	69fb      	ldr	r3, [r7, #28]
 80010b8:	e055      	b.n	8001166 <_ZN8ICM426888icm426889save_dataEv+0xda>
        }
        

        opt.add = TEMP_DATA1_ADD;
 80010ba:	231d      	movs	r3, #29
 80010bc:	723b      	strb	r3, [r7, #8]
        opt.size = IMU_DATA_N_REGS;
 80010be:	230e      	movs	r3, #14
 80010c0:	727b      	strb	r3, [r7, #9]
        opt.slave = m_spiSet ? static_cast<void*>(m_cs) : static_cast<void*>(&m_i2cAdd);
 80010c2:	687b      	ldr	r3, [r7, #4]
 80010c4:	f893 3249 	ldrb.w	r3, [r3, #585]	; 0x249
 80010c8:	2b00      	cmp	r3, #0
 80010ca:	d003      	beq.n	80010d4 <_ZN8ICM426888icm426889save_dataEv+0x48>
 80010cc:	687b      	ldr	r3, [r7, #4]
 80010ce:	f8d3 3244 	ldr.w	r3, [r3, #580]	; 0x244
 80010d2:	e002      	b.n	80010da <_ZN8ICM426888icm426889save_dataEv+0x4e>
 80010d4:	687b      	ldr	r3, [r7, #4]
 80010d6:	f503 7312 	add.w	r3, r3, #584	; 0x248
 80010da:	60fb      	str	r3, [r7, #12]
        opt.mode = m_mode;
 80010dc:	687b      	ldr	r3, [r7, #4]
 80010de:	f8d3 324c 	ldr.w	r3, [r3, #588]	; 0x24c
 80010e2:	613b      	str	r3, [r7, #16]


        if(!m_handler->lock()){
 80010e4:	687b      	ldr	r3, [r7, #4]
 80010e6:	f8d3 3240 	ldr.w	r3, [r3, #576]	; 0x240
 80010ea:	4618      	mov	r0, r3
 80010ec:	f7ff fdcc 	bl	8000c88 <_ZN9iPHandler4lockEv>
 80010f0:	4603      	mov	r3, r0
 80010f2:	f083 0301 	eor.w	r3, r3, #1
 80010f6:	b2db      	uxtb	r3, r3
 80010f8:	2b00      	cmp	r3, #0
 80010fa:	d001      	beq.n	8001100 <_ZN8ICM426888icm426889save_dataEv+0x74>
        	return iIMU_ST::ERROR_HANDLER_UNAVAILABLE;
 80010fc:	2305      	movs	r3, #5
 80010fe:	e032      	b.n	8001166 <_ZN8ICM426888icm426889save_dataEv+0xda>
        }

        retHandler = m_handler->read_registers(opt);
 8001100:	687b      	ldr	r3, [r7, #4]
 8001102:	f8d3 2240 	ldr.w	r2, [r3, #576]	; 0x240
 8001106:	687b      	ldr	r3, [r7, #4]
 8001108:	f8d3 3240 	ldr.w	r3, [r3, #576]	; 0x240
 800110c:	681b      	ldr	r3, [r3, #0]
 800110e:	681b      	ldr	r3, [r3, #0]
 8001110:	f107 0108 	add.w	r1, r7, #8
 8001114:	4610      	mov	r0, r2
 8001116:	4798      	blx	r3
 8001118:	61b8      	str	r0, [r7, #24]
        if(retHandler != iPHANDLER_ST::OK){
 800111a:	69bb      	ldr	r3, [r7, #24]
 800111c:	2b00      	cmp	r3, #0
 800111e:	d004      	beq.n	800112a <_ZN8ICM426888icm426889save_dataEv+0x9e>
            return map_handler_ret_to_iIMU_ret(retHandler);
 8001120:	69b8      	ldr	r0, [r7, #24]
 8001122:	f000 ffdf 	bl	80020e4 <_ZN8ICM426888icm4268827map_handler_ret_to_iIMU_retE12iPHANDLER_ST>
 8001126:	4603      	mov	r3, r0
 8001128:	e01d      	b.n	8001166 <_ZN8ICM426888icm426889save_dataEv+0xda>
        }
         

        if(m_mode == COMM_MODE::BLCK){
 800112a:	687b      	ldr	r3, [r7, #4]
 800112c:	f8d3 324c 	ldr.w	r3, [r3, #588]	; 0x24c
 8001130:	2b00      	cmp	r3, #0
 8001132:	d117      	bne.n	8001164 <_ZN8ICM426888icm426889save_dataEv+0xd8>
        	memcpy(m_RxBuffer, m_handler->m_recvBuffer, opt.size);
 8001134:	687b      	ldr	r3, [r7, #4]
 8001136:	f503 7006 	add.w	r0, r3, #536	; 0x218
 800113a:	687b      	ldr	r3, [r7, #4]
 800113c:	f8d3 3240 	ldr.w	r3, [r3, #576]	; 0x240
 8001140:	685b      	ldr	r3, [r3, #4]
 8001142:	7a7a      	ldrb	r2, [r7, #9]
 8001144:	4619      	mov	r1, r3
 8001146:	f008 fad5 	bl	80096f4 <memcpy>
            m_handler->unlock();
 800114a:	687b      	ldr	r3, [r7, #4]
 800114c:	f8d3 3240 	ldr.w	r3, [r3, #576]	; 0x240
 8001150:	4618      	mov	r0, r3
 8001152:	f7ff fdad 	bl	8000cb0 <_ZN9iPHandler6unlockEv>
        	//load_data(dummyIMUData, m_RxBuffer);
            load_data(m_RxBuffer);
 8001156:	687b      	ldr	r3, [r7, #4]
 8001158:	f503 7306 	add.w	r3, r3, #536	; 0x218
 800115c:	4619      	mov	r1, r3
 800115e:	6878      	ldr	r0, [r7, #4]
 8001160:	f000 ff48 	bl	8001ff4 <_ZN8ICM426888icm426889load_dataEPh>
            //m_handler->m_mutex = false;
        }


        return ret;
 8001164:	69fb      	ldr	r3, [r7, #28]
    }
 8001166:	4618      	mov	r0, r3
 8001168:	3720      	adds	r7, #32
 800116a:	46bd      	mov	sp, r7
 800116c:	bd80      	pop	{r7, pc}

0800116e <_ZN8ICM426888icm4268818save_data_callbackEv>:

    void icm42688::save_data_callback()
    {
 800116e:	b580      	push	{r7, lr}
 8001170:	b082      	sub	sp, #8
 8001172:	af00      	add	r7, sp, #0
 8001174:	6078      	str	r0, [r7, #4]
        //IMUData dummyIMUData;
        load_data(m_handler->m_recvBuffer);
 8001176:	687b      	ldr	r3, [r7, #4]
 8001178:	f8d3 3240 	ldr.w	r3, [r3, #576]	; 0x240
 800117c:	685b      	ldr	r3, [r3, #4]
 800117e:	4619      	mov	r1, r3
 8001180:	6878      	ldr	r0, [r7, #4]
 8001182:	f000 ff37 	bl	8001ff4 <_ZN8ICM426888icm426889load_dataEPh>
        m_handler->unlock();
 8001186:	687b      	ldr	r3, [r7, #4]
 8001188:	f8d3 3240 	ldr.w	r3, [r3, #576]	; 0x240
 800118c:	4618      	mov	r0, r3
 800118e:	f7ff fd8f 	bl	8000cb0 <_ZN9iPHandler6unlockEv>
        //m_handler->m_mutex = false;
    }
 8001192:	bf00      	nop
 8001194:	3708      	adds	r7, #8
 8001196:	46bd      	mov	sp, r7
 8001198:	bd80      	pop	{r7, pc}

0800119a <_ZN8ICM426888icm4268814save_fifo_dataEh>:
    


    iIMU_ST icm42688::save_fifo_data(uint8_t qty)
    {
 800119a:	b480      	push	{r7}
 800119c:	b083      	sub	sp, #12
 800119e:	af00      	add	r7, sp, #0
 80011a0:	6078      	str	r0, [r7, #4]
 80011a2:	460b      	mov	r3, r1
 80011a4:	70fb      	strb	r3, [r7, #3]
				return iIMU_ST::ERROR_BUFFER;
			}
        }

        */
        return iIMU_ST::OK;
 80011a6:	2300      	movs	r3, #0
        
    }
 80011a8:	4618      	mov	r0, r3
 80011aa:	370c      	adds	r7, #12
 80011ac:	46bd      	mov	sp, r7
 80011ae:	f85d 7b04 	ldr.w	r7, [sp], #4
 80011b2:	4770      	bx	lr

080011b4 <_ZN8ICM426888icm4268823save_fifo_data_callbackEv>:

    void icm42688::save_fifo_data_callback()
    {
 80011b4:	b480      	push	{r7}
 80011b6:	b083      	sub	sp, #12
 80011b8:	af00      	add	r7, sp, #0
 80011ba:	6078      	str	r0, [r7, #4]
            dummyIMUData.temp   = convertTempFIFOData(mRxBuffer[FIFO_PACKET_SIZE*i + 13]);
            imuDataBuffer.write(dummyIMUData);
        }
        */
        //return;
    }
 80011bc:	bf00      	nop
 80011be:	370c      	adds	r7, #12
 80011c0:	46bd      	mov	sp, r7
 80011c2:	f85d 7b04 	ldr.w	r7, [sp], #4
 80011c6:	4770      	bx	lr

080011c8 <_ZN8ICM426888icm426889read_dataEP7IMUData>:


    iIMU_ST icm42688::read_data(IMUData *pData)
    {
 80011c8:	b580      	push	{r7, lr}
 80011ca:	b082      	sub	sp, #8
 80011cc:	af00      	add	r7, sp, #0
 80011ce:	6078      	str	r0, [r7, #4]
 80011d0:	6039      	str	r1, [r7, #0]
        if(imuDataBuffer.read(pData) == EXIT_OK){
 80011d2:	687b      	ldr	r3, [r7, #4]
 80011d4:	3304      	adds	r3, #4
 80011d6:	6839      	ldr	r1, [r7, #0]
 80011d8:	4618      	mov	r0, r3
 80011da:	f000 ffc5 	bl	8002168 <_ZN11circ_bufferI7IMUDataLm16EtE4readEPS0_>
 80011de:	4603      	mov	r3, r0
 80011e0:	2b01      	cmp	r3, #1
 80011e2:	bf0c      	ite	eq
 80011e4:	2301      	moveq	r3, #1
 80011e6:	2300      	movne	r3, #0
 80011e8:	b2db      	uxtb	r3, r3
 80011ea:	2b00      	cmp	r3, #0
 80011ec:	d001      	beq.n	80011f2 <_ZN8ICM426888icm426889read_dataEP7IMUData+0x2a>
            return iIMU_ST::OK;
 80011ee:	2300      	movs	r3, #0
 80011f0:	e000      	b.n	80011f4 <_ZN8ICM426888icm426889read_dataEP7IMUData+0x2c>
        }
        return iIMU_ST::ERROR_BUFFER;
 80011f2:	2304      	movs	r3, #4
    }
 80011f4:	4618      	mov	r0, r3
 80011f6:	3708      	adds	r7, #8
 80011f8:	46bd      	mov	sp, r7
 80011fa:	bd80      	pop	{r7, pc}

080011fc <_ZN8ICM426888icm4268812set_gyro_odrEh>:


    iIMU_ST icm42688::set_gyro_odr(uint8_t odr) 
    {
 80011fc:	b580      	push	{r7, lr}
 80011fe:	b088      	sub	sp, #32
 8001200:	af00      	add	r7, sp, #0
 8001202:	6078      	str	r0, [r7, #4]
 8001204:	460b      	mov	r3, r1
 8001206:	70fb      	strb	r3, [r7, #3]
        GYRO_CNF::ODR gyroNewODR = static_cast<GYRO_CNF::ODR> (odr);
 8001208:	78fb      	ldrb	r3, [r7, #3]
 800120a:	61fb      	str	r3, [r7, #28]
        PHandlerOpt opt;
 800120c:	f107 0308 	add.w	r3, r7, #8
 8001210:	4618      	mov	r0, r3
 8001212:	f7ff fed8 	bl	8000fc6 <_ZN11PHandlerOptC1Ev>
        uint8_t new_GYRO_CONFIG0;

        if(set_bank_register(bankRegister::BANK0) != iIMU_ST::OK){
 8001216:	2100      	movs	r1, #0
 8001218:	6878      	ldr	r0, [r7, #4]
 800121a:	f7ff feee 	bl	8000ffa <_ZN8ICM426888icm4268817set_bank_registerENS_12bankRegisterE>
 800121e:	4603      	mov	r3, r0
 8001220:	2b00      	cmp	r3, #0
 8001222:	bf14      	ite	ne
 8001224:	2301      	movne	r3, #1
 8001226:	2300      	moveq	r3, #0
 8001228:	b2db      	uxtb	r3, r3
 800122a:	2b00      	cmp	r3, #0
 800122c:	d001      	beq.n	8001232 <_ZN8ICM426888icm4268812set_gyro_odrEh+0x36>
            return iIMU_ST::ERROR_COMM;
 800122e:	2301      	movs	r3, #1
 8001230:	e04e      	b.n	80012d0 <_ZN8ICM426888icm4268812set_gyro_odrEh+0xd4>
        }
        new_GYRO_CONFIG0 = GYRO_CONFIG0::SET_ODR(m_reg.GYRO_CONFIG0, gyroNewODR);
 8001232:	687b      	ldr	r3, [r7, #4]
 8001234:	f893 3238 	ldrb.w	r3, [r3, #568]	; 0x238
 8001238:	69f9      	ldr	r1, [r7, #28]
 800123a:	4618      	mov	r0, r3
 800123c:	f7ff fdbb 	bl	8000db6 <_ZN8ICM4268812GYRO_CONFIG07SET_ODREhNS_8GYRO_CNF3ODRE>
 8001240:	4603      	mov	r3, r0
 8001242:	76fb      	strb	r3, [r7, #27]
        m_TxBuffer[0] = new_GYRO_CONFIG0;
 8001244:	687b      	ldr	r3, [r7, #4]
 8001246:	7efa      	ldrb	r2, [r7, #27]
 8001248:	f883 21f8 	strb.w	r2, [r3, #504]	; 0x1f8

        opt.add = GYRO_CONFIG0_ADD;
 800124c:	234f      	movs	r3, #79	; 0x4f
 800124e:	723b      	strb	r3, [r7, #8]
        opt.size = 1;
 8001250:	2301      	movs	r3, #1
 8001252:	727b      	strb	r3, [r7, #9]
        opt.slave = m_spiSet ? static_cast<void*>(m_cs) : static_cast<void*>(&m_i2cAdd);
 8001254:	687b      	ldr	r3, [r7, #4]
 8001256:	f893 3249 	ldrb.w	r3, [r3, #585]	; 0x249
 800125a:	2b00      	cmp	r3, #0
 800125c:	d003      	beq.n	8001266 <_ZN8ICM426888icm4268812set_gyro_odrEh+0x6a>
 800125e:	687b      	ldr	r3, [r7, #4]
 8001260:	f8d3 3244 	ldr.w	r3, [r3, #580]	; 0x244
 8001264:	e002      	b.n	800126c <_ZN8ICM426888icm4268812set_gyro_odrEh+0x70>
 8001266:	687b      	ldr	r3, [r7, #4]
 8001268:	f503 7312 	add.w	r3, r3, #584	; 0x248
 800126c:	60fb      	str	r3, [r7, #12]
        opt.mode = m_mode;
 800126e:	687b      	ldr	r3, [r7, #4]
 8001270:	f8d3 324c 	ldr.w	r3, [r3, #588]	; 0x24c
 8001274:	613b      	str	r3, [r7, #16]

        if(m_handler->write_registers(m_TxBuffer, opt) != iPHANDLER_ST::OK){
 8001276:	687b      	ldr	r3, [r7, #4]
 8001278:	f8d3 0240 	ldr.w	r0, [r3, #576]	; 0x240
 800127c:	687b      	ldr	r3, [r7, #4]
 800127e:	f8d3 3240 	ldr.w	r3, [r3, #576]	; 0x240
 8001282:	681b      	ldr	r3, [r3, #0]
 8001284:	3304      	adds	r3, #4
 8001286:	681b      	ldr	r3, [r3, #0]
 8001288:	687a      	ldr	r2, [r7, #4]
 800128a:	f502 71fc 	add.w	r1, r2, #504	; 0x1f8
 800128e:	f107 0208 	add.w	r2, r7, #8
 8001292:	4798      	blx	r3
 8001294:	4603      	mov	r3, r0
 8001296:	2b00      	cmp	r3, #0
 8001298:	bf14      	ite	ne
 800129a:	2301      	movne	r3, #1
 800129c:	2300      	moveq	r3, #0
 800129e:	b2db      	uxtb	r3, r3
 80012a0:	2b00      	cmp	r3, #0
 80012a2:	d001      	beq.n	80012a8 <_ZN8ICM426888icm4268812set_gyro_odrEh+0xac>
            return iIMU_ST::ERROR_COMM;
 80012a4:	2301      	movs	r3, #1
 80012a6:	e013      	b.n	80012d0 <_ZN8ICM426888icm4268812set_gyro_odrEh+0xd4>
        }

        m_reg.GYRO_CONFIG0 = new_GYRO_CONFIG0;
 80012a8:	687b      	ldr	r3, [r7, #4]
 80012aa:	7efa      	ldrb	r2, [r7, #27]
 80012ac:	f883 2238 	strb.w	r2, [r3, #568]	; 0x238
        m_cnf.gyroODR = gyroNewODR;
 80012b0:	687b      	ldr	r3, [r7, #4]
 80012b2:	69fa      	ldr	r2, [r7, #28]
 80012b4:	f8c3 21d4 	str.w	r2, [r3, #468]	; 0x1d4
        m_gyroODRValue = map_gyro_ODR_CNF_to_ODR(m_cnf.gyroODR);
 80012b8:	687b      	ldr	r3, [r7, #4]
 80012ba:	f8d3 31d4 	ldr.w	r3, [r3, #468]	; 0x1d4
 80012be:	4618      	mov	r0, r3
 80012c0:	f002 f9ae 	bl	8003620 <_ZN8ICM4268823map_gyro_ODR_CNF_to_ODRENS_8GYRO_CNF3ODRE>
 80012c4:	eef0 7a40 	vmov.f32	s15, s0
 80012c8:	687b      	ldr	r3, [r7, #4]
 80012ca:	edc3 7a98 	vstr	s15, [r3, #608]	; 0x260

        return iIMU_ST::OK;
 80012ce:	2300      	movs	r3, #0
    }
 80012d0:	4618      	mov	r0, r3
 80012d2:	3720      	adds	r7, #32
 80012d4:	46bd      	mov	sp, r7
 80012d6:	bd80      	pop	{r7, pc}

080012d8 <_ZN8ICM426888icm4268812set_gyro_fsrEh>:


    iIMU_ST icm42688::set_gyro_fsr(uint8_t fsr)
    {
 80012d8:	b580      	push	{r7, lr}
 80012da:	b088      	sub	sp, #32
 80012dc:	af00      	add	r7, sp, #0
 80012de:	6078      	str	r0, [r7, #4]
 80012e0:	460b      	mov	r3, r1
 80012e2:	70fb      	strb	r3, [r7, #3]
        GYRO_CNF::FSR gyroNewFSR = static_cast<GYRO_CNF::FSR> (fsr);
 80012e4:	78fb      	ldrb	r3, [r7, #3]
 80012e6:	61fb      	str	r3, [r7, #28]
        PHandlerOpt opt;
 80012e8:	f107 0308 	add.w	r3, r7, #8
 80012ec:	4618      	mov	r0, r3
 80012ee:	f7ff fe6a 	bl	8000fc6 <_ZN11PHandlerOptC1Ev>
        uint8_t new_GYRO_CONFIG0;

        if(set_bank_register(bankRegister::BANK0) != iIMU_ST::OK){
 80012f2:	2100      	movs	r1, #0
 80012f4:	6878      	ldr	r0, [r7, #4]
 80012f6:	f7ff fe80 	bl	8000ffa <_ZN8ICM426888icm4268817set_bank_registerENS_12bankRegisterE>
 80012fa:	4603      	mov	r3, r0
 80012fc:	2b00      	cmp	r3, #0
 80012fe:	bf14      	ite	ne
 8001300:	2301      	movne	r3, #1
 8001302:	2300      	moveq	r3, #0
 8001304:	b2db      	uxtb	r3, r3
 8001306:	2b00      	cmp	r3, #0
 8001308:	d001      	beq.n	800130e <_ZN8ICM426888icm4268812set_gyro_fsrEh+0x36>
            return iIMU_ST::ERROR_COMM;
 800130a:	2301      	movs	r3, #1
 800130c:	e04e      	b.n	80013ac <_ZN8ICM426888icm4268812set_gyro_fsrEh+0xd4>
        }

        new_GYRO_CONFIG0 = GYRO_CONFIG0::SET_FSR(m_reg.GYRO_CONFIG0, gyroNewFSR);
 800130e:	687b      	ldr	r3, [r7, #4]
 8001310:	f893 3238 	ldrb.w	r3, [r3, #568]	; 0x238
 8001314:	69f9      	ldr	r1, [r7, #28]
 8001316:	4618      	mov	r0, r3
 8001318:	f7ff fd37 	bl	8000d8a <_ZN8ICM4268812GYRO_CONFIG07SET_FSREhNS_8GYRO_CNF3FSRE>
 800131c:	4603      	mov	r3, r0
 800131e:	76fb      	strb	r3, [r7, #27]
        m_TxBuffer[0] = new_GYRO_CONFIG0;
 8001320:	687b      	ldr	r3, [r7, #4]
 8001322:	7efa      	ldrb	r2, [r7, #27]
 8001324:	f883 21f8 	strb.w	r2, [r3, #504]	; 0x1f8

        opt.add = GYRO_CONFIG0_ADD;
 8001328:	234f      	movs	r3, #79	; 0x4f
 800132a:	723b      	strb	r3, [r7, #8]
        opt.size = 1;
 800132c:	2301      	movs	r3, #1
 800132e:	727b      	strb	r3, [r7, #9]
        opt.slave = m_spiSet ? static_cast<void*>(m_cs) : static_cast<void*>(&m_i2cAdd);
 8001330:	687b      	ldr	r3, [r7, #4]
 8001332:	f893 3249 	ldrb.w	r3, [r3, #585]	; 0x249
 8001336:	2b00      	cmp	r3, #0
 8001338:	d003      	beq.n	8001342 <_ZN8ICM426888icm4268812set_gyro_fsrEh+0x6a>
 800133a:	687b      	ldr	r3, [r7, #4]
 800133c:	f8d3 3244 	ldr.w	r3, [r3, #580]	; 0x244
 8001340:	e002      	b.n	8001348 <_ZN8ICM426888icm4268812set_gyro_fsrEh+0x70>
 8001342:	687b      	ldr	r3, [r7, #4]
 8001344:	f503 7312 	add.w	r3, r3, #584	; 0x248
 8001348:	60fb      	str	r3, [r7, #12]
        opt.mode = m_mode;
 800134a:	687b      	ldr	r3, [r7, #4]
 800134c:	f8d3 324c 	ldr.w	r3, [r3, #588]	; 0x24c
 8001350:	613b      	str	r3, [r7, #16]

        if(m_handler->write_registers(m_TxBuffer, opt) != iPHANDLER_ST::OK){
 8001352:	687b      	ldr	r3, [r7, #4]
 8001354:	f8d3 0240 	ldr.w	r0, [r3, #576]	; 0x240
 8001358:	687b      	ldr	r3, [r7, #4]
 800135a:	f8d3 3240 	ldr.w	r3, [r3, #576]	; 0x240
 800135e:	681b      	ldr	r3, [r3, #0]
 8001360:	3304      	adds	r3, #4
 8001362:	681b      	ldr	r3, [r3, #0]
 8001364:	687a      	ldr	r2, [r7, #4]
 8001366:	f502 71fc 	add.w	r1, r2, #504	; 0x1f8
 800136a:	f107 0208 	add.w	r2, r7, #8
 800136e:	4798      	blx	r3
 8001370:	4603      	mov	r3, r0
 8001372:	2b00      	cmp	r3, #0
 8001374:	bf14      	ite	ne
 8001376:	2301      	movne	r3, #1
 8001378:	2300      	moveq	r3, #0
 800137a:	b2db      	uxtb	r3, r3
 800137c:	2b00      	cmp	r3, #0
 800137e:	d001      	beq.n	8001384 <_ZN8ICM426888icm4268812set_gyro_fsrEh+0xac>
            return iIMU_ST::ERROR_COMM;
 8001380:	2301      	movs	r3, #1
 8001382:	e013      	b.n	80013ac <_ZN8ICM426888icm4268812set_gyro_fsrEh+0xd4>
        }

        m_reg.GYRO_CONFIG0 = new_GYRO_CONFIG0;
 8001384:	687b      	ldr	r3, [r7, #4]
 8001386:	7efa      	ldrb	r2, [r7, #27]
 8001388:	f883 2238 	strb.w	r2, [r3, #568]	; 0x238
        m_cnf.gyroFSR = gyroNewFSR; 
 800138c:	687b      	ldr	r3, [r7, #4]
 800138e:	69fa      	ldr	r2, [r7, #28]
 8001390:	f8c3 21d0 	str.w	r2, [r3, #464]	; 0x1d0
        m_gyroODRValue = map_gyro_FSR_CNF_to_FSR(m_cnf.gyroFSR);
 8001394:	687b      	ldr	r3, [r7, #4]
 8001396:	f8d3 31d0 	ldr.w	r3, [r3, #464]	; 0x1d0
 800139a:	4618      	mov	r0, r3
 800139c:	f002 f9a0 	bl	80036e0 <_ZN8ICM4268823map_gyro_FSR_CNF_to_FSRENS_8GYRO_CNF3FSRE>
 80013a0:	eef0 7a40 	vmov.f32	s15, s0
 80013a4:	687b      	ldr	r3, [r7, #4]
 80013a6:	edc3 7a98 	vstr	s15, [r3, #608]	; 0x260

        return iIMU_ST::OK;
 80013aa:	2300      	movs	r3, #0

    } 
 80013ac:	4618      	mov	r0, r3
 80013ae:	3720      	adds	r7, #32
 80013b0:	46bd      	mov	sp, r7
 80013b2:	bd80      	pop	{r7, pc}

080013b4 <_ZN8ICM426888icm4268813set_accel_odrEh>:


    iIMU_ST icm42688::set_accel_odr(uint8_t odr)
    {
 80013b4:	b580      	push	{r7, lr}
 80013b6:	b088      	sub	sp, #32
 80013b8:	af00      	add	r7, sp, #0
 80013ba:	6078      	str	r0, [r7, #4]
 80013bc:	460b      	mov	r3, r1
 80013be:	70fb      	strb	r3, [r7, #3]
        ACCEL_CNF::ODR accelNewODR = static_cast<ACCEL_CNF::ODR> (odr);
 80013c0:	78fb      	ldrb	r3, [r7, #3]
 80013c2:	61fb      	str	r3, [r7, #28]
        PHandlerOpt opt;
 80013c4:	f107 0308 	add.w	r3, r7, #8
 80013c8:	4618      	mov	r0, r3
 80013ca:	f7ff fdfc 	bl	8000fc6 <_ZN11PHandlerOptC1Ev>
        uint8_t new_ACCEL_CONFIG0;

        if(set_bank_register(bankRegister::BANK0) != iIMU_ST::OK){
 80013ce:	2100      	movs	r1, #0
 80013d0:	6878      	ldr	r0, [r7, #4]
 80013d2:	f7ff fe12 	bl	8000ffa <_ZN8ICM426888icm4268817set_bank_registerENS_12bankRegisterE>
 80013d6:	4603      	mov	r3, r0
 80013d8:	2b00      	cmp	r3, #0
 80013da:	bf14      	ite	ne
 80013dc:	2301      	movne	r3, #1
 80013de:	2300      	moveq	r3, #0
 80013e0:	b2db      	uxtb	r3, r3
 80013e2:	2b00      	cmp	r3, #0
 80013e4:	d001      	beq.n	80013ea <_ZN8ICM426888icm4268813set_accel_odrEh+0x36>
            return iIMU_ST::ERROR_COMM;
 80013e6:	2301      	movs	r3, #1
 80013e8:	e04e      	b.n	8001488 <_ZN8ICM426888icm4268813set_accel_odrEh+0xd4>
        }

        new_ACCEL_CONFIG0 = ACCEL_CONFIG0::SET_ODR(m_reg.ACCEL_CONFIG0, accelNewODR);
 80013ea:	687b      	ldr	r3, [r7, #4]
 80013ec:	f893 3239 	ldrb.w	r3, [r3, #569]	; 0x239
 80013f0:	69f9      	ldr	r1, [r7, #28]
 80013f2:	4618      	mov	r0, r3
 80013f4:	f7ff fd0b 	bl	8000e0e <_ZN8ICM4268813ACCEL_CONFIG07SET_ODREhNS_9ACCEL_CNF3ODRE>
 80013f8:	4603      	mov	r3, r0
 80013fa:	76fb      	strb	r3, [r7, #27]
        m_TxBuffer[0] = new_ACCEL_CONFIG0;
 80013fc:	687b      	ldr	r3, [r7, #4]
 80013fe:	7efa      	ldrb	r2, [r7, #27]
 8001400:	f883 21f8 	strb.w	r2, [r3, #504]	; 0x1f8

        opt.add = ACCEL_CONFIG0_ADD;
 8001404:	2350      	movs	r3, #80	; 0x50
 8001406:	723b      	strb	r3, [r7, #8]
        opt.size = 1;
 8001408:	2301      	movs	r3, #1
 800140a:	727b      	strb	r3, [r7, #9]
        opt.slave = m_spiSet ? static_cast<void*>(m_cs) : static_cast<void*>(&m_i2cAdd);
 800140c:	687b      	ldr	r3, [r7, #4]
 800140e:	f893 3249 	ldrb.w	r3, [r3, #585]	; 0x249
 8001412:	2b00      	cmp	r3, #0
 8001414:	d003      	beq.n	800141e <_ZN8ICM426888icm4268813set_accel_odrEh+0x6a>
 8001416:	687b      	ldr	r3, [r7, #4]
 8001418:	f8d3 3244 	ldr.w	r3, [r3, #580]	; 0x244
 800141c:	e002      	b.n	8001424 <_ZN8ICM426888icm4268813set_accel_odrEh+0x70>
 800141e:	687b      	ldr	r3, [r7, #4]
 8001420:	f503 7312 	add.w	r3, r3, #584	; 0x248
 8001424:	60fb      	str	r3, [r7, #12]
        opt.mode = m_mode;
 8001426:	687b      	ldr	r3, [r7, #4]
 8001428:	f8d3 324c 	ldr.w	r3, [r3, #588]	; 0x24c
 800142c:	613b      	str	r3, [r7, #16]

        if(m_handler->write_registers(m_TxBuffer, opt) != iPHANDLER_ST::OK){
 800142e:	687b      	ldr	r3, [r7, #4]
 8001430:	f8d3 0240 	ldr.w	r0, [r3, #576]	; 0x240
 8001434:	687b      	ldr	r3, [r7, #4]
 8001436:	f8d3 3240 	ldr.w	r3, [r3, #576]	; 0x240
 800143a:	681b      	ldr	r3, [r3, #0]
 800143c:	3304      	adds	r3, #4
 800143e:	681b      	ldr	r3, [r3, #0]
 8001440:	687a      	ldr	r2, [r7, #4]
 8001442:	f502 71fc 	add.w	r1, r2, #504	; 0x1f8
 8001446:	f107 0208 	add.w	r2, r7, #8
 800144a:	4798      	blx	r3
 800144c:	4603      	mov	r3, r0
 800144e:	2b00      	cmp	r3, #0
 8001450:	bf14      	ite	ne
 8001452:	2301      	movne	r3, #1
 8001454:	2300      	moveq	r3, #0
 8001456:	b2db      	uxtb	r3, r3
 8001458:	2b00      	cmp	r3, #0
 800145a:	d001      	beq.n	8001460 <_ZN8ICM426888icm4268813set_accel_odrEh+0xac>
            return iIMU_ST::ERROR_COMM;
 800145c:	2301      	movs	r3, #1
 800145e:	e013      	b.n	8001488 <_ZN8ICM426888icm4268813set_accel_odrEh+0xd4>
        }

        m_reg.ACCEL_CONFIG0 = new_ACCEL_CONFIG0;
 8001460:	687b      	ldr	r3, [r7, #4]
 8001462:	7efa      	ldrb	r2, [r7, #27]
 8001464:	f883 2239 	strb.w	r2, [r3, #569]	; 0x239
        m_cnf.accelODR = accelNewODR; 
 8001468:	687b      	ldr	r3, [r7, #4]
 800146a:	69fa      	ldr	r2, [r7, #28]
 800146c:	f8c3 21dc 	str.w	r2, [r3, #476]	; 0x1dc
        m_accelODRValue = map_accel_ODR_CNF_to_ODR(m_cnf.accelODR);
 8001470:	687b      	ldr	r3, [r7, #4]
 8001472:	f8d3 31dc 	ldr.w	r3, [r3, #476]	; 0x1dc
 8001476:	4618      	mov	r0, r3
 8001478:	f002 f956 	bl	8003728 <_ZN8ICM4268824map_accel_ODR_CNF_to_ODRENS_9ACCEL_CNF3ODRE>
 800147c:	eef0 7a40 	vmov.f32	s15, s0
 8001480:	687b      	ldr	r3, [r7, #4]
 8001482:	edc3 7a9a 	vstr	s15, [r3, #616]	; 0x268

        return iIMU_ST::OK;
 8001486:	2300      	movs	r3, #0
    }
 8001488:	4618      	mov	r0, r3
 800148a:	3720      	adds	r7, #32
 800148c:	46bd      	mov	sp, r7
 800148e:	bd80      	pop	{r7, pc}

08001490 <_ZN8ICM426888icm4268813set_accel_fsrEh>:


    iIMU_ST icm42688::set_accel_fsr(uint8_t fsr)
    {
 8001490:	b580      	push	{r7, lr}
 8001492:	b088      	sub	sp, #32
 8001494:	af00      	add	r7, sp, #0
 8001496:	6078      	str	r0, [r7, #4]
 8001498:	460b      	mov	r3, r1
 800149a:	70fb      	strb	r3, [r7, #3]
        ACCEL_CNF::FSR accelNewFSR = static_cast<ACCEL_CNF::FSR> (fsr);
 800149c:	78fb      	ldrb	r3, [r7, #3]
 800149e:	61fb      	str	r3, [r7, #28]
        PHandlerOpt opt;
 80014a0:	f107 0308 	add.w	r3, r7, #8
 80014a4:	4618      	mov	r0, r3
 80014a6:	f7ff fd8e 	bl	8000fc6 <_ZN11PHandlerOptC1Ev>
        uint8_t new_ACCEL_CONFIG0;

        if(set_bank_register(bankRegister::BANK0) != iIMU_ST::OK){
 80014aa:	2100      	movs	r1, #0
 80014ac:	6878      	ldr	r0, [r7, #4]
 80014ae:	f7ff fda4 	bl	8000ffa <_ZN8ICM426888icm4268817set_bank_registerENS_12bankRegisterE>
 80014b2:	4603      	mov	r3, r0
 80014b4:	2b00      	cmp	r3, #0
 80014b6:	bf14      	ite	ne
 80014b8:	2301      	movne	r3, #1
 80014ba:	2300      	moveq	r3, #0
 80014bc:	b2db      	uxtb	r3, r3
 80014be:	2b00      	cmp	r3, #0
 80014c0:	d001      	beq.n	80014c6 <_ZN8ICM426888icm4268813set_accel_fsrEh+0x36>
            return iIMU_ST::ERROR_COMM;
 80014c2:	2301      	movs	r3, #1
 80014c4:	e04e      	b.n	8001564 <_ZN8ICM426888icm4268813set_accel_fsrEh+0xd4>
        }

        new_ACCEL_CONFIG0 = ACCEL_CONFIG0::SET_FSR(m_reg.ACCEL_CONFIG0, accelNewFSR);
 80014c6:	687b      	ldr	r3, [r7, #4]
 80014c8:	f893 3239 	ldrb.w	r3, [r3, #569]	; 0x239
 80014cc:	69f9      	ldr	r1, [r7, #28]
 80014ce:	4618      	mov	r0, r3
 80014d0:	f7ff fc87 	bl	8000de2 <_ZN8ICM4268813ACCEL_CONFIG07SET_FSREhNS_9ACCEL_CNF3FSRE>
 80014d4:	4603      	mov	r3, r0
 80014d6:	76fb      	strb	r3, [r7, #27]
        m_TxBuffer[0] = new_ACCEL_CONFIG0;
 80014d8:	687b      	ldr	r3, [r7, #4]
 80014da:	7efa      	ldrb	r2, [r7, #27]
 80014dc:	f883 21f8 	strb.w	r2, [r3, #504]	; 0x1f8

        opt.add = ACCEL_CONFIG0_ADD;
 80014e0:	2350      	movs	r3, #80	; 0x50
 80014e2:	723b      	strb	r3, [r7, #8]
        opt.size = 1;
 80014e4:	2301      	movs	r3, #1
 80014e6:	727b      	strb	r3, [r7, #9]
        opt.slave = m_spiSet ? static_cast<void*>(m_cs) : static_cast<void*>(&m_i2cAdd);
 80014e8:	687b      	ldr	r3, [r7, #4]
 80014ea:	f893 3249 	ldrb.w	r3, [r3, #585]	; 0x249
 80014ee:	2b00      	cmp	r3, #0
 80014f0:	d003      	beq.n	80014fa <_ZN8ICM426888icm4268813set_accel_fsrEh+0x6a>
 80014f2:	687b      	ldr	r3, [r7, #4]
 80014f4:	f8d3 3244 	ldr.w	r3, [r3, #580]	; 0x244
 80014f8:	e002      	b.n	8001500 <_ZN8ICM426888icm4268813set_accel_fsrEh+0x70>
 80014fa:	687b      	ldr	r3, [r7, #4]
 80014fc:	f503 7312 	add.w	r3, r3, #584	; 0x248
 8001500:	60fb      	str	r3, [r7, #12]
        opt.mode = m_mode;
 8001502:	687b      	ldr	r3, [r7, #4]
 8001504:	f8d3 324c 	ldr.w	r3, [r3, #588]	; 0x24c
 8001508:	613b      	str	r3, [r7, #16]

        if(m_handler->write_registers(m_TxBuffer, opt) != iPHANDLER_ST::OK){
 800150a:	687b      	ldr	r3, [r7, #4]
 800150c:	f8d3 0240 	ldr.w	r0, [r3, #576]	; 0x240
 8001510:	687b      	ldr	r3, [r7, #4]
 8001512:	f8d3 3240 	ldr.w	r3, [r3, #576]	; 0x240
 8001516:	681b      	ldr	r3, [r3, #0]
 8001518:	3304      	adds	r3, #4
 800151a:	681b      	ldr	r3, [r3, #0]
 800151c:	687a      	ldr	r2, [r7, #4]
 800151e:	f502 71fc 	add.w	r1, r2, #504	; 0x1f8
 8001522:	f107 0208 	add.w	r2, r7, #8
 8001526:	4798      	blx	r3
 8001528:	4603      	mov	r3, r0
 800152a:	2b00      	cmp	r3, #0
 800152c:	bf14      	ite	ne
 800152e:	2301      	movne	r3, #1
 8001530:	2300      	moveq	r3, #0
 8001532:	b2db      	uxtb	r3, r3
 8001534:	2b00      	cmp	r3, #0
 8001536:	d001      	beq.n	800153c <_ZN8ICM426888icm4268813set_accel_fsrEh+0xac>
            return iIMU_ST::ERROR_COMM;
 8001538:	2301      	movs	r3, #1
 800153a:	e013      	b.n	8001564 <_ZN8ICM426888icm4268813set_accel_fsrEh+0xd4>
        }

        m_reg.ACCEL_CONFIG0 = new_ACCEL_CONFIG0;
 800153c:	687b      	ldr	r3, [r7, #4]
 800153e:	7efa      	ldrb	r2, [r7, #27]
 8001540:	f883 2239 	strb.w	r2, [r3, #569]	; 0x239
        m_cnf.accelFSR = accelNewFSR; 
 8001544:	687b      	ldr	r3, [r7, #4]
 8001546:	69fa      	ldr	r2, [r7, #28]
 8001548:	f8c3 21d8 	str.w	r2, [r3, #472]	; 0x1d8
        m_accelFSRValue = map_accel_FSR_CNF_to_FSR(m_cnf.accelFSR);
 800154c:	687b      	ldr	r3, [r7, #4]
 800154e:	f8d3 31d8 	ldr.w	r3, [r3, #472]	; 0x1d8
 8001552:	4618      	mov	r0, r3
 8001554:	f002 f948 	bl	80037e8 <_ZN8ICM4268824map_accel_FSR_CNF_to_FSRENS_9ACCEL_CNF3FSRE>
 8001558:	eef0 7a40 	vmov.f32	s15, s0
 800155c:	687b      	ldr	r3, [r7, #4]
 800155e:	edc3 7a99 	vstr	s15, [r3, #612]	; 0x264

        return iIMU_ST::OK;
 8001562:	2300      	movs	r3, #0
    }
 8001564:	4618      	mov	r0, r3
 8001566:	3720      	adds	r7, #32
 8001568:	46bd      	mov	sp, r7
 800156a:	bd80      	pop	{r7, pc}

0800156c <_ZN8ICM426888icm4268819get_accel_odr_valueEv>:

    float icm42688::get_accel_odr_value()
    {
 800156c:	b480      	push	{r7}
 800156e:	b083      	sub	sp, #12
 8001570:	af00      	add	r7, sp, #0
 8001572:	6078      	str	r0, [r7, #4]
        return m_accelODRValue;
 8001574:	687b      	ldr	r3, [r7, #4]
 8001576:	f8d3 3268 	ldr.w	r3, [r3, #616]	; 0x268
 800157a:	ee07 3a90 	vmov	s15, r3
    }
 800157e:	eeb0 0a67 	vmov.f32	s0, s15
 8001582:	370c      	adds	r7, #12
 8001584:	46bd      	mov	sp, r7
 8001586:	f85d 7b04 	ldr.w	r7, [sp], #4
 800158a:	4770      	bx	lr

0800158c <_ZN8ICM426888icm4268819get_accel_fsr_valueEv>:
    float icm42688::get_accel_fsr_value()
    {
 800158c:	b480      	push	{r7}
 800158e:	b083      	sub	sp, #12
 8001590:	af00      	add	r7, sp, #0
 8001592:	6078      	str	r0, [r7, #4]
        return m_accelFSRValue;
 8001594:	687b      	ldr	r3, [r7, #4]
 8001596:	f8d3 3264 	ldr.w	r3, [r3, #612]	; 0x264
 800159a:	ee07 3a90 	vmov	s15, r3
    }
 800159e:	eeb0 0a67 	vmov.f32	s0, s15
 80015a2:	370c      	adds	r7, #12
 80015a4:	46bd      	mov	sp, r7
 80015a6:	f85d 7b04 	ldr.w	r7, [sp], #4
 80015aa:	4770      	bx	lr

080015ac <_ZN8ICM426888icm4268818get_gyro_odr_valueEv>:
    float icm42688::get_gyro_odr_value() 
    {
 80015ac:	b480      	push	{r7}
 80015ae:	b083      	sub	sp, #12
 80015b0:	af00      	add	r7, sp, #0
 80015b2:	6078      	str	r0, [r7, #4]
        return m_gyroODRValue;
 80015b4:	687b      	ldr	r3, [r7, #4]
 80015b6:	f8d3 3260 	ldr.w	r3, [r3, #608]	; 0x260
 80015ba:	ee07 3a90 	vmov	s15, r3
    }
 80015be:	eeb0 0a67 	vmov.f32	s0, s15
 80015c2:	370c      	adds	r7, #12
 80015c4:	46bd      	mov	sp, r7
 80015c6:	f85d 7b04 	ldr.w	r7, [sp], #4
 80015ca:	4770      	bx	lr

080015cc <_ZN8ICM426888icm4268818get_gyro_fsr_valueEv>:
    float icm42688::get_gyro_fsr_value() 
    {
 80015cc:	b480      	push	{r7}
 80015ce:	b083      	sub	sp, #12
 80015d0:	af00      	add	r7, sp, #0
 80015d2:	6078      	str	r0, [r7, #4]
        return m_gyroFSRValue;
 80015d4:	687b      	ldr	r3, [r7, #4]
 80015d6:	f8d3 325c 	ldr.w	r3, [r3, #604]	; 0x25c
 80015da:	ee07 3a90 	vmov	s15, r3
    }
 80015de:	eeb0 0a67 	vmov.f32	s0, s15
 80015e2:	370c      	adds	r7, #12
 80015e4:	46bd      	mov	sp, r7
 80015e6:	f85d 7b04 	ldr.w	r7, [sp], #4
 80015ea:	4770      	bx	lr

080015ec <_ZN8ICM426888icm4268820get_accel_resolutionEv>:
    
    float icm42688::get_accel_resolution()
    {
 80015ec:	b480      	push	{r7}
 80015ee:	b083      	sub	sp, #12
 80015f0:	af00      	add	r7, sp, #0
 80015f2:	6078      	str	r0, [r7, #4]
        return m_accelFSRValue/(1<<15);
 80015f4:	687b      	ldr	r3, [r7, #4]
 80015f6:	edd3 7a99 	vldr	s15, [r3, #612]	; 0x264
 80015fa:	ed9f 7a06 	vldr	s14, [pc, #24]	; 8001614 <_ZN8ICM426888icm4268820get_accel_resolutionEv+0x28>
 80015fe:	eec7 6a87 	vdiv.f32	s13, s15, s14
 8001602:	eef0 7a66 	vmov.f32	s15, s13
    }
 8001606:	eeb0 0a67 	vmov.f32	s0, s15
 800160a:	370c      	adds	r7, #12
 800160c:	46bd      	mov	sp, r7
 800160e:	f85d 7b04 	ldr.w	r7, [sp], #4
 8001612:	4770      	bx	lr
 8001614:	47000000 	.word	0x47000000

08001618 <_ZN8ICM426888icm4268819get_gyro_resolutionEv>:
    
    float icm42688::get_gyro_resolution()
    {
 8001618:	b480      	push	{r7}
 800161a:	b083      	sub	sp, #12
 800161c:	af00      	add	r7, sp, #0
 800161e:	6078      	str	r0, [r7, #4]
        return m_gyroFSRValue/(1<<15);
 8001620:	687b      	ldr	r3, [r7, #4]
 8001622:	edd3 7a97 	vldr	s15, [r3, #604]	; 0x25c
 8001626:	ed9f 7a06 	vldr	s14, [pc, #24]	; 8001640 <_ZN8ICM426888icm4268819get_gyro_resolutionEv+0x28>
 800162a:	eec7 6a87 	vdiv.f32	s13, s15, s14
 800162e:	eef0 7a66 	vmov.f32	s15, s13
    }
 8001632:	eeb0 0a67 	vmov.f32	s0, s15
 8001636:	370c      	adds	r7, #12
 8001638:	46bd      	mov	sp, r7
 800163a:	f85d 7b04 	ldr.w	r7, [sp], #4
 800163e:	4770      	bx	lr
 8001640:	47000000 	.word	0x47000000

08001644 <_ZN8ICM426888icm4268815convertGyroDataEhh>:



    float icm42688::convertGyroData(uint8_t rawGyroH, uint8_t rawGyroL)
    {
 8001644:	b580      	push	{r7, lr}
 8001646:	ed2d 8b02 	vpush	{d8}
 800164a:	b084      	sub	sp, #16
 800164c:	af00      	add	r7, sp, #0
 800164e:	6078      	str	r0, [r7, #4]
 8001650:	460b      	mov	r3, r1
 8001652:	70fb      	strb	r3, [r7, #3]
 8001654:	4613      	mov	r3, r2
 8001656:	70bb      	strb	r3, [r7, #2]
        int16_t gyro_data = (rawGyroH << 8)  | rawGyroL;
 8001658:	78fb      	ldrb	r3, [r7, #3]
 800165a:	021b      	lsls	r3, r3, #8
 800165c:	b21a      	sxth	r2, r3
 800165e:	78bb      	ldrb	r3, [r7, #2]
 8001660:	b21b      	sxth	r3, r3
 8001662:	4313      	orrs	r3, r2
 8001664:	81fb      	strh	r3, [r7, #14]
        return gyro_data * get_gyro_resolution();
 8001666:	f9b7 300e 	ldrsh.w	r3, [r7, #14]
 800166a:	ee07 3a90 	vmov	s15, r3
 800166e:	eeb8 8ae7 	vcvt.f32.s32	s16, s15
 8001672:	687b      	ldr	r3, [r7, #4]
 8001674:	681b      	ldr	r3, [r3, #0]
 8001676:	3340      	adds	r3, #64	; 0x40
 8001678:	681b      	ldr	r3, [r3, #0]
 800167a:	6878      	ldr	r0, [r7, #4]
 800167c:	4798      	blx	r3
 800167e:	eef0 7a40 	vmov.f32	s15, s0
 8001682:	ee68 7a27 	vmul.f32	s15, s16, s15

    }
 8001686:	eeb0 0a67 	vmov.f32	s0, s15
 800168a:	3710      	adds	r7, #16
 800168c:	46bd      	mov	sp, r7
 800168e:	ecbd 8b02 	vpop	{d8}
 8001692:	bd80      	pop	{r7, pc}

08001694 <_ZN8ICM426888icm4268816convertAccelDataEhh>:

    float icm42688::convertAccelData(uint8_t rawAccelH, uint8_t rawAccelL)
    {
 8001694:	b580      	push	{r7, lr}
 8001696:	ed2d 8b02 	vpush	{d8}
 800169a:	b084      	sub	sp, #16
 800169c:	af00      	add	r7, sp, #0
 800169e:	6078      	str	r0, [r7, #4]
 80016a0:	460b      	mov	r3, r1
 80016a2:	70fb      	strb	r3, [r7, #3]
 80016a4:	4613      	mov	r3, r2
 80016a6:	70bb      	strb	r3, [r7, #2]
        int16_t gyro_data = (rawAccelH << 8)  | rawAccelL;
 80016a8:	78fb      	ldrb	r3, [r7, #3]
 80016aa:	021b      	lsls	r3, r3, #8
 80016ac:	b21a      	sxth	r2, r3
 80016ae:	78bb      	ldrb	r3, [r7, #2]
 80016b0:	b21b      	sxth	r3, r3
 80016b2:	4313      	orrs	r3, r2
 80016b4:	81fb      	strh	r3, [r7, #14]
        return gyro_data * get_accel_resolution();
 80016b6:	f9b7 300e 	ldrsh.w	r3, [r7, #14]
 80016ba:	ee07 3a90 	vmov	s15, r3
 80016be:	eeb8 8ae7 	vcvt.f32.s32	s16, s15
 80016c2:	687b      	ldr	r3, [r7, #4]
 80016c4:	681b      	ldr	r3, [r3, #0]
 80016c6:	333c      	adds	r3, #60	; 0x3c
 80016c8:	681b      	ldr	r3, [r3, #0]
 80016ca:	6878      	ldr	r0, [r7, #4]
 80016cc:	4798      	blx	r3
 80016ce:	eef0 7a40 	vmov.f32	s15, s0
 80016d2:	ee68 7a27 	vmul.f32	s15, s16, s15
    }
 80016d6:	eeb0 0a67 	vmov.f32	s0, s15
 80016da:	3710      	adds	r7, #16
 80016dc:	46bd      	mov	sp, r7
 80016de:	ecbd 8b02 	vpop	{d8}
 80016e2:	bd80      	pop	{r7, pc}

080016e4 <_ZN8ICM426888icm4268812write_configEv>:

    iIMU_ST icm42688::write_config()
    {
 80016e4:	b580      	push	{r7, lr}
 80016e6:	b084      	sub	sp, #16
 80016e8:	af00      	add	r7, sp, #0
 80016ea:	6078      	str	r0, [r7, #4]
        iIMU_ST ret = iIMU_ST::OK; 
 80016ec:	2300      	movs	r3, #0
 80016ee:	60fb      	str	r3, [r7, #12]
        
        
        if( (ret = write_config_accel_gyro()) != iIMU_ST::OK){
 80016f0:	6878      	ldr	r0, [r7, #4]
 80016f2:	f000 f82c 	bl	800174e <_ZN8ICM426888icm4268823write_config_accel_gyroEv>
 80016f6:	60f8      	str	r0, [r7, #12]
 80016f8:	68fb      	ldr	r3, [r7, #12]
 80016fa:	2b00      	cmp	r3, #0
 80016fc:	bf14      	ite	ne
 80016fe:	2301      	movne	r3, #1
 8001700:	2300      	moveq	r3, #0
 8001702:	b2db      	uxtb	r3, r3
 8001704:	2b00      	cmp	r3, #0
 8001706:	d001      	beq.n	800170c <_ZN8ICM426888icm4268812write_configEv+0x28>
            return ret;
 8001708:	68fb      	ldr	r3, [r7, #12]
 800170a:	e01c      	b.n	8001746 <_ZN8ICM426888icm4268812write_configEv+0x62>
        }

        if( (ret = write_config_FIFO()) != iIMU_ST::OK){
 800170c:	6878      	ldr	r0, [r7, #4]
 800170e:	f000 f8eb 	bl	80018e8 <_ZN8ICM426888icm4268817write_config_FIFOEv>
 8001712:	60f8      	str	r0, [r7, #12]
 8001714:	68fb      	ldr	r3, [r7, #12]
 8001716:	2b00      	cmp	r3, #0
 8001718:	bf14      	ite	ne
 800171a:	2301      	movne	r3, #1
 800171c:	2300      	moveq	r3, #0
 800171e:	b2db      	uxtb	r3, r3
 8001720:	2b00      	cmp	r3, #0
 8001722:	d001      	beq.n	8001728 <_ZN8ICM426888icm4268812write_configEv+0x44>
            return ret;
 8001724:	68fb      	ldr	r3, [r7, #12]
 8001726:	e00e      	b.n	8001746 <_ZN8ICM426888icm4268812write_configEv+0x62>
        }

        if( (ret = write_config_int()) != iIMU_ST::OK){
 8001728:	6878      	ldr	r0, [r7, #4]
 800172a:	f000 f9d5 	bl	8001ad8 <_ZN8ICM426888icm4268816write_config_intEv>
 800172e:	60f8      	str	r0, [r7, #12]
 8001730:	68fb      	ldr	r3, [r7, #12]
 8001732:	2b00      	cmp	r3, #0
 8001734:	bf14      	ite	ne
 8001736:	2301      	movne	r3, #1
 8001738:	2300      	moveq	r3, #0
 800173a:	b2db      	uxtb	r3, r3
 800173c:	2b00      	cmp	r3, #0
 800173e:	d001      	beq.n	8001744 <_ZN8ICM426888icm4268812write_configEv+0x60>
            return ret;
 8001740:	68fb      	ldr	r3, [r7, #12]
 8001742:	e000      	b.n	8001746 <_ZN8ICM426888icm4268812write_configEv+0x62>
        }

        return ret;
 8001744:	68fb      	ldr	r3, [r7, #12]
        
    }
 8001746:	4618      	mov	r0, r3
 8001748:	3710      	adds	r7, #16
 800174a:	46bd      	mov	sp, r7
 800174c:	bd80      	pop	{r7, pc}

0800174e <_ZN8ICM426888icm4268823write_config_accel_gyroEv>:

    iIMU_ST icm42688::write_config_accel_gyro()
    {
 800174e:	b580      	push	{r7, lr}
 8001750:	b088      	sub	sp, #32
 8001752:	af00      	add	r7, sp, #0
 8001754:	6078      	str	r0, [r7, #4]
        PHandlerOpt opt;
 8001756:	f107 030c 	add.w	r3, r7, #12
 800175a:	4618      	mov	r0, r3
 800175c:	f7ff fc33 	bl	8000fc6 <_ZN11PHandlerOptC1Ev>
        uint8_t new_GYRO_CONFIG0;
        uint8_t new_ACCEL_CONFIG0;

        if(set_bank_register(bankRegister::BANK0) != iIMU_ST::OK){
 8001760:	2100      	movs	r1, #0
 8001762:	6878      	ldr	r0, [r7, #4]
 8001764:	f7ff fc49 	bl	8000ffa <_ZN8ICM426888icm4268817set_bank_registerENS_12bankRegisterE>
 8001768:	4603      	mov	r3, r0
 800176a:	2b00      	cmp	r3, #0
 800176c:	bf14      	ite	ne
 800176e:	2301      	movne	r3, #1
 8001770:	2300      	moveq	r3, #0
 8001772:	b2db      	uxtb	r3, r3
 8001774:	2b00      	cmp	r3, #0
 8001776:	d001      	beq.n	800177c <_ZN8ICM426888icm4268823write_config_accel_gyroEv+0x2e>
            return iIMU_ST::ERROR_COMM;
 8001778:	2301      	movs	r3, #1
 800177a:	e0b1      	b.n	80018e0 <_ZN8ICM426888icm4268823write_config_accel_gyroEv+0x192>
        }


        new_GYRO_CONFIG0 = GYRO_CONFIG0::SET_FSR(m_reg.GYRO_CONFIG0, m_cnf.gyroFSR);
 800177c:	687b      	ldr	r3, [r7, #4]
 800177e:	f893 2238 	ldrb.w	r2, [r3, #568]	; 0x238
 8001782:	687b      	ldr	r3, [r7, #4]
 8001784:	f8d3 31d0 	ldr.w	r3, [r3, #464]	; 0x1d0
 8001788:	4619      	mov	r1, r3
 800178a:	4610      	mov	r0, r2
 800178c:	f7ff fafd 	bl	8000d8a <_ZN8ICM4268812GYRO_CONFIG07SET_FSREhNS_8GYRO_CNF3FSRE>
 8001790:	4603      	mov	r3, r0
 8001792:	77fb      	strb	r3, [r7, #31]
        new_GYRO_CONFIG0 = GYRO_CONFIG0::SET_ODR(new_GYRO_CONFIG0, m_cnf.gyroODR);
 8001794:	687b      	ldr	r3, [r7, #4]
 8001796:	f8d3 21d4 	ldr.w	r2, [r3, #468]	; 0x1d4
 800179a:	7ffb      	ldrb	r3, [r7, #31]
 800179c:	4611      	mov	r1, r2
 800179e:	4618      	mov	r0, r3
 80017a0:	f7ff fb09 	bl	8000db6 <_ZN8ICM4268812GYRO_CONFIG07SET_ODREhNS_8GYRO_CNF3ODRE>
 80017a4:	4603      	mov	r3, r0
 80017a6:	77fb      	strb	r3, [r7, #31]
        new_ACCEL_CONFIG0 = ACCEL_CONFIG0::SET_FSR(m_reg.ACCEL_CONFIG0, m_cnf.accelFSR);
 80017a8:	687b      	ldr	r3, [r7, #4]
 80017aa:	f893 2239 	ldrb.w	r2, [r3, #569]	; 0x239
 80017ae:	687b      	ldr	r3, [r7, #4]
 80017b0:	f8d3 31d8 	ldr.w	r3, [r3, #472]	; 0x1d8
 80017b4:	4619      	mov	r1, r3
 80017b6:	4610      	mov	r0, r2
 80017b8:	f7ff fb13 	bl	8000de2 <_ZN8ICM4268813ACCEL_CONFIG07SET_FSREhNS_9ACCEL_CNF3FSRE>
 80017bc:	4603      	mov	r3, r0
 80017be:	77bb      	strb	r3, [r7, #30]
        new_ACCEL_CONFIG0 = ACCEL_CONFIG0::SET_ODR(new_ACCEL_CONFIG0, m_cnf.accelODR);
 80017c0:	687b      	ldr	r3, [r7, #4]
 80017c2:	f8d3 21dc 	ldr.w	r2, [r3, #476]	; 0x1dc
 80017c6:	7fbb      	ldrb	r3, [r7, #30]
 80017c8:	4611      	mov	r1, r2
 80017ca:	4618      	mov	r0, r3
 80017cc:	f7ff fb1f 	bl	8000e0e <_ZN8ICM4268813ACCEL_CONFIG07SET_ODREhNS_9ACCEL_CNF3ODRE>
 80017d0:	4603      	mov	r3, r0
 80017d2:	77bb      	strb	r3, [r7, #30]


        //m_TxBuffer[1] = new_ACCEL_CONFIG0;

        opt.size = 1;
 80017d4:	2301      	movs	r3, #1
 80017d6:	737b      	strb	r3, [r7, #13]
        opt.slave = m_spiSet ? static_cast<void*>(m_cs) : static_cast<void*>(&m_i2cAdd);
 80017d8:	687b      	ldr	r3, [r7, #4]
 80017da:	f893 3249 	ldrb.w	r3, [r3, #585]	; 0x249
 80017de:	2b00      	cmp	r3, #0
 80017e0:	d003      	beq.n	80017ea <_ZN8ICM426888icm4268823write_config_accel_gyroEv+0x9c>
 80017e2:	687b      	ldr	r3, [r7, #4]
 80017e4:	f8d3 3244 	ldr.w	r3, [r3, #580]	; 0x244
 80017e8:	e002      	b.n	80017f0 <_ZN8ICM426888icm4268823write_config_accel_gyroEv+0xa2>
 80017ea:	687b      	ldr	r3, [r7, #4]
 80017ec:	f503 7312 	add.w	r3, r3, #584	; 0x248
 80017f0:	613b      	str	r3, [r7, #16]
        opt.mode = m_mode;
 80017f2:	687b      	ldr	r3, [r7, #4]
 80017f4:	f8d3 324c 	ldr.w	r3, [r3, #588]	; 0x24c
 80017f8:	617b      	str	r3, [r7, #20]

        opt.add = GYRO_CONFIG0_ADD;
 80017fa:	234f      	movs	r3, #79	; 0x4f
 80017fc:	733b      	strb	r3, [r7, #12]
        m_TxBuffer[0] = new_GYRO_CONFIG0;
 80017fe:	687b      	ldr	r3, [r7, #4]
 8001800:	7ffa      	ldrb	r2, [r7, #31]
 8001802:	f883 21f8 	strb.w	r2, [r3, #504]	; 0x1f8
        if(m_handler->write_registers(m_TxBuffer, opt) != iPHANDLER_ST::OK){
 8001806:	687b      	ldr	r3, [r7, #4]
 8001808:	f8d3 0240 	ldr.w	r0, [r3, #576]	; 0x240
 800180c:	687b      	ldr	r3, [r7, #4]
 800180e:	f8d3 3240 	ldr.w	r3, [r3, #576]	; 0x240
 8001812:	681b      	ldr	r3, [r3, #0]
 8001814:	3304      	adds	r3, #4
 8001816:	681b      	ldr	r3, [r3, #0]
 8001818:	687a      	ldr	r2, [r7, #4]
 800181a:	f502 71fc 	add.w	r1, r2, #504	; 0x1f8
 800181e:	f107 020c 	add.w	r2, r7, #12
 8001822:	4798      	blx	r3
 8001824:	4603      	mov	r3, r0
 8001826:	2b00      	cmp	r3, #0
 8001828:	bf14      	ite	ne
 800182a:	2301      	movne	r3, #1
 800182c:	2300      	moveq	r3, #0
 800182e:	b2db      	uxtb	r3, r3
 8001830:	2b00      	cmp	r3, #0
 8001832:	d001      	beq.n	8001838 <_ZN8ICM426888icm4268823write_config_accel_gyroEv+0xea>
            return iIMU_ST::ERROR_COMM;
 8001834:	2301      	movs	r3, #1
 8001836:	e053      	b.n	80018e0 <_ZN8ICM426888icm4268823write_config_accel_gyroEv+0x192>
        }

        m_TxBuffer[0] = new_ACCEL_CONFIG0;
 8001838:	687b      	ldr	r3, [r7, #4]
 800183a:	7fba      	ldrb	r2, [r7, #30]
 800183c:	f883 21f8 	strb.w	r2, [r3, #504]	; 0x1f8
        opt.add = ACCEL_CONFIG0_ADD;
 8001840:	2350      	movs	r3, #80	; 0x50
 8001842:	733b      	strb	r3, [r7, #12]
        if(m_handler->write_registers(m_TxBuffer, opt) != iPHANDLER_ST::OK){
 8001844:	687b      	ldr	r3, [r7, #4]
 8001846:	f8d3 0240 	ldr.w	r0, [r3, #576]	; 0x240
 800184a:	687b      	ldr	r3, [r7, #4]
 800184c:	f8d3 3240 	ldr.w	r3, [r3, #576]	; 0x240
 8001850:	681b      	ldr	r3, [r3, #0]
 8001852:	3304      	adds	r3, #4
 8001854:	681b      	ldr	r3, [r3, #0]
 8001856:	687a      	ldr	r2, [r7, #4]
 8001858:	f502 71fc 	add.w	r1, r2, #504	; 0x1f8
 800185c:	f107 020c 	add.w	r2, r7, #12
 8001860:	4798      	blx	r3
 8001862:	4603      	mov	r3, r0
 8001864:	2b00      	cmp	r3, #0
 8001866:	bf14      	ite	ne
 8001868:	2301      	movne	r3, #1
 800186a:	2300      	moveq	r3, #0
 800186c:	b2db      	uxtb	r3, r3
 800186e:	2b00      	cmp	r3, #0
 8001870:	d001      	beq.n	8001876 <_ZN8ICM426888icm4268823write_config_accel_gyroEv+0x128>
            return iIMU_ST::ERROR_COMM;
 8001872:	2301      	movs	r3, #1
 8001874:	e034      	b.n	80018e0 <_ZN8ICM426888icm4268823write_config_accel_gyroEv+0x192>
        }

        m_reg.GYRO_CONFIG0 = new_GYRO_CONFIG0;
 8001876:	687b      	ldr	r3, [r7, #4]
 8001878:	7ffa      	ldrb	r2, [r7, #31]
 800187a:	f883 2238 	strb.w	r2, [r3, #568]	; 0x238
        m_reg.ACCEL_CONFIG0 = new_ACCEL_CONFIG0;
 800187e:	687b      	ldr	r3, [r7, #4]
 8001880:	7fba      	ldrb	r2, [r7, #30]
 8001882:	f883 2239 	strb.w	r2, [r3, #569]	; 0x239
        
        m_gyroODRValue = map_gyro_ODR_CNF_to_ODR(m_cnf.gyroODR);
 8001886:	687b      	ldr	r3, [r7, #4]
 8001888:	f8d3 31d4 	ldr.w	r3, [r3, #468]	; 0x1d4
 800188c:	4618      	mov	r0, r3
 800188e:	f001 fec7 	bl	8003620 <_ZN8ICM4268823map_gyro_ODR_CNF_to_ODRENS_8GYRO_CNF3ODRE>
 8001892:	eef0 7a40 	vmov.f32	s15, s0
 8001896:	687b      	ldr	r3, [r7, #4]
 8001898:	edc3 7a98 	vstr	s15, [r3, #608]	; 0x260
        m_gyroODRValue = map_gyro_FSR_CNF_to_FSR(m_cnf.gyroFSR);
 800189c:	687b      	ldr	r3, [r7, #4]
 800189e:	f8d3 31d0 	ldr.w	r3, [r3, #464]	; 0x1d0
 80018a2:	4618      	mov	r0, r3
 80018a4:	f001 ff1c 	bl	80036e0 <_ZN8ICM4268823map_gyro_FSR_CNF_to_FSRENS_8GYRO_CNF3FSRE>
 80018a8:	eef0 7a40 	vmov.f32	s15, s0
 80018ac:	687b      	ldr	r3, [r7, #4]
 80018ae:	edc3 7a98 	vstr	s15, [r3, #608]	; 0x260
        m_accelODRValue = map_accel_ODR_CNF_to_ODR(m_cnf.accelODR);
 80018b2:	687b      	ldr	r3, [r7, #4]
 80018b4:	f8d3 31dc 	ldr.w	r3, [r3, #476]	; 0x1dc
 80018b8:	4618      	mov	r0, r3
 80018ba:	f001 ff35 	bl	8003728 <_ZN8ICM4268824map_accel_ODR_CNF_to_ODRENS_9ACCEL_CNF3ODRE>
 80018be:	eef0 7a40 	vmov.f32	s15, s0
 80018c2:	687b      	ldr	r3, [r7, #4]
 80018c4:	edc3 7a9a 	vstr	s15, [r3, #616]	; 0x268
        m_accelFSRValue = map_accel_FSR_CNF_to_FSR(m_cnf.accelFSR);
 80018c8:	687b      	ldr	r3, [r7, #4]
 80018ca:	f8d3 31d8 	ldr.w	r3, [r3, #472]	; 0x1d8
 80018ce:	4618      	mov	r0, r3
 80018d0:	f001 ff8a 	bl	80037e8 <_ZN8ICM4268824map_accel_FSR_CNF_to_FSRENS_9ACCEL_CNF3FSRE>
 80018d4:	eef0 7a40 	vmov.f32	s15, s0
 80018d8:	687b      	ldr	r3, [r7, #4]
 80018da:	edc3 7a99 	vstr	s15, [r3, #612]	; 0x264

        return iIMU_ST::OK;
 80018de:	2300      	movs	r3, #0
    }
 80018e0:	4618      	mov	r0, r3
 80018e2:	3720      	adds	r7, #32
 80018e4:	46bd      	mov	sp, r7
 80018e6:	bd80      	pop	{r7, pc}

080018e8 <_ZN8ICM426888icm4268817write_config_FIFOEv>:
    
    
    iIMU_ST icm42688::write_config_FIFO()
    {
 80018e8:	b580      	push	{r7, lr}
 80018ea:	b088      	sub	sp, #32
 80018ec:	af00      	add	r7, sp, #0
 80018ee:	6078      	str	r0, [r7, #4]
        PHandlerOpt opt;
 80018f0:	f107 030c 	add.w	r3, r7, #12
 80018f4:	4618      	mov	r0, r3
 80018f6:	f7ff fb66 	bl	8000fc6 <_ZN11PHandlerOptC1Ev>
        uint8_t new_INTF_CONFIG0;
        uint8_t new_FIFO_CONFIG;
        uint8_t new_FIFO_CONFIG1, new_FIFO_CONFIG2, new_FIFO_CONFIG3;

        if(set_bank_register(bankRegister::BANK0) != iIMU_ST::OK){
 80018fa:	2100      	movs	r1, #0
 80018fc:	6878      	ldr	r0, [r7, #4]
 80018fe:	f7ff fb7c 	bl	8000ffa <_ZN8ICM426888icm4268817set_bank_registerENS_12bankRegisterE>
 8001902:	4603      	mov	r3, r0
 8001904:	2b00      	cmp	r3, #0
 8001906:	bf14      	ite	ne
 8001908:	2301      	movne	r3, #1
 800190a:	2300      	moveq	r3, #0
 800190c:	b2db      	uxtb	r3, r3
 800190e:	2b00      	cmp	r3, #0
 8001910:	d001      	beq.n	8001916 <_ZN8ICM426888icm4268817write_config_FIFOEv+0x2e>
            return iIMU_ST::ERROR_COMM;
 8001912:	2301      	movs	r3, #1
 8001914:	e0dc      	b.n	8001ad0 <_ZN8ICM426888icm4268817write_config_FIFOEv+0x1e8>
        }


        // Configuracion de registro INTF_CONFIG0
        opt.add = INTF_CONFIG0_ADD;
 8001916:	234c      	movs	r3, #76	; 0x4c
 8001918:	733b      	strb	r3, [r7, #12]
        opt.size = 1;
 800191a:	2301      	movs	r3, #1
 800191c:	737b      	strb	r3, [r7, #13]
        opt.slave = m_spiSet ? static_cast<void*>(m_cs) : static_cast<void*>(&m_i2cAdd);
 800191e:	687b      	ldr	r3, [r7, #4]
 8001920:	f893 3249 	ldrb.w	r3, [r3, #585]	; 0x249
 8001924:	2b00      	cmp	r3, #0
 8001926:	d003      	beq.n	8001930 <_ZN8ICM426888icm4268817write_config_FIFOEv+0x48>
 8001928:	687b      	ldr	r3, [r7, #4]
 800192a:	f8d3 3244 	ldr.w	r3, [r3, #580]	; 0x244
 800192e:	e002      	b.n	8001936 <_ZN8ICM426888icm4268817write_config_FIFOEv+0x4e>
 8001930:	687b      	ldr	r3, [r7, #4]
 8001932:	f503 7312 	add.w	r3, r3, #584	; 0x248
 8001936:	613b      	str	r3, [r7, #16]
        opt.mode = m_mode;
 8001938:	687b      	ldr	r3, [r7, #4]
 800193a:	f8d3 324c 	ldr.w	r3, [r3, #588]	; 0x24c
 800193e:	617b      	str	r3, [r7, #20]

        new_INTF_CONFIG0 = m_reg.INTF_CONFIG0 | FIFO_CNF::FIFO_COUNT_REC;
 8001940:	687b      	ldr	r3, [r7, #4]
 8001942:	f893 323a 	ldrb.w	r3, [r3, #570]	; 0x23a
 8001946:	f043 0340 	orr.w	r3, r3, #64	; 0x40
 800194a:	b2db      	uxtb	r3, r3
 800194c:	72fb      	strb	r3, [r7, #11]
        if(m_handler->write_registers(&new_INTF_CONFIG0, opt) != iPHANDLER_ST::OK){
 800194e:	687b      	ldr	r3, [r7, #4]
 8001950:	f8d3 0240 	ldr.w	r0, [r3, #576]	; 0x240
 8001954:	687b      	ldr	r3, [r7, #4]
 8001956:	f8d3 3240 	ldr.w	r3, [r3, #576]	; 0x240
 800195a:	681b      	ldr	r3, [r3, #0]
 800195c:	3304      	adds	r3, #4
 800195e:	681b      	ldr	r3, [r3, #0]
 8001960:	f107 020c 	add.w	r2, r7, #12
 8001964:	f107 010b 	add.w	r1, r7, #11
 8001968:	4798      	blx	r3
 800196a:	4603      	mov	r3, r0
 800196c:	2b00      	cmp	r3, #0
 800196e:	bf14      	ite	ne
 8001970:	2301      	movne	r3, #1
 8001972:	2300      	moveq	r3, #0
 8001974:	b2db      	uxtb	r3, r3
 8001976:	2b00      	cmp	r3, #0
 8001978:	d001      	beq.n	800197e <_ZN8ICM426888icm4268817write_config_FIFOEv+0x96>
            return iIMU_ST::ERROR_COMM;
 800197a:	2301      	movs	r3, #1
 800197c:	e0a8      	b.n	8001ad0 <_ZN8ICM426888icm4268817write_config_FIFOEv+0x1e8>
        }
        m_reg.INTF_CONFIG0 = new_INTF_CONFIG0;
 800197e:	7afa      	ldrb	r2, [r7, #11]
 8001980:	687b      	ldr	r3, [r7, #4]
 8001982:	f883 223a 	strb.w	r2, [r3, #570]	; 0x23a

        // Configuracion de registro FIFO_CONFIG
        opt.add = FIFO_CONFIG_ADD;
 8001986:	2316      	movs	r3, #22
 8001988:	733b      	strb	r3, [r7, #12]
        new_FIFO_CONFIG = FIFO_CONFIG::SET_FIFO_MODE(m_cnf.fifoCnf.mode);
 800198a:	687b      	ldr	r3, [r7, #4]
 800198c:	f8d3 31e4 	ldr.w	r3, [r3, #484]	; 0x1e4
 8001990:	4618      	mov	r0, r3
 8001992:	f7ff f9ec 	bl	8000d6e <_ZN8ICM4268811FIFO_CONFIG13SET_FIFO_MODEENS_9FIFO_MODEE>
 8001996:	4603      	mov	r3, r0
 8001998:	72bb      	strb	r3, [r7, #10]
        if(m_handler->write_registers(&new_FIFO_CONFIG, opt) != iPHANDLER_ST::OK){
 800199a:	687b      	ldr	r3, [r7, #4]
 800199c:	f8d3 0240 	ldr.w	r0, [r3, #576]	; 0x240
 80019a0:	687b      	ldr	r3, [r7, #4]
 80019a2:	f8d3 3240 	ldr.w	r3, [r3, #576]	; 0x240
 80019a6:	681b      	ldr	r3, [r3, #0]
 80019a8:	3304      	adds	r3, #4
 80019aa:	681b      	ldr	r3, [r3, #0]
 80019ac:	f107 020c 	add.w	r2, r7, #12
 80019b0:	f107 010a 	add.w	r1, r7, #10
 80019b4:	4798      	blx	r3
 80019b6:	4603      	mov	r3, r0
 80019b8:	2b00      	cmp	r3, #0
 80019ba:	bf14      	ite	ne
 80019bc:	2301      	movne	r3, #1
 80019be:	2300      	moveq	r3, #0
 80019c0:	b2db      	uxtb	r3, r3
 80019c2:	2b00      	cmp	r3, #0
 80019c4:	d001      	beq.n	80019ca <_ZN8ICM426888icm4268817write_config_FIFOEv+0xe2>
            return iIMU_ST::ERROR_COMM;
 80019c6:	2301      	movs	r3, #1
 80019c8:	e082      	b.n	8001ad0 <_ZN8ICM426888icm4268817write_config_FIFOEv+0x1e8>
        }        
        m_reg.FIFO_CONFIG = new_FIFO_CONFIG;
 80019ca:	7aba      	ldrb	r2, [r7, #10]
 80019cc:	687b      	ldr	r3, [r7, #4]
 80019ce:	f883 223b 	strb.w	r2, [r3, #571]	; 0x23b


        // Configuracion de los registros FIFO_CONFIG1, FIFO_CONFIG2 y FIFO_CONFIG3
        if(m_cnf.fifoCnf.mode != FIFO_MODE::BYPASS){
 80019d2:	687b      	ldr	r3, [r7, #4]
 80019d4:	f8d3 31e4 	ldr.w	r3, [r3, #484]	; 0x1e4
 80019d8:	2b00      	cmp	r3, #0
 80019da:	d078      	beq.n	8001ace <_ZN8ICM426888icm4268817write_config_FIFOEv+0x1e6>
        	//Sets packets and watermark
        	new_FIFO_CONFIG1 = 0;
 80019dc:	2300      	movs	r3, #0
 80019de:	77fb      	strb	r3, [r7, #31]
        	new_FIFO_CONFIG1 = FIFO_CNF::FIFO_TEMP_EN | FIFO_CNF::FIFO_GYRO_EN | FIFO_CNF::FIFO_ACCEL_EN;
 80019e0:	2307      	movs	r3, #7
 80019e2:	77fb      	strb	r3, [r7, #31]
        	new_FIFO_CONFIG2 = m_cnf.fifoCnf.watermark;
 80019e4:	687b      	ldr	r3, [r7, #4]
 80019e6:	f8b3 31e0 	ldrh.w	r3, [r3, #480]	; 0x1e0
 80019ea:	77bb      	strb	r3, [r7, #30]
        	new_FIFO_CONFIG3 = m_cnf.fifoCnf.watermark >> 8;
 80019ec:	687b      	ldr	r3, [r7, #4]
 80019ee:	f8b3 31e0 	ldrh.w	r3, [r3, #480]	; 0x1e0
 80019f2:	0a1b      	lsrs	r3, r3, #8
 80019f4:	b29b      	uxth	r3, r3
 80019f6:	777b      	strb	r3, [r7, #29]

            
             opt.size = 1;
 80019f8:	2301      	movs	r3, #1
 80019fa:	737b      	strb	r3, [r7, #13]

            opt.add = FIFO_CONFIG1_ADD;
 80019fc:	235f      	movs	r3, #95	; 0x5f
 80019fe:	733b      	strb	r3, [r7, #12]
            m_TxBuffer[0] = new_FIFO_CONFIG1;
 8001a00:	687b      	ldr	r3, [r7, #4]
 8001a02:	7ffa      	ldrb	r2, [r7, #31]
 8001a04:	f883 21f8 	strb.w	r2, [r3, #504]	; 0x1f8
            //m_TxBuffer[1] = new_FIFO_CONFIG2;
            //m_TxBuffer[2] = new_FIFO_CONFIG3;

            if(m_handler->write_registers(m_TxBuffer, opt) != iPHANDLER_ST::OK){
 8001a08:	687b      	ldr	r3, [r7, #4]
 8001a0a:	f8d3 0240 	ldr.w	r0, [r3, #576]	; 0x240
 8001a0e:	687b      	ldr	r3, [r7, #4]
 8001a10:	f8d3 3240 	ldr.w	r3, [r3, #576]	; 0x240
 8001a14:	681b      	ldr	r3, [r3, #0]
 8001a16:	3304      	adds	r3, #4
 8001a18:	681b      	ldr	r3, [r3, #0]
 8001a1a:	687a      	ldr	r2, [r7, #4]
 8001a1c:	f502 71fc 	add.w	r1, r2, #504	; 0x1f8
 8001a20:	f107 020c 	add.w	r2, r7, #12
 8001a24:	4798      	blx	r3
 8001a26:	4603      	mov	r3, r0
 8001a28:	2b00      	cmp	r3, #0
 8001a2a:	bf14      	ite	ne
 8001a2c:	2301      	movne	r3, #1
 8001a2e:	2300      	moveq	r3, #0
 8001a30:	b2db      	uxtb	r3, r3
 8001a32:	2b00      	cmp	r3, #0
 8001a34:	d001      	beq.n	8001a3a <_ZN8ICM426888icm4268817write_config_FIFOEv+0x152>
                return iIMU_ST::ERROR_COMM;
 8001a36:	2301      	movs	r3, #1
 8001a38:	e04a      	b.n	8001ad0 <_ZN8ICM426888icm4268817write_config_FIFOEv+0x1e8>
            }

            opt.add = FIFO_CONFIG2_ADD;
 8001a3a:	2360      	movs	r3, #96	; 0x60
 8001a3c:	733b      	strb	r3, [r7, #12]
            m_TxBuffer[0] = new_FIFO_CONFIG2;
 8001a3e:	687b      	ldr	r3, [r7, #4]
 8001a40:	7fba      	ldrb	r2, [r7, #30]
 8001a42:	f883 21f8 	strb.w	r2, [r3, #504]	; 0x1f8
             if(m_handler->write_registers(m_TxBuffer, opt) != iPHANDLER_ST::OK){
 8001a46:	687b      	ldr	r3, [r7, #4]
 8001a48:	f8d3 0240 	ldr.w	r0, [r3, #576]	; 0x240
 8001a4c:	687b      	ldr	r3, [r7, #4]
 8001a4e:	f8d3 3240 	ldr.w	r3, [r3, #576]	; 0x240
 8001a52:	681b      	ldr	r3, [r3, #0]
 8001a54:	3304      	adds	r3, #4
 8001a56:	681b      	ldr	r3, [r3, #0]
 8001a58:	687a      	ldr	r2, [r7, #4]
 8001a5a:	f502 71fc 	add.w	r1, r2, #504	; 0x1f8
 8001a5e:	f107 020c 	add.w	r2, r7, #12
 8001a62:	4798      	blx	r3
 8001a64:	4603      	mov	r3, r0
 8001a66:	2b00      	cmp	r3, #0
 8001a68:	bf14      	ite	ne
 8001a6a:	2301      	movne	r3, #1
 8001a6c:	2300      	moveq	r3, #0
 8001a6e:	b2db      	uxtb	r3, r3
 8001a70:	2b00      	cmp	r3, #0
 8001a72:	d001      	beq.n	8001a78 <_ZN8ICM426888icm4268817write_config_FIFOEv+0x190>
                return iIMU_ST::ERROR_COMM;
 8001a74:	2301      	movs	r3, #1
 8001a76:	e02b      	b.n	8001ad0 <_ZN8ICM426888icm4268817write_config_FIFOEv+0x1e8>
            }

            opt.add = FIFO_CONFIG3_ADD;
 8001a78:	2361      	movs	r3, #97	; 0x61
 8001a7a:	733b      	strb	r3, [r7, #12]
            m_TxBuffer[0] = new_FIFO_CONFIG3;
 8001a7c:	687b      	ldr	r3, [r7, #4]
 8001a7e:	7f7a      	ldrb	r2, [r7, #29]
 8001a80:	f883 21f8 	strb.w	r2, [r3, #504]	; 0x1f8
             if(m_handler->write_registers(m_TxBuffer, opt) != iPHANDLER_ST::OK){
 8001a84:	687b      	ldr	r3, [r7, #4]
 8001a86:	f8d3 0240 	ldr.w	r0, [r3, #576]	; 0x240
 8001a8a:	687b      	ldr	r3, [r7, #4]
 8001a8c:	f8d3 3240 	ldr.w	r3, [r3, #576]	; 0x240
 8001a90:	681b      	ldr	r3, [r3, #0]
 8001a92:	3304      	adds	r3, #4
 8001a94:	681b      	ldr	r3, [r3, #0]
 8001a96:	687a      	ldr	r2, [r7, #4]
 8001a98:	f502 71fc 	add.w	r1, r2, #504	; 0x1f8
 8001a9c:	f107 020c 	add.w	r2, r7, #12
 8001aa0:	4798      	blx	r3
 8001aa2:	4603      	mov	r3, r0
 8001aa4:	2b00      	cmp	r3, #0
 8001aa6:	bf14      	ite	ne
 8001aa8:	2301      	movne	r3, #1
 8001aaa:	2300      	moveq	r3, #0
 8001aac:	b2db      	uxtb	r3, r3
 8001aae:	2b00      	cmp	r3, #0
 8001ab0:	d001      	beq.n	8001ab6 <_ZN8ICM426888icm4268817write_config_FIFOEv+0x1ce>
                return iIMU_ST::ERROR_COMM;
 8001ab2:	2301      	movs	r3, #1
 8001ab4:	e00c      	b.n	8001ad0 <_ZN8ICM426888icm4268817write_config_FIFOEv+0x1e8>
            }

            m_reg.FIFO_CONFIG1 = new_FIFO_CONFIG1;
 8001ab6:	687b      	ldr	r3, [r7, #4]
 8001ab8:	7ffa      	ldrb	r2, [r7, #31]
 8001aba:	f883 223c 	strb.w	r2, [r3, #572]	; 0x23c
            m_reg.FIFO_CONFIG1 = new_FIFO_CONFIG2;
 8001abe:	687b      	ldr	r3, [r7, #4]
 8001ac0:	7fba      	ldrb	r2, [r7, #30]
 8001ac2:	f883 223c 	strb.w	r2, [r3, #572]	; 0x23c
            m_reg.FIFO_CONFIG1 = new_FIFO_CONFIG3;
 8001ac6:	687b      	ldr	r3, [r7, #4]
 8001ac8:	7f7a      	ldrb	r2, [r7, #29]
 8001aca:	f883 223c 	strb.w	r2, [r3, #572]	; 0x23c
        }

        return iIMU_ST::OK;
 8001ace:	2300      	movs	r3, #0
    }
 8001ad0:	4618      	mov	r0, r3
 8001ad2:	3720      	adds	r7, #32
 8001ad4:	46bd      	mov	sp, r7
 8001ad6:	bd80      	pop	{r7, pc}

08001ad8 <_ZN8ICM426888icm4268816write_config_intEv>:


    iIMU_ST icm42688::write_config_int()
    {
 8001ad8:	b590      	push	{r4, r7, lr}
 8001ada:	f2ad 5d2c 	subw	sp, sp, #1324	; 0x52c
 8001ade:	af00      	add	r7, sp, #0
 8001ae0:	f507 63a5 	add.w	r3, r7, #1320	; 0x528
 8001ae4:	f2a3 5324 	subw	r3, r3, #1316	; 0x524
 8001ae8:	6018      	str	r0, [r3, #0]

        PHandlerOpt opt;
 8001aea:	f107 030c 	add.w	r3, r7, #12
 8001aee:	4618      	mov	r0, r3
 8001af0:	f7ff fa69 	bl	8000fc6 <_ZN11PHandlerOptC1Ev>
        uint8_t new_INT_CONFIG = 0x00;
 8001af4:	f507 63a5 	add.w	r3, r7, #1320	; 0x528
 8001af8:	f2a3 531d 	subw	r3, r3, #1309	; 0x51d
 8001afc:	2200      	movs	r2, #0
 8001afe:	701a      	strb	r2, [r3, #0]
        uint8_t new_INT_SOURCE0;
        uint8_t new_INT_SOURCE1;

        if(set_bank_register(bankRegister::BANK0) != iIMU_ST::OK){
 8001b00:	f507 63a5 	add.w	r3, r7, #1320	; 0x528
 8001b04:	f2a3 5324 	subw	r3, r3, #1316	; 0x524
 8001b08:	2100      	movs	r1, #0
 8001b0a:	6818      	ldr	r0, [r3, #0]
 8001b0c:	f7ff fa75 	bl	8000ffa <_ZN8ICM426888icm4268817set_bank_registerENS_12bankRegisterE>
 8001b10:	4603      	mov	r3, r0
 8001b12:	2b00      	cmp	r3, #0
 8001b14:	bf14      	ite	ne
 8001b16:	2301      	movne	r3, #1
 8001b18:	2300      	moveq	r3, #0
 8001b1a:	b2db      	uxtb	r3, r3
 8001b1c:	2b00      	cmp	r3, #0
 8001b1e:	d001      	beq.n	8001b24 <_ZN8ICM426888icm4268816write_config_intEv+0x4c>
            return iIMU_ST::ERROR_COMM;
 8001b20:	2301      	movs	r3, #1
 8001b22:	e174      	b.n	8001e0e <_ZN8ICM426888icm4268816write_config_intEv+0x336>
        }
        
        opt.size = 1;
 8001b24:	f507 63a5 	add.w	r3, r7, #1320	; 0x528
 8001b28:	f2a3 531c 	subw	r3, r3, #1308	; 0x51c
 8001b2c:	2201      	movs	r2, #1
 8001b2e:	705a      	strb	r2, [r3, #1]
        opt.slave = m_spiSet ? static_cast<void*>(m_cs) : static_cast<void*>(&m_i2cAdd);
 8001b30:	f507 63a5 	add.w	r3, r7, #1320	; 0x528
 8001b34:	f2a3 5324 	subw	r3, r3, #1316	; 0x524
 8001b38:	681b      	ldr	r3, [r3, #0]
 8001b3a:	f893 3249 	ldrb.w	r3, [r3, #585]	; 0x249
 8001b3e:	2b00      	cmp	r3, #0
 8001b40:	d007      	beq.n	8001b52 <_ZN8ICM426888icm4268816write_config_intEv+0x7a>
 8001b42:	f507 63a5 	add.w	r3, r7, #1320	; 0x528
 8001b46:	f2a3 5324 	subw	r3, r3, #1316	; 0x524
 8001b4a:	681b      	ldr	r3, [r3, #0]
 8001b4c:	f8d3 3244 	ldr.w	r3, [r3, #580]	; 0x244
 8001b50:	e006      	b.n	8001b60 <_ZN8ICM426888icm4268816write_config_intEv+0x88>
 8001b52:	f507 63a5 	add.w	r3, r7, #1320	; 0x528
 8001b56:	f2a3 5324 	subw	r3, r3, #1316	; 0x524
 8001b5a:	681b      	ldr	r3, [r3, #0]
 8001b5c:	f503 7312 	add.w	r3, r3, #584	; 0x248
 8001b60:	f507 62a5 	add.w	r2, r7, #1320	; 0x528
 8001b64:	f2a2 521c 	subw	r2, r2, #1308	; 0x51c
 8001b68:	6053      	str	r3, [r2, #4]
        opt.mode = m_mode;
 8001b6a:	f507 63a5 	add.w	r3, r7, #1320	; 0x528
 8001b6e:	f2a3 5324 	subw	r3, r3, #1316	; 0x524
 8001b72:	681b      	ldr	r3, [r3, #0]
 8001b74:	f8d3 224c 	ldr.w	r2, [r3, #588]	; 0x24c
 8001b78:	f507 63a5 	add.w	r3, r7, #1320	; 0x528
 8001b7c:	f2a3 531c 	subw	r3, r3, #1308	; 0x51c
 8001b80:	609a      	str	r2, [r3, #8]


    	if(m_cnf.intCnf.int1Source != INT_SOURCE::DISABLED){
 8001b82:	f507 63a5 	add.w	r3, r7, #1320	; 0x528
 8001b86:	f2a3 5324 	subw	r3, r3, #1316	; 0x524
 8001b8a:	681b      	ldr	r3, [r3, #0]
 8001b8c:	f8d3 31e8 	ldr.w	r3, [r3, #488]	; 0x1e8
 8001b90:	f1b3 3fff 	cmp.w	r3, #4294967295	; 0xffffffff
 8001b94:	f000 80bb 	beq.w	8001d0e <_ZN8ICM426888icm4268816write_config_intEv+0x236>
    		new_INT_CONFIG |= static_cast<uint8_t>(m_cnf.intCnf.int1Mode);
 8001b98:	f507 63a5 	add.w	r3, r7, #1320	; 0x528
 8001b9c:	f2a3 5324 	subw	r3, r3, #1316	; 0x524
 8001ba0:	681b      	ldr	r3, [r3, #0]
 8001ba2:	f8d3 31ec 	ldr.w	r3, [r3, #492]	; 0x1ec
 8001ba6:	b2da      	uxtb	r2, r3
 8001ba8:	f507 63a5 	add.w	r3, r7, #1320	; 0x528
 8001bac:	f2a3 531d 	subw	r3, r3, #1309	; 0x51d
 8001bb0:	781b      	ldrb	r3, [r3, #0]
 8001bb2:	4313      	orrs	r3, r2
 8001bb4:	b2da      	uxtb	r2, r3
 8001bb6:	f507 63a5 	add.w	r3, r7, #1320	; 0x528
 8001bba:	f2a3 531d 	subw	r3, r3, #1309	; 0x51d
 8001bbe:	701a      	strb	r2, [r3, #0]
    		new_INT_SOURCE0 = (1 << static_cast<uint8_t>(m_cnf.intCnf.int1Source ));
 8001bc0:	f507 63a5 	add.w	r3, r7, #1320	; 0x528
 8001bc4:	f2a3 5324 	subw	r3, r3, #1316	; 0x524
 8001bc8:	681b      	ldr	r3, [r3, #0]
 8001bca:	f8d3 31e8 	ldr.w	r3, [r3, #488]	; 0x1e8
 8001bce:	b2db      	uxtb	r3, r3
 8001bd0:	461a      	mov	r2, r3
 8001bd2:	2301      	movs	r3, #1
 8001bd4:	4093      	lsls	r3, r2
 8001bd6:	b2da      	uxtb	r2, r3
 8001bd8:	f507 63a5 	add.w	r3, r7, #1320	; 0x528
 8001bdc:	f2a3 531e 	subw	r3, r3, #1310	; 0x51e
 8001be0:	701a      	strb	r2, [r3, #0]
            
            opt.add = INT_SOURCE0_ADD;
 8001be2:	f507 63a5 	add.w	r3, r7, #1320	; 0x528
 8001be6:	f2a3 531c 	subw	r3, r3, #1308	; 0x51c
 8001bea:	2265      	movs	r2, #101	; 0x65
 8001bec:	701a      	strb	r2, [r3, #0]
            if(m_handler->write_registers(&new_INT_SOURCE0, opt) != iPHANDLER_ST::OK){
 8001bee:	f507 63a5 	add.w	r3, r7, #1320	; 0x528
 8001bf2:	f2a3 5324 	subw	r3, r3, #1316	; 0x524
 8001bf6:	681b      	ldr	r3, [r3, #0]
 8001bf8:	f8d3 0240 	ldr.w	r0, [r3, #576]	; 0x240
 8001bfc:	f507 63a5 	add.w	r3, r7, #1320	; 0x528
 8001c00:	f2a3 5324 	subw	r3, r3, #1316	; 0x524
 8001c04:	681b      	ldr	r3, [r3, #0]
 8001c06:	f8d3 3240 	ldr.w	r3, [r3, #576]	; 0x240
 8001c0a:	681b      	ldr	r3, [r3, #0]
 8001c0c:	3304      	adds	r3, #4
 8001c0e:	681b      	ldr	r3, [r3, #0]
 8001c10:	f107 020c 	add.w	r2, r7, #12
 8001c14:	f107 010a 	add.w	r1, r7, #10
 8001c18:	4798      	blx	r3
 8001c1a:	4603      	mov	r3, r0
 8001c1c:	2b00      	cmp	r3, #0
 8001c1e:	bf14      	ite	ne
 8001c20:	2301      	movne	r3, #1
 8001c22:	2300      	moveq	r3, #0
 8001c24:	b2db      	uxtb	r3, r3
 8001c26:	2b00      	cmp	r3, #0
 8001c28:	d001      	beq.n	8001c2e <_ZN8ICM426888icm4268816write_config_intEv+0x156>
                return iIMU_ST::ERROR_COMM;
 8001c2a:	2301      	movs	r3, #1
 8001c2c:	e0ef      	b.n	8001e0e <_ZN8ICM426888icm4268816write_config_intEv+0x336>
            }
            switch(m_cnf.intCnf.int1Source){
 8001c2e:	f507 63a5 	add.w	r3, r7, #1320	; 0x528
 8001c32:	f2a3 5324 	subw	r3, r3, #1316	; 0x524
 8001c36:	681b      	ldr	r3, [r3, #0]
 8001c38:	f8d3 31e8 	ldr.w	r3, [r3, #488]	; 0x1e8
 8001c3c:	2b02      	cmp	r3, #2
 8001c3e:	d034      	beq.n	8001caa <_ZN8ICM426888icm4268816write_config_intEv+0x1d2>
            default:
            case INT_SOURCE::DATA_RDY:
            	m_INT1->interrupt_handler = std::bind(&icm42688::save_data, *this);
 8001c40:	f507 63a5 	add.w	r3, r7, #1320	; 0x528
 8001c44:	f2a3 5324 	subw	r3, r3, #1316	; 0x524
 8001c48:	681b      	ldr	r3, [r3, #0]
 8001c4a:	f8d3 3250 	ldr.w	r3, [r3, #592]	; 0x250
 8001c4e:	461c      	mov	r4, r3
 8001c50:	f507 63a5 	add.w	r3, r7, #1320	; 0x528
 8001c54:	f5a3 7324 	sub.w	r3, r3, #656	; 0x290
 8001c58:	2200      	movs	r2, #0
 8001c5a:	601a      	str	r2, [r3, #0]
 8001c5c:	f507 63a5 	add.w	r3, r7, #1320	; 0x528
 8001c60:	f5a3 7324 	sub.w	r3, r3, #656	; 0x290
 8001c64:	2201      	movs	r2, #1
 8001c66:	605a      	str	r2, [r3, #4]
 8001c68:	f507 63a5 	add.w	r3, r7, #1320	; 0x528
 8001c6c:	f5a3 7126 	sub.w	r1, r3, #664	; 0x298
 8001c70:	f507 63a5 	add.w	r3, r7, #1320	; 0x528
 8001c74:	f5a3 7224 	sub.w	r2, r3, #656	; 0x290
 8001c78:	460b      	mov	r3, r1
 8001c7a:	e892 0003 	ldmia.w	r2, {r0, r1}
 8001c7e:	e883 0003 	stmia.w	r3, {r0, r1}
 8001c82:	f507 63a5 	add.w	r3, r7, #1320	; 0x528
 8001c86:	f2a3 500c 	subw	r0, r3, #1292	; 0x50c
 8001c8a:	f507 63a5 	add.w	r3, r7, #1320	; 0x528
 8001c8e:	f2a3 5324 	subw	r3, r3, #1316	; 0x524
 8001c92:	f507 7124 	add.w	r1, r7, #656	; 0x290
 8001c96:	681a      	ldr	r2, [r3, #0]
 8001c98:	f000 fae1 	bl	800225e <_ZSt4bindIMN8ICM426888icm42688EF7iIMU_STvEJRS1_EENSt12_Bind_helperIXsrSt5__or_IJSt11is_integralINSt5decayIT_E4typeEESt7is_enumISC_EEE5valueESA_JDpT0_EE4typeEOSA_DpOSH_>
 8001c9c:	f107 031c 	add.w	r3, r7, #28
 8001ca0:	4619      	mov	r1, r3
 8001ca2:	4620      	mov	r0, r4
 8001ca4:	f000 faff 	bl	80022a6 <_ZNSt8functionIFvvEEaSISt5_BindIFMN8ICM426888icm42688EF7iIMU_STvES5_EEEENSt9enable_ifIXsrNS1_9_CallableIT_NSB_IXntsrSt7is_sameINSt9remove_cvINSt16remove_referenceISD_E4typeEE4typeES1_E5valueESt5decayISD_EE4type4typeESt15__invoke_resultIRSQ_JEEEE5valueERS1_E4typeEOSD_>
				break;
 8001ca8:	e031      	b.n	8001d0e <_ZN8ICM426888icm4268816write_config_intEv+0x236>
            case INT_SOURCE::FIFO_THR:
            	m_INT1->interrupt_handler = std::bind(&icm42688::save_fifo_data, *this, m_cnf.fifoCnf.watermark);
 8001caa:	f507 63a5 	add.w	r3, r7, #1320	; 0x528
 8001cae:	f2a3 5324 	subw	r3, r3, #1316	; 0x524
 8001cb2:	681b      	ldr	r3, [r3, #0]
 8001cb4:	f8d3 3250 	ldr.w	r3, [r3, #592]	; 0x250
 8001cb8:	461c      	mov	r4, r3
 8001cba:	4a57      	ldr	r2, [pc, #348]	; (8001e18 <_ZN8ICM426888icm4268816write_config_intEv+0x340>)
 8001cbc:	f507 63a4 	add.w	r3, r7, #1312	; 0x520
 8001cc0:	e892 0003 	ldmia.w	r2, {r0, r1}
 8001cc4:	e883 0003 	stmia.w	r3, {r0, r1}
 8001cc8:	f507 63a3 	add.w	r3, r7, #1304	; 0x518
 8001ccc:	f507 62a4 	add.w	r2, r7, #1312	; 0x520
 8001cd0:	e892 0003 	ldmia.w	r2, {r0, r1}
 8001cd4:	e883 0003 	stmia.w	r3, {r0, r1}
 8001cd8:	f507 63a5 	add.w	r3, r7, #1320	; 0x528
 8001cdc:	f2a3 5324 	subw	r3, r3, #1316	; 0x524
 8001ce0:	681b      	ldr	r3, [r3, #0]
 8001ce2:	f503 73f0 	add.w	r3, r3, #480	; 0x1e0
 8001ce6:	f507 62a5 	add.w	r2, r7, #1320	; 0x528
 8001cea:	f5a2 7022 	sub.w	r0, r2, #648	; 0x288
 8001cee:	f507 62a5 	add.w	r2, r7, #1320	; 0x528
 8001cf2:	f2a2 5224 	subw	r2, r2, #1316	; 0x524
 8001cf6:	f507 61a3 	add.w	r1, r7, #1304	; 0x518
 8001cfa:	6812      	ldr	r2, [r2, #0]
 8001cfc:	f000 fbef 	bl	80024de <_ZSt4bindIMN8ICM426888icm42688EF7iIMU_SThEJRS1_RtEENSt12_Bind_helperIXsrSt5__or_IJSt11is_integralINSt5decayIT_E4typeEESt7is_enumISD_EEE5valueESB_JDpT0_EE4typeEOSB_DpOSI_>
 8001d00:	f507 7328 	add.w	r3, r7, #672	; 0x2a0
 8001d04:	4619      	mov	r1, r3
 8001d06:	4620      	mov	r0, r4
 8001d08:	f000 fc05 	bl	8002516 <_ZNSt8functionIFvvEEaSISt5_BindIFMN8ICM426888icm42688EF7iIMU_SThES5_tEEEENSt9enable_ifIXsrNS1_9_CallableIT_NSB_IXntsrSt7is_sameINSt9remove_cvINSt16remove_referenceISD_E4typeEE4typeES1_E5valueESt5decayISD_EE4type4typeESt15__invoke_resultIRSQ_JEEEE5valueERS1_E4typeEOSD_>
					break;
 8001d0c:	bf00      	nop
            }
    	}

    	if(m_cnf.intCnf.int2Source != INT_SOURCE::DISABLED){
 8001d0e:	f507 63a5 	add.w	r3, r7, #1320	; 0x528
 8001d12:	f2a3 5324 	subw	r3, r3, #1316	; 0x524
 8001d16:	681b      	ldr	r3, [r3, #0]
 8001d18:	f8d3 31f0 	ldr.w	r3, [r3, #496]	; 0x1f0
 8001d1c:	f1b3 3fff 	cmp.w	r3, #4294967295	; 0xffffffff
 8001d20:	d04e      	beq.n	8001dc0 <_ZN8ICM426888icm4268816write_config_intEv+0x2e8>
    		new_INT_CONFIG |= (static_cast<uint8_t>(m_cnf.intCnf.int2Mode) << 3);
 8001d22:	f507 63a5 	add.w	r3, r7, #1320	; 0x528
 8001d26:	f2a3 5324 	subw	r3, r3, #1316	; 0x524
 8001d2a:	681b      	ldr	r3, [r3, #0]
 8001d2c:	f8d3 31f4 	ldr.w	r3, [r3, #500]	; 0x1f4
 8001d30:	b2db      	uxtb	r3, r3
 8001d32:	00db      	lsls	r3, r3, #3
 8001d34:	b25a      	sxtb	r2, r3
 8001d36:	f507 63a5 	add.w	r3, r7, #1320	; 0x528
 8001d3a:	f2a3 531d 	subw	r3, r3, #1309	; 0x51d
 8001d3e:	781b      	ldrb	r3, [r3, #0]
 8001d40:	b25b      	sxtb	r3, r3
 8001d42:	4313      	orrs	r3, r2
 8001d44:	b25b      	sxtb	r3, r3
 8001d46:	b2da      	uxtb	r2, r3
 8001d48:	f507 63a5 	add.w	r3, r7, #1320	; 0x528
 8001d4c:	f2a3 531d 	subw	r3, r3, #1309	; 0x51d
 8001d50:	701a      	strb	r2, [r3, #0]
    		new_INT_SOURCE1 = (1 << static_cast<uint8_t>(m_cnf.intCnf.int2Source ));
 8001d52:	f507 63a5 	add.w	r3, r7, #1320	; 0x528
 8001d56:	f2a3 5324 	subw	r3, r3, #1316	; 0x524
 8001d5a:	681b      	ldr	r3, [r3, #0]
 8001d5c:	f8d3 31f0 	ldr.w	r3, [r3, #496]	; 0x1f0
 8001d60:	b2db      	uxtb	r3, r3
 8001d62:	461a      	mov	r2, r3
 8001d64:	2301      	movs	r3, #1
 8001d66:	4093      	lsls	r3, r2
 8001d68:	b2da      	uxtb	r2, r3
 8001d6a:	f507 63a5 	add.w	r3, r7, #1320	; 0x528
 8001d6e:	f2a3 531f 	subw	r3, r3, #1311	; 0x51f
 8001d72:	701a      	strb	r2, [r3, #0]
            
            opt.add = INT_SOURCE1_ADD;
 8001d74:	f507 63a5 	add.w	r3, r7, #1320	; 0x528
 8001d78:	f2a3 531c 	subw	r3, r3, #1308	; 0x51c
 8001d7c:	2266      	movs	r2, #102	; 0x66
 8001d7e:	701a      	strb	r2, [r3, #0]
            if(m_handler->write_registers(&new_INT_SOURCE1, opt) != iPHANDLER_ST::OK){
 8001d80:	f507 63a5 	add.w	r3, r7, #1320	; 0x528
 8001d84:	f2a3 5324 	subw	r3, r3, #1316	; 0x524
 8001d88:	681b      	ldr	r3, [r3, #0]
 8001d8a:	f8d3 0240 	ldr.w	r0, [r3, #576]	; 0x240
 8001d8e:	f507 63a5 	add.w	r3, r7, #1320	; 0x528
 8001d92:	f2a3 5324 	subw	r3, r3, #1316	; 0x524
 8001d96:	681b      	ldr	r3, [r3, #0]
 8001d98:	f8d3 3240 	ldr.w	r3, [r3, #576]	; 0x240
 8001d9c:	681b      	ldr	r3, [r3, #0]
 8001d9e:	3304      	adds	r3, #4
 8001da0:	681b      	ldr	r3, [r3, #0]
 8001da2:	f107 020c 	add.w	r2, r7, #12
 8001da6:	f107 0109 	add.w	r1, r7, #9
 8001daa:	4798      	blx	r3
 8001dac:	4603      	mov	r3, r0
 8001dae:	2b00      	cmp	r3, #0
 8001db0:	bf14      	ite	ne
 8001db2:	2301      	movne	r3, #1
 8001db4:	2300      	moveq	r3, #0
 8001db6:	b2db      	uxtb	r3, r3
 8001db8:	2b00      	cmp	r3, #0
 8001dba:	d001      	beq.n	8001dc0 <_ZN8ICM426888icm4268816write_config_intEv+0x2e8>
                return iIMU_ST::ERROR_COMM;
 8001dbc:	2301      	movs	r3, #1
 8001dbe:	e026      	b.n	8001e0e <_ZN8ICM426888icm4268816write_config_intEv+0x336>
            }  
		}

        //Enables watermark interrupt on INT1
        opt.add = INT_CONFIG_ADD;
 8001dc0:	f507 63a5 	add.w	r3, r7, #1320	; 0x528
 8001dc4:	f2a3 531c 	subw	r3, r3, #1308	; 0x51c
 8001dc8:	2214      	movs	r2, #20
 8001dca:	701a      	strb	r2, [r3, #0]
        if(m_handler->write_registers(&new_INT_CONFIG, opt) != iPHANDLER_ST::OK){
 8001dcc:	f507 63a5 	add.w	r3, r7, #1320	; 0x528
 8001dd0:	f2a3 5324 	subw	r3, r3, #1316	; 0x524
 8001dd4:	681b      	ldr	r3, [r3, #0]
 8001dd6:	f8d3 0240 	ldr.w	r0, [r3, #576]	; 0x240
 8001dda:	f507 63a5 	add.w	r3, r7, #1320	; 0x528
 8001dde:	f2a3 5324 	subw	r3, r3, #1316	; 0x524
 8001de2:	681b      	ldr	r3, [r3, #0]
 8001de4:	f8d3 3240 	ldr.w	r3, [r3, #576]	; 0x240
 8001de8:	681b      	ldr	r3, [r3, #0]
 8001dea:	3304      	adds	r3, #4
 8001dec:	681b      	ldr	r3, [r3, #0]
 8001dee:	f107 020c 	add.w	r2, r7, #12
 8001df2:	f107 010b 	add.w	r1, r7, #11
 8001df6:	4798      	blx	r3
 8001df8:	4603      	mov	r3, r0
 8001dfa:	2b00      	cmp	r3, #0
 8001dfc:	bf14      	ite	ne
 8001dfe:	2301      	movne	r3, #1
 8001e00:	2300      	moveq	r3, #0
 8001e02:	b2db      	uxtb	r3, r3
 8001e04:	2b00      	cmp	r3, #0
 8001e06:	d001      	beq.n	8001e0c <_ZN8ICM426888icm4268816write_config_intEv+0x334>
            return iIMU_ST::ERROR_COMM;
 8001e08:	2301      	movs	r3, #1
 8001e0a:	e000      	b.n	8001e0e <_ZN8ICM426888icm4268816write_config_intEv+0x336>
        } 

        return iIMU_ST::OK;
 8001e0c:	2300      	movs	r3, #0
    }
 8001e0e:	4618      	mov	r0, r3
 8001e10:	f207 572c 	addw	r7, r7, #1324	; 0x52c
 8001e14:	46bd      	mov	sp, r7
 8001e16:	bd90      	pop	{r4, r7, pc}
 8001e18:	080097c0 	.word	0x080097c0

08001e1c <_ZN8ICM426888icm426886enableEv>:


    iIMU_ST icm42688::enable()
    {        
 8001e1c:	b580      	push	{r7, lr}
 8001e1e:	b086      	sub	sp, #24
 8001e20:	af00      	add	r7, sp, #0
 8001e22:	6078      	str	r0, [r7, #4]
        PHandlerOpt opt;
 8001e24:	f107 0308 	add.w	r3, r7, #8
 8001e28:	4618      	mov	r0, r3
 8001e2a:	f7ff f8cc 	bl	8000fc6 <_ZN11PHandlerOptC1Ev>
        
        if(set_bank_register(bankRegister::BANK0) != iIMU_ST::OK){
 8001e2e:	2100      	movs	r1, #0
 8001e30:	6878      	ldr	r0, [r7, #4]
 8001e32:	f7ff f8e2 	bl	8000ffa <_ZN8ICM426888icm4268817set_bank_registerENS_12bankRegisterE>
 8001e36:	4603      	mov	r3, r0
 8001e38:	2b00      	cmp	r3, #0
 8001e3a:	bf14      	ite	ne
 8001e3c:	2301      	movne	r3, #1
 8001e3e:	2300      	moveq	r3, #0
 8001e40:	b2db      	uxtb	r3, r3
 8001e42:	2b00      	cmp	r3, #0
 8001e44:	d001      	beq.n	8001e4a <_ZN8ICM426888icm426886enableEv+0x2e>
            return iIMU_ST::ERROR_COMM;
 8001e46:	2301      	movs	r3, #1
 8001e48:	e038      	b.n	8001ebc <_ZN8ICM426888icm426886enableEv+0xa0>
        }
        
        opt.add = PWR_MGMT0_ADD;
 8001e4a:	234e      	movs	r3, #78	; 0x4e
 8001e4c:	723b      	strb	r3, [r7, #8]
        opt.size = 1;        
 8001e4e:	2301      	movs	r3, #1
 8001e50:	727b      	strb	r3, [r7, #9]
        opt.slave = m_spiSet ? static_cast<void*>(m_cs) : static_cast<void*>(&m_i2cAdd);
 8001e52:	687b      	ldr	r3, [r7, #4]
 8001e54:	f893 3249 	ldrb.w	r3, [r3, #585]	; 0x249
 8001e58:	2b00      	cmp	r3, #0
 8001e5a:	d003      	beq.n	8001e64 <_ZN8ICM426888icm426886enableEv+0x48>
 8001e5c:	687b      	ldr	r3, [r7, #4]
 8001e5e:	f8d3 3244 	ldr.w	r3, [r3, #580]	; 0x244
 8001e62:	e002      	b.n	8001e6a <_ZN8ICM426888icm426886enableEv+0x4e>
 8001e64:	687b      	ldr	r3, [r7, #4]
 8001e66:	f503 7312 	add.w	r3, r3, #584	; 0x248
 8001e6a:	60fb      	str	r3, [r7, #12]
        if(m_handler->write_registers((uint8_t*)&IMU_ENABLE_LOW_NOISE, opt) != iPHANDLER_ST::OK){
 8001e6c:	687b      	ldr	r3, [r7, #4]
 8001e6e:	f8d3 0240 	ldr.w	r0, [r3, #576]	; 0x240
 8001e72:	687b      	ldr	r3, [r7, #4]
 8001e74:	f8d3 3240 	ldr.w	r3, [r3, #576]	; 0x240
 8001e78:	681b      	ldr	r3, [r3, #0]
 8001e7a:	3304      	adds	r3, #4
 8001e7c:	681b      	ldr	r3, [r3, #0]
 8001e7e:	f107 0208 	add.w	r2, r7, #8
 8001e82:	4910      	ldr	r1, [pc, #64]	; (8001ec4 <_ZN8ICM426888icm426886enableEv+0xa8>)
 8001e84:	4798      	blx	r3
 8001e86:	4603      	mov	r3, r0
 8001e88:	2b00      	cmp	r3, #0
 8001e8a:	bf14      	ite	ne
 8001e8c:	2301      	movne	r3, #1
 8001e8e:	2300      	moveq	r3, #0
 8001e90:	b2db      	uxtb	r3, r3
 8001e92:	2b00      	cmp	r3, #0
 8001e94:	d001      	beq.n	8001e9a <_ZN8ICM426888icm426886enableEv+0x7e>
            return iIMU_ST::ERROR_COMM;
 8001e96:	2301      	movs	r3, #1
 8001e98:	e010      	b.n	8001ebc <_ZN8ICM426888icm426886enableEv+0xa0>
        } 

        if(write_config() != iIMU_ST::OK){
 8001e9a:	687b      	ldr	r3, [r7, #4]
 8001e9c:	681b      	ldr	r3, [r3, #0]
 8001e9e:	3344      	adds	r3, #68	; 0x44
 8001ea0:	681b      	ldr	r3, [r3, #0]
 8001ea2:	6878      	ldr	r0, [r7, #4]
 8001ea4:	4798      	blx	r3
 8001ea6:	4603      	mov	r3, r0
 8001ea8:	2b00      	cmp	r3, #0
 8001eaa:	bf14      	ite	ne
 8001eac:	2301      	movne	r3, #1
 8001eae:	2300      	moveq	r3, #0
 8001eb0:	b2db      	uxtb	r3, r3
 8001eb2:	2b00      	cmp	r3, #0
 8001eb4:	d001      	beq.n	8001eba <_ZN8ICM426888icm426886enableEv+0x9e>
        	return iIMU_ST::ERROR_COMM;
 8001eb6:	2301      	movs	r3, #1
 8001eb8:	e000      	b.n	8001ebc <_ZN8ICM426888icm426886enableEv+0xa0>
        }

        return iIMU_ST::OK;
 8001eba:	2300      	movs	r3, #0

    	//return write_register(PWR_MGMT0_ADD, bankRegister::BANK0, IMU_ENABLE_LOW_NOISE);
    	// Algunos milisegundos deben pasar luego de habilitar la imu para que funcione (leer pag 77 de datasheet)
    }
 8001ebc:	4618      	mov	r0, r3
 8001ebe:	3718      	adds	r7, #24
 8001ec0:	46bd      	mov	sp, r7
 8001ec2:	bd80      	pop	{r7, pc}
 8001ec4:	080097d8 	.word	0x080097d8

08001ec8 <_ZN8ICM426888icm426887disableEv>:



    iIMU_ST icm42688::disable()
	{
 8001ec8:	b580      	push	{r7, lr}
 8001eca:	b088      	sub	sp, #32
 8001ecc:	af00      	add	r7, sp, #0
 8001ece:	6078      	str	r0, [r7, #4]
        PHandlerOpt opt;
 8001ed0:	f107 0310 	add.w	r3, r7, #16
 8001ed4:	4618      	mov	r0, r3
 8001ed6:	f7ff f876 	bl	8000fc6 <_ZN11PHandlerOptC1Ev>
        uint8_t nullValue = 0x00;
 8001eda:	2300      	movs	r3, #0
 8001edc:	73fb      	strb	r3, [r7, #15]
        
//        if(set_bank_register(bankRegister::BANK0) != iIMU_ST::OK){
//            return iIMU_ST::ERROR_COMM;
//        }

        if(set_bank_register(bankRegister::BANK0) != iIMU_ST::OK){
 8001ede:	2100      	movs	r1, #0
 8001ee0:	6878      	ldr	r0, [r7, #4]
 8001ee2:	f7ff f88a 	bl	8000ffa <_ZN8ICM426888icm4268817set_bank_registerENS_12bankRegisterE>
 8001ee6:	4603      	mov	r3, r0
 8001ee8:	2b00      	cmp	r3, #0
 8001eea:	bf14      	ite	ne
 8001eec:	2301      	movne	r3, #1
 8001eee:	2300      	moveq	r3, #0
 8001ef0:	b2db      	uxtb	r3, r3
 8001ef2:	2b00      	cmp	r3, #0
 8001ef4:	d001      	beq.n	8001efa <_ZN8ICM426888icm426887disableEv+0x32>
            return iIMU_ST::ERROR_COMM;
 8001ef6:	2301      	movs	r3, #1
 8001ef8:	e076      	b.n	8001fe8 <_ZN8ICM426888icm426887disableEv+0x120>
        }
        opt.size = 1;
 8001efa:	2301      	movs	r3, #1
 8001efc:	747b      	strb	r3, [r7, #17]
        opt.slave = m_spiSet ? static_cast<void*>(m_cs) : static_cast<void*>(&m_i2cAdd);
 8001efe:	687b      	ldr	r3, [r7, #4]
 8001f00:	f893 3249 	ldrb.w	r3, [r3, #585]	; 0x249
 8001f04:	2b00      	cmp	r3, #0
 8001f06:	d003      	beq.n	8001f10 <_ZN8ICM426888icm426887disableEv+0x48>
 8001f08:	687b      	ldr	r3, [r7, #4]
 8001f0a:	f8d3 3244 	ldr.w	r3, [r3, #580]	; 0x244
 8001f0e:	e002      	b.n	8001f16 <_ZN8ICM426888icm426887disableEv+0x4e>
 8001f10:	687b      	ldr	r3, [r7, #4]
 8001f12:	f503 7312 	add.w	r3, r3, #584	; 0x248
 8001f16:	617b      	str	r3, [r7, #20]
        

        // Desabilita todos las configuraciones de interrupciones
		opt.add = INT_SOURCE0_ADD;
 8001f18:	2365      	movs	r3, #101	; 0x65
 8001f1a:	743b      	strb	r3, [r7, #16]
		if(m_handler->write_registers(&nullValue, opt) != iPHANDLER_ST::OK){
 8001f1c:	687b      	ldr	r3, [r7, #4]
 8001f1e:	f8d3 0240 	ldr.w	r0, [r3, #576]	; 0x240
 8001f22:	687b      	ldr	r3, [r7, #4]
 8001f24:	f8d3 3240 	ldr.w	r3, [r3, #576]	; 0x240
 8001f28:	681b      	ldr	r3, [r3, #0]
 8001f2a:	3304      	adds	r3, #4
 8001f2c:	681b      	ldr	r3, [r3, #0]
 8001f2e:	f107 0210 	add.w	r2, r7, #16
 8001f32:	f107 010f 	add.w	r1, r7, #15
 8001f36:	4798      	blx	r3
 8001f38:	4603      	mov	r3, r0
 8001f3a:	2b00      	cmp	r3, #0
 8001f3c:	bf14      	ite	ne
 8001f3e:	2301      	movne	r3, #1
 8001f40:	2300      	moveq	r3, #0
 8001f42:	b2db      	uxtb	r3, r3
 8001f44:	2b00      	cmp	r3, #0
 8001f46:	d001      	beq.n	8001f4c <_ZN8ICM426888icm426887disableEv+0x84>
			return iIMU_ST::ERROR_COMM;
 8001f48:	2301      	movs	r3, #1
 8001f4a:	e04d      	b.n	8001fe8 <_ZN8ICM426888icm426887disableEv+0x120>
		}
		opt.add = INT_SOURCE1_ADD;
 8001f4c:	2366      	movs	r3, #102	; 0x66
 8001f4e:	743b      	strb	r3, [r7, #16]
		if(m_handler->write_registers(&nullValue, opt) != iPHANDLER_ST::OK){
 8001f50:	687b      	ldr	r3, [r7, #4]
 8001f52:	f8d3 0240 	ldr.w	r0, [r3, #576]	; 0x240
 8001f56:	687b      	ldr	r3, [r7, #4]
 8001f58:	f8d3 3240 	ldr.w	r3, [r3, #576]	; 0x240
 8001f5c:	681b      	ldr	r3, [r3, #0]
 8001f5e:	3304      	adds	r3, #4
 8001f60:	681b      	ldr	r3, [r3, #0]
 8001f62:	f107 0210 	add.w	r2, r7, #16
 8001f66:	f107 010f 	add.w	r1, r7, #15
 8001f6a:	4798      	blx	r3
 8001f6c:	4603      	mov	r3, r0
 8001f6e:	2b00      	cmp	r3, #0
 8001f70:	bf14      	ite	ne
 8001f72:	2301      	movne	r3, #1
 8001f74:	2300      	moveq	r3, #0
 8001f76:	b2db      	uxtb	r3, r3
 8001f78:	2b00      	cmp	r3, #0
 8001f7a:	d001      	beq.n	8001f80 <_ZN8ICM426888icm426887disableEv+0xb8>
			return iIMU_ST::ERROR_COMM;
 8001f7c:	2301      	movs	r3, #1
 8001f7e:	e033      	b.n	8001fe8 <_ZN8ICM426888icm426887disableEv+0x120>
		}
        opt.add = INT_CONFIG_ADD;
 8001f80:	2314      	movs	r3, #20
 8001f82:	743b      	strb	r3, [r7, #16]
        if(m_handler->write_registers(&nullValue, opt) != iPHANDLER_ST::OK){
 8001f84:	687b      	ldr	r3, [r7, #4]
 8001f86:	f8d3 0240 	ldr.w	r0, [r3, #576]	; 0x240
 8001f8a:	687b      	ldr	r3, [r7, #4]
 8001f8c:	f8d3 3240 	ldr.w	r3, [r3, #576]	; 0x240
 8001f90:	681b      	ldr	r3, [r3, #0]
 8001f92:	3304      	adds	r3, #4
 8001f94:	681b      	ldr	r3, [r3, #0]
 8001f96:	f107 0210 	add.w	r2, r7, #16
 8001f9a:	f107 010f 	add.w	r1, r7, #15
 8001f9e:	4798      	blx	r3
 8001fa0:	4603      	mov	r3, r0
 8001fa2:	2b00      	cmp	r3, #0
 8001fa4:	bf14      	ite	ne
 8001fa6:	2301      	movne	r3, #1
 8001fa8:	2300      	moveq	r3, #0
 8001faa:	b2db      	uxtb	r3, r3
 8001fac:	2b00      	cmp	r3, #0
 8001fae:	d001      	beq.n	8001fb4 <_ZN8ICM426888icm426887disableEv+0xec>
            return iIMU_ST::ERROR_COMM;
 8001fb0:	2301      	movs	r3, #1
 8001fb2:	e019      	b.n	8001fe8 <_ZN8ICM426888icm426887disableEv+0x120>
        }


        //Low power
        opt.add = PWR_MGMT0_ADD;
 8001fb4:	234e      	movs	r3, #78	; 0x4e
 8001fb6:	743b      	strb	r3, [r7, #16]
        if(m_handler->write_registers((uint8_t*)&IMU_DISABLE, opt) != iPHANDLER_ST::OK){
 8001fb8:	687b      	ldr	r3, [r7, #4]
 8001fba:	f8d3 0240 	ldr.w	r0, [r3, #576]	; 0x240
 8001fbe:	687b      	ldr	r3, [r7, #4]
 8001fc0:	f8d3 3240 	ldr.w	r3, [r3, #576]	; 0x240
 8001fc4:	681b      	ldr	r3, [r3, #0]
 8001fc6:	3304      	adds	r3, #4
 8001fc8:	681b      	ldr	r3, [r3, #0]
 8001fca:	f107 0210 	add.w	r2, r7, #16
 8001fce:	4908      	ldr	r1, [pc, #32]	; (8001ff0 <_ZN8ICM426888icm426887disableEv+0x128>)
 8001fd0:	4798      	blx	r3
 8001fd2:	4603      	mov	r3, r0
 8001fd4:	2b00      	cmp	r3, #0
 8001fd6:	bf14      	ite	ne
 8001fd8:	2301      	movne	r3, #1
 8001fda:	2300      	moveq	r3, #0
 8001fdc:	b2db      	uxtb	r3, r3
 8001fde:	2b00      	cmp	r3, #0
 8001fe0:	d001      	beq.n	8001fe6 <_ZN8ICM426888icm426887disableEv+0x11e>
            return iIMU_ST::ERROR_COMM;
 8001fe2:	2301      	movs	r3, #1
 8001fe4:	e000      	b.n	8001fe8 <_ZN8ICM426888icm426887disableEv+0x120>
        } 
        return iIMU_ST::OK;
 8001fe6:	2300      	movs	r3, #0
    	
        
        //return write_register(PWR_MGMT0_ADD, bankRegister::BANK0, IMU_DISABLE);
    	// Algunos milisegundos deben pasar luego de habilitar la imu para que funcione (leer pag 77 de datasheet)
	}
 8001fe8:	4618      	mov	r0, r3
 8001fea:	3720      	adds	r7, #32
 8001fec:	46bd      	mov	sp, r7
 8001fee:	bd80      	pop	{r7, pc}
 8001ff0:	080097d9 	.word	0x080097d9

08001ff4 <_ZN8ICM426888icm426889load_dataEPh>:


    }

    void icm42688::load_data(uint8_t *buffertData)
    {
 8001ff4:	b5b0      	push	{r4, r5, r7, lr}
 8001ff6:	b08e      	sub	sp, #56	; 0x38
 8001ff8:	af04      	add	r7, sp, #16
 8001ffa:	6078      	str	r0, [r7, #4]
 8001ffc:	6039      	str	r1, [r7, #0]
    	IMUData data;
        data.temp   = convertTempData(buffertData[0], buffertData[1]);
 8001ffe:	683b      	ldr	r3, [r7, #0]
 8002000:	781a      	ldrb	r2, [r3, #0]
 8002002:	683b      	ldr	r3, [r7, #0]
 8002004:	3301      	adds	r3, #1
 8002006:	781b      	ldrb	r3, [r3, #0]
 8002008:	4619      	mov	r1, r3
 800200a:	4610      	mov	r0, r2
 800200c:	f001 fc0e 	bl	800382c <_ZN8ICM4268815convertTempDataEhh>
 8002010:	eef0 7a40 	vmov.f32	s15, s0
 8002014:	edc7 7a03 	vstr	s15, [r7, #12]
        data.accelX = convertAccelData(buffertData[2], buffertData[3]);
 8002018:	683b      	ldr	r3, [r7, #0]
 800201a:	3302      	adds	r3, #2
 800201c:	7819      	ldrb	r1, [r3, #0]
 800201e:	683b      	ldr	r3, [r7, #0]
 8002020:	3303      	adds	r3, #3
 8002022:	781b      	ldrb	r3, [r3, #0]
 8002024:	461a      	mov	r2, r3
 8002026:	6878      	ldr	r0, [r7, #4]
 8002028:	f7ff fb34 	bl	8001694 <_ZN8ICM426888icm4268816convertAccelDataEhh>
 800202c:	eef0 7a40 	vmov.f32	s15, s0
 8002030:	edc7 7a07 	vstr	s15, [r7, #28]
        data.accelY = convertAccelData(buffertData[4], buffertData[5]);
 8002034:	683b      	ldr	r3, [r7, #0]
 8002036:	3304      	adds	r3, #4
 8002038:	7819      	ldrb	r1, [r3, #0]
 800203a:	683b      	ldr	r3, [r7, #0]
 800203c:	3305      	adds	r3, #5
 800203e:	781b      	ldrb	r3, [r3, #0]
 8002040:	461a      	mov	r2, r3
 8002042:	6878      	ldr	r0, [r7, #4]
 8002044:	f7ff fb26 	bl	8001694 <_ZN8ICM426888icm4268816convertAccelDataEhh>
 8002048:	eef0 7a40 	vmov.f32	s15, s0
 800204c:	edc7 7a08 	vstr	s15, [r7, #32]
        data.accelZ = convertAccelData(buffertData[6], buffertData[7]);
 8002050:	683b      	ldr	r3, [r7, #0]
 8002052:	3306      	adds	r3, #6
 8002054:	7819      	ldrb	r1, [r3, #0]
 8002056:	683b      	ldr	r3, [r7, #0]
 8002058:	3307      	adds	r3, #7
 800205a:	781b      	ldrb	r3, [r3, #0]
 800205c:	461a      	mov	r2, r3
 800205e:	6878      	ldr	r0, [r7, #4]
 8002060:	f7ff fb18 	bl	8001694 <_ZN8ICM426888icm4268816convertAccelDataEhh>
 8002064:	eef0 7a40 	vmov.f32	s15, s0
 8002068:	edc7 7a09 	vstr	s15, [r7, #36]	; 0x24
        data.gyroX  = convertGyroData(buffertData[8], buffertData[9]);
 800206c:	683b      	ldr	r3, [r7, #0]
 800206e:	3308      	adds	r3, #8
 8002070:	7819      	ldrb	r1, [r3, #0]
 8002072:	683b      	ldr	r3, [r7, #0]
 8002074:	3309      	adds	r3, #9
 8002076:	781b      	ldrb	r3, [r3, #0]
 8002078:	461a      	mov	r2, r3
 800207a:	6878      	ldr	r0, [r7, #4]
 800207c:	f7ff fae2 	bl	8001644 <_ZN8ICM426888icm4268815convertGyroDataEhh>
 8002080:	eef0 7a40 	vmov.f32	s15, s0
 8002084:	edc7 7a04 	vstr	s15, [r7, #16]
        data.gyroY  = convertGyroData(buffertData[10], buffertData[11]);
 8002088:	683b      	ldr	r3, [r7, #0]
 800208a:	330a      	adds	r3, #10
 800208c:	7819      	ldrb	r1, [r3, #0]
 800208e:	683b      	ldr	r3, [r7, #0]
 8002090:	330b      	adds	r3, #11
 8002092:	781b      	ldrb	r3, [r3, #0]
 8002094:	461a      	mov	r2, r3
 8002096:	6878      	ldr	r0, [r7, #4]
 8002098:	f7ff fad4 	bl	8001644 <_ZN8ICM426888icm4268815convertGyroDataEhh>
 800209c:	eef0 7a40 	vmov.f32	s15, s0
 80020a0:	edc7 7a05 	vstr	s15, [r7, #20]
        data.gyroZ  = convertGyroData(buffertData[12], buffertData[13]);
 80020a4:	683b      	ldr	r3, [r7, #0]
 80020a6:	330c      	adds	r3, #12
 80020a8:	7819      	ldrb	r1, [r3, #0]
 80020aa:	683b      	ldr	r3, [r7, #0]
 80020ac:	330d      	adds	r3, #13
 80020ae:	781b      	ldrb	r3, [r3, #0]
 80020b0:	461a      	mov	r2, r3
 80020b2:	6878      	ldr	r0, [r7, #4]
 80020b4:	f7ff fac6 	bl	8001644 <_ZN8ICM426888icm4268815convertGyroDataEhh>
 80020b8:	eef0 7a40 	vmov.f32	s15, s0
 80020bc:	edc7 7a06 	vstr	s15, [r7, #24]
        imuDataBuffer.write(data);
 80020c0:	687b      	ldr	r3, [r7, #4]
 80020c2:	1d1d      	adds	r5, r3, #4
 80020c4:	466c      	mov	r4, sp
 80020c6:	f107 0318 	add.w	r3, r7, #24
 80020ca:	cb0f      	ldmia	r3, {r0, r1, r2, r3}
 80020cc:	e884 000f 	stmia.w	r4, {r0, r1, r2, r3}
 80020d0:	f107 030c 	add.w	r3, r7, #12
 80020d4:	cb0e      	ldmia	r3, {r1, r2, r3}
 80020d6:	4628      	mov	r0, r5
 80020d8:	f000 fa3c 	bl	8002554 <_ZN11circ_bufferI7IMUDataLm16EtE5writeES0_>
    }
 80020dc:	bf00      	nop
 80020de:	3728      	adds	r7, #40	; 0x28
 80020e0:	46bd      	mov	sp, r7
 80020e2:	bdb0      	pop	{r4, r5, r7, pc}

080020e4 <_ZN8ICM426888icm4268827map_handler_ret_to_iIMU_retE12iPHANDLER_ST>:

    iIMU_ST icm42688::map_handler_ret_to_iIMU_ret(iPHANDLER_ST iHandlerRet){
 80020e4:	b480      	push	{r7}
 80020e6:	b085      	sub	sp, #20
 80020e8:	af00      	add	r7, sp, #0
 80020ea:	6078      	str	r0, [r7, #4]
    	iIMU_ST ret;

    	switch(iHandlerRet){
 80020ec:	687b      	ldr	r3, [r7, #4]
 80020ee:	2b03      	cmp	r3, #3
 80020f0:	d012      	beq.n	8002118 <_ZN8ICM426888icm4268827map_handler_ret_to_iIMU_retE12iPHANDLER_ST+0x34>
 80020f2:	687b      	ldr	r3, [r7, #4]
 80020f4:	2b03      	cmp	r3, #3
 80020f6:	dc09      	bgt.n	800210c <_ZN8ICM426888icm4268827map_handler_ret_to_iIMU_retE12iPHANDLER_ST+0x28>
 80020f8:	687b      	ldr	r3, [r7, #4]
 80020fa:	2b00      	cmp	r3, #0
 80020fc:	d003      	beq.n	8002106 <_ZN8ICM426888icm4268827map_handler_ret_to_iIMU_retE12iPHANDLER_ST+0x22>
 80020fe:	687b      	ldr	r3, [r7, #4]
 8002100:	2b02      	cmp	r3, #2
 8002102:	d006      	beq.n	8002112 <_ZN8ICM426888icm4268827map_handler_ret_to_iIMU_retE12iPHANDLER_ST+0x2e>
 8002104:	e002      	b.n	800210c <_ZN8ICM426888icm4268827map_handler_ret_to_iIMU_retE12iPHANDLER_ST+0x28>
    	case iPHANDLER_ST::OK:
    		ret = iIMU_ST::OK;
 8002106:	2300      	movs	r3, #0
 8002108:	60fb      	str	r3, [r7, #12]
    		break;
 800210a:	e008      	b.n	800211e <_ZN8ICM426888icm4268827map_handler_ret_to_iIMU_retE12iPHANDLER_ST+0x3a>
    	case iPHANDLER_ST::ERROR:
    	default:
    		ret = iIMU_ST::ERROR_COMM;
 800210c:	2301      	movs	r3, #1
 800210e:	60fb      	str	r3, [r7, #12]
    		break;
 8002110:	e005      	b.n	800211e <_ZN8ICM426888icm4268827map_handler_ret_to_iIMU_retE12iPHANDLER_ST+0x3a>
    	case iPHANDLER_ST::UNAVAILABLE:
    		ret = iIMU_ST::ERROR_HANDLER_UNAVAILABLE;
 8002112:	2305      	movs	r3, #5
 8002114:	60fb      	str	r3, [r7, #12]
    		break;
 8002116:	e002      	b.n	800211e <_ZN8ICM426888icm4268827map_handler_ret_to_iIMU_retE12iPHANDLER_ST+0x3a>
    	case iPHANDLER_ST::INVALID:
    		ret = iIMU_ST::ERROR_INVALID_OP;
 8002118:	2303      	movs	r3, #3
 800211a:	60fb      	str	r3, [r7, #12]
    		break;
 800211c:	bf00      	nop

    	}

    	return ret;
 800211e:	68fb      	ldr	r3, [r7, #12]
    }
 8002120:	4618      	mov	r0, r3
 8002122:	3714      	adds	r7, #20
 8002124:	46bd      	mov	sp, r7
 8002126:	f85d 7b04 	ldr.w	r7, [sp], #4
 800212a:	4770      	bx	lr

0800212c <_ZN11circ_bufferI7IMUDataLm16EtEC1Ev>:
                bool mEmpty_;

        };

        template<typename bufferDataType, uint32_t bufferSize, typename sizeDataType >
        circ_buffer<bufferDataType, bufferSize, sizeDataType>::circ_buffer()
 800212c:	b480      	push	{r7}
 800212e:	b083      	sub	sp, #12
 8002130:	af00      	add	r7, sp, #0
 8002132:	6078      	str	r0, [r7, #4]
        {
            mFull_ = false;
 8002134:	687b      	ldr	r3, [r7, #4]
 8002136:	2200      	movs	r2, #0
 8002138:	f883 21c8 	strb.w	r2, [r3, #456]	; 0x1c8
            mEmpty_ = true;
 800213c:	687b      	ldr	r3, [r7, #4]
 800213e:	2201      	movs	r2, #1
 8002140:	f883 21c9 	strb.w	r2, [r3, #457]	; 0x1c9
            mHead_ = 0;
 8002144:	687b      	ldr	r3, [r7, #4]
 8002146:	2200      	movs	r2, #0
 8002148:	f8a3 21c4 	strh.w	r2, [r3, #452]	; 0x1c4
            mTail_ = 0;
 800214c:	687b      	ldr	r3, [r7, #4]
 800214e:	2200      	movs	r2, #0
 8002150:	f8a3 21c6 	strh.w	r2, [r3, #454]	; 0x1c6
            mSize_ = 0;
 8002154:	687b      	ldr	r3, [r7, #4]
 8002156:	2200      	movs	r2, #0
 8002158:	801a      	strh	r2, [r3, #0]
            
        }
 800215a:	687b      	ldr	r3, [r7, #4]
 800215c:	4618      	mov	r0, r3
 800215e:	370c      	adds	r7, #12
 8002160:	46bd      	mov	sp, r7
 8002162:	f85d 7b04 	ldr.w	r7, [sp], #4
 8002166:	4770      	bx	lr

08002168 <_ZN11circ_bufferI7IMUDataLm16EtE4readEPS0_>:
            return EXIT_OK;
        }


        template<typename bufferDataType, uint32_t bufferSize, typename sizeDataType >
        bool circ_buffer<bufferDataType, bufferSize, sizeDataType>::read(bufferDataType* pData)
 8002168:	b4b0      	push	{r4, r5, r7}
 800216a:	b083      	sub	sp, #12
 800216c:	af00      	add	r7, sp, #0
 800216e:	6078      	str	r0, [r7, #4]
 8002170:	6039      	str	r1, [r7, #0]
        {
            // bufferDataType data = 0;

            if (mEmpty_){
 8002172:	687b      	ldr	r3, [r7, #4]
 8002174:	f893 31c9 	ldrb.w	r3, [r3, #457]	; 0x1c9
 8002178:	2b00      	cmp	r3, #0
 800217a:	d001      	beq.n	8002180 <_ZN11circ_bufferI7IMUDataLm16EtE4readEPS0_+0x18>
                return EXIT_ERROR;
 800217c:	2300      	movs	r3, #0
 800217e:	e040      	b.n	8002202 <_ZN11circ_bufferI7IMUDataLm16EtE4readEPS0_+0x9a>
                // return data;
            }

            *pData = mBuffer_[mTail_];
 8002180:	687b      	ldr	r3, [r7, #4]
 8002182:	f8b3 31c6 	ldrh.w	r3, [r3, #454]	; 0x1c6
 8002186:	4619      	mov	r1, r3
 8002188:	6838      	ldr	r0, [r7, #0]
 800218a:	687a      	ldr	r2, [r7, #4]
 800218c:	460b      	mov	r3, r1
 800218e:	00db      	lsls	r3, r3, #3
 8002190:	1a5b      	subs	r3, r3, r1
 8002192:	009b      	lsls	r3, r3, #2
 8002194:	4413      	add	r3, r2
 8002196:	4605      	mov	r5, r0
 8002198:	1d1c      	adds	r4, r3, #4
 800219a:	cc0f      	ldmia	r4!, {r0, r1, r2, r3}
 800219c:	c50f      	stmia	r5!, {r0, r1, r2, r3}
 800219e:	e894 0007 	ldmia.w	r4, {r0, r1, r2}
 80021a2:	e885 0007 	stmia.w	r5, {r0, r1, r2}
            mFull_ = false;
 80021a6:	687b      	ldr	r3, [r7, #4]
 80021a8:	2200      	movs	r2, #0
 80021aa:	f883 21c8 	strb.w	r2, [r3, #456]	; 0x1c8

            if(--mSize_ == 0){
 80021ae:	687b      	ldr	r3, [r7, #4]
 80021b0:	881b      	ldrh	r3, [r3, #0]
 80021b2:	3b01      	subs	r3, #1
 80021b4:	b29a      	uxth	r2, r3
 80021b6:	687b      	ldr	r3, [r7, #4]
 80021b8:	801a      	strh	r2, [r3, #0]
 80021ba:	687b      	ldr	r3, [r7, #4]
 80021bc:	881b      	ldrh	r3, [r3, #0]
 80021be:	2b00      	cmp	r3, #0
 80021c0:	bf0c      	ite	eq
 80021c2:	2301      	moveq	r3, #1
 80021c4:	2300      	movne	r3, #0
 80021c6:	b2db      	uxtb	r3, r3
 80021c8:	2b00      	cmp	r3, #0
 80021ca:	d003      	beq.n	80021d4 <_ZN11circ_bufferI7IMUDataLm16EtE4readEPS0_+0x6c>
                mEmpty_ = true;
 80021cc:	687b      	ldr	r3, [r7, #4]
 80021ce:	2201      	movs	r2, #1
 80021d0:	f883 21c9 	strb.w	r2, [r3, #457]	; 0x1c9
            }

            if(++mTail_ == sCapacity_){
 80021d4:	687b      	ldr	r3, [r7, #4]
 80021d6:	f8b3 31c6 	ldrh.w	r3, [r3, #454]	; 0x1c6
 80021da:	3301      	adds	r3, #1
 80021dc:	b29a      	uxth	r2, r3
 80021de:	687b      	ldr	r3, [r7, #4]
 80021e0:	f8a3 21c6 	strh.w	r2, [r3, #454]	; 0x1c6
 80021e4:	687b      	ldr	r3, [r7, #4]
 80021e6:	f8b3 31c6 	ldrh.w	r3, [r3, #454]	; 0x1c6
 80021ea:	2b10      	cmp	r3, #16
 80021ec:	bf0c      	ite	eq
 80021ee:	2301      	moveq	r3, #1
 80021f0:	2300      	movne	r3, #0
 80021f2:	b2db      	uxtb	r3, r3
 80021f4:	2b00      	cmp	r3, #0
 80021f6:	d003      	beq.n	8002200 <_ZN11circ_bufferI7IMUDataLm16EtE4readEPS0_+0x98>
                mTail_ = 0;
 80021f8:	687b      	ldr	r3, [r7, #4]
 80021fa:	2200      	movs	r2, #0
 80021fc:	f8a3 21c6 	strh.w	r2, [r3, #454]	; 0x1c6
            } 

            return EXIT_OK;
 8002200:	2301      	movs	r3, #1
        }
 8002202:	4618      	mov	r0, r3
 8002204:	370c      	adds	r7, #12
 8002206:	46bd      	mov	sp, r7
 8002208:	bcb0      	pop	{r4, r5, r7}
 800220a:	4770      	bx	lr

0800220c <_ZNSt5tupleIJN8ICM426888icm42688EEEC1EOS2_>:
	noexcept(__nothrow_constructible<_UElements...>())
	: _Inherited(std::forward<_UElements>(__elements)...) {	}

      constexpr tuple(const tuple&) = default;

      constexpr tuple(tuple&&) = default;
 800220c:	b580      	push	{r7, lr}
 800220e:	b082      	sub	sp, #8
 8002210:	af00      	add	r7, sp, #0
 8002212:	6078      	str	r0, [r7, #4]
 8002214:	6039      	str	r1, [r7, #0]
 8002216:	687b      	ldr	r3, [r7, #4]
 8002218:	683a      	ldr	r2, [r7, #0]
 800221a:	4611      	mov	r1, r2
 800221c:	4618      	mov	r0, r3
 800221e:	f000 fa33 	bl	8002688 <_ZNSt11_Tuple_implILj0EJN8ICM426888icm42688EEEC1EOS2_>
 8002222:	687b      	ldr	r3, [r7, #4]
 8002224:	4618      	mov	r0, r3
 8002226:	3708      	adds	r7, #8
 8002228:	46bd      	mov	sp, r7
 800222a:	bd80      	pop	{r7, pc}

0800222c <_ZNSt5_BindIFMN8ICM426888icm42688EF7iIMU_STvES1_EEC1EOS6_>:
	_Bind(_Functor&& __f, _Args&&... __args)
	: _M_f(std::move(__f)), _M_bound_args(std::forward<_Args>(__args)...)
	{ }

      _Bind(const _Bind&) = default;
      _Bind(_Bind&&) = default;
 800222c:	b580      	push	{r7, lr}
 800222e:	b082      	sub	sp, #8
 8002230:	af00      	add	r7, sp, #0
 8002232:	6078      	str	r0, [r7, #4]
 8002234:	6039      	str	r1, [r7, #0]
 8002236:	687b      	ldr	r3, [r7, #4]
 8002238:	683a      	ldr	r2, [r7, #0]
 800223a:	e892 0003 	ldmia.w	r2, {r0, r1}
 800223e:	e883 0003 	stmia.w	r3, {r0, r1}
 8002242:	687b      	ldr	r3, [r7, #4]
 8002244:	f103 0208 	add.w	r2, r3, #8
 8002248:	683b      	ldr	r3, [r7, #0]
 800224a:	3308      	adds	r3, #8
 800224c:	4619      	mov	r1, r3
 800224e:	4610      	mov	r0, r2
 8002250:	f7ff ffdc 	bl	800220c <_ZNSt5tupleIJN8ICM426888icm42688EEEC1EOS2_>
 8002254:	687b      	ldr	r3, [r7, #4]
 8002256:	4618      	mov	r0, r3
 8002258:	3708      	adds	r7, #8
 800225a:	46bd      	mov	sp, r7
 800225c:	bd80      	pop	{r7, pc}

0800225e <_ZSt4bindIMN8ICM426888icm42688EF7iIMU_STvEJRS1_EENSt12_Bind_helperIXsrSt5__or_IJSt11is_integralINSt5decayIT_E4typeEESt7is_enumISC_EEE5valueESA_JDpT0_EE4typeEOSA_DpOSH_>:
   *  @ingroup binders
   */
  template<typename _Func, typename... _BoundArgs>
    inline _GLIBCXX20_CONSTEXPR typename
    _Bind_helper<__is_socketlike<_Func>::value, _Func, _BoundArgs...>::type
    bind(_Func&& __f, _BoundArgs&&... __args)
 800225e:	b590      	push	{r4, r7, lr}
 8002260:	b085      	sub	sp, #20
 8002262:	af00      	add	r7, sp, #0
 8002264:	60f8      	str	r0, [r7, #12]
 8002266:	60b9      	str	r1, [r7, #8]
 8002268:	607a      	str	r2, [r7, #4]
    {
      typedef _Bind_helper<false, _Func, _BoundArgs...> __helper_type;
      return typename __helper_type::type(std::forward<_Func>(__f),
					  std::forward<_BoundArgs>(__args)...);
 800226a:	68b8      	ldr	r0, [r7, #8]
 800226c:	f000 f9d7 	bl	800261e <_ZSt7forwardIMN8ICM426888icm42688EF7iIMU_STvEEOT_RNSt16remove_referenceIS5_E4typeE>
 8002270:	4604      	mov	r4, r0
 8002272:	6878      	ldr	r0, [r7, #4]
 8002274:	f000 f9de 	bl	8002634 <_ZSt7forwardIRN8ICM426888icm42688EEOT_RNSt16remove_referenceIS3_E4typeE>
 8002278:	4603      	mov	r3, r0
 800227a:	461a      	mov	r2, r3
 800227c:	4621      	mov	r1, r4
 800227e:	68f8      	ldr	r0, [r7, #12]
 8002280:	f000 f9e3 	bl	800264a <_ZNSt5_BindIFMN8ICM426888icm42688EF7iIMU_STvES1_EEC1IJRS1_EEEOS4_DpOT_>
    }
 8002284:	68f8      	ldr	r0, [r7, #12]
 8002286:	3714      	adds	r7, #20
 8002288:	46bd      	mov	sp, r7
 800228a:	bd90      	pop	{r4, r7, pc}

0800228c <_ZNSt8functionIFvvEED1Ev>:
    class function<_Res(_ArgTypes...)>
 800228c:	b580      	push	{r7, lr}
 800228e:	b082      	sub	sp, #8
 8002290:	af00      	add	r7, sp, #0
 8002292:	6078      	str	r0, [r7, #4]
 8002294:	687b      	ldr	r3, [r7, #4]
 8002296:	4618      	mov	r0, r3
 8002298:	f7fe fce3 	bl	8000c62 <_ZNSt14_Function_baseD1Ev>
 800229c:	687b      	ldr	r3, [r7, #4]
 800229e:	4618      	mov	r0, r3
 80022a0:	3708      	adds	r7, #8
 80022a2:	46bd      	mov	sp, r7
 80022a4:	bd80      	pop	{r7, pc}

080022a6 <_ZNSt8functionIFvvEEaSISt5_BindIFMN8ICM426888icm42688EF7iIMU_STvES5_EEEENSt9enable_ifIXsrNS1_9_CallableIT_NSB_IXntsrSt7is_sameINSt9remove_cvINSt16remove_referenceISD_E4typeEE4typeES1_E5valueESt5decayISD_EE4type4typeESt15__invoke_resultIRSQ_JEEEE5valueERS1_E4typeEOSD_>:
       *  If @a __f is a non-NULL function pointer or an object of type @c
       *  reference_wrapper<F>, this function will not throw.
       */
      template<typename _Functor>
	_Requires<_Callable<_Functor>, function&>
	operator=(_Functor&& __f)
 80022a6:	b580      	push	{r7, lr}
 80022a8:	b086      	sub	sp, #24
 80022aa:	af00      	add	r7, sp, #0
 80022ac:	6078      	str	r0, [r7, #4]
 80022ae:	6039      	str	r1, [r7, #0]
	noexcept(_Handler<_Functor>::template _S_nothrow_init<_Functor>())
	{
	  function(std::forward<_Functor>(__f)).swap(*this);
 80022b0:	6838      	ldr	r0, [r7, #0]
 80022b2:	f000 f9f9 	bl	80026a8 <_ZSt7forwardISt5_BindIFMN8ICM426888icm42688EF7iIMU_STvES2_EEEOT_RNSt16remove_referenceIS8_E4typeE>
 80022b6:	4602      	mov	r2, r0
 80022b8:	f107 0308 	add.w	r3, r7, #8
 80022bc:	4611      	mov	r1, r2
 80022be:	4618      	mov	r0, r3
 80022c0:	f000 f9fe 	bl	80026c0 <_ZNSt8functionIFvvEEC1ISt5_BindIFMN8ICM426888icm42688EF7iIMU_STvES5_EEvEEOT_>
 80022c4:	f107 0308 	add.w	r3, r7, #8
 80022c8:	6879      	ldr	r1, [r7, #4]
 80022ca:	4618      	mov	r0, r3
 80022cc:	f000 fa28 	bl	8002720 <_ZNSt8functionIFvvEE4swapERS1_>
 80022d0:	f107 0308 	add.w	r3, r7, #8
 80022d4:	4618      	mov	r0, r3
 80022d6:	f7ff ffd9 	bl	800228c <_ZNSt8functionIFvvEED1Ev>
	  return *this;
 80022da:	687b      	ldr	r3, [r7, #4]
	}
 80022dc:	4618      	mov	r0, r3
 80022de:	3718      	adds	r7, #24
 80022e0:	46bd      	mov	sp, r7
 80022e2:	bd80      	pop	{r7, pc}

080022e4 <_ZN4iIMUC1EOS_>:
 80022e4:	b480      	push	{r7}
 80022e6:	b083      	sub	sp, #12
 80022e8:	af00      	add	r7, sp, #0
 80022ea:	6078      	str	r0, [r7, #4]
 80022ec:	6039      	str	r1, [r7, #0]
 80022ee:	4a05      	ldr	r2, [pc, #20]	; (8002304 <_ZN4iIMUC1EOS_+0x20>)
 80022f0:	687b      	ldr	r3, [r7, #4]
 80022f2:	601a      	str	r2, [r3, #0]
 80022f4:	687b      	ldr	r3, [r7, #4]
 80022f6:	4618      	mov	r0, r3
 80022f8:	370c      	adds	r7, #12
 80022fa:	46bd      	mov	sp, r7
 80022fc:	f85d 7b04 	ldr.w	r7, [sp], #4
 8002300:	4770      	bx	lr
 8002302:	bf00      	nop
 8002304:	08009834 	.word	0x08009834

08002308 <_ZN8ICM426888icm42688C1EOS0_>:
        uint8_t FIFO_CONFIG1 = 0x00;
        uint8_t FIFO_CONFIG2 = 0x00;
        uint8_t FIFO_CONFIG3 = 0x00;
    };

    class icm42688: public iIMU{
 8002308:	b5b0      	push	{r4, r5, r7, lr}
 800230a:	b082      	sub	sp, #8
 800230c:	af00      	add	r7, sp, #0
 800230e:	6078      	str	r0, [r7, #4]
 8002310:	6039      	str	r1, [r7, #0]
 8002312:	687b      	ldr	r3, [r7, #4]
 8002314:	683a      	ldr	r2, [r7, #0]
 8002316:	4611      	mov	r1, r2
 8002318:	4618      	mov	r0, r3
 800231a:	f7ff ffe3 	bl	80022e4 <_ZN4iIMUC1EOS_>
 800231e:	4a46      	ldr	r2, [pc, #280]	; (8002438 <_ZN8ICM426888icm42688C1EOS0_+0x130>)
 8002320:	687b      	ldr	r3, [r7, #4]
 8002322:	601a      	str	r2, [r3, #0]
 8002324:	687a      	ldr	r2, [r7, #4]
 8002326:	683b      	ldr	r3, [r7, #0]
 8002328:	1d10      	adds	r0, r2, #4
 800232a:	3304      	adds	r3, #4
 800232c:	f44f 72e6 	mov.w	r2, #460	; 0x1cc
 8002330:	4619      	mov	r1, r3
 8002332:	f007 f9df 	bl	80096f4 <memcpy>
 8002336:	687a      	ldr	r2, [r7, #4]
 8002338:	683b      	ldr	r3, [r7, #0]
 800233a:	f502 74e8 	add.w	r4, r2, #464	; 0x1d0
 800233e:	f503 75e8 	add.w	r5, r3, #464	; 0x1d0
 8002342:	cd0f      	ldmia	r5!, {r0, r1, r2, r3}
 8002344:	c40f      	stmia	r4!, {r0, r1, r2, r3}
 8002346:	cd0f      	ldmia	r5!, {r0, r1, r2, r3}
 8002348:	c40f      	stmia	r4!, {r0, r1, r2, r3}
 800234a:	e895 0003 	ldmia.w	r5, {r0, r1}
 800234e:	e884 0003 	stmia.w	r4, {r0, r1}
 8002352:	687a      	ldr	r2, [r7, #4]
 8002354:	683b      	ldr	r3, [r7, #0]
 8002356:	f502 74fc 	add.w	r4, r2, #504	; 0x1f8
 800235a:	f503 75fc 	add.w	r5, r3, #504	; 0x1f8
 800235e:	cd0f      	ldmia	r5!, {r0, r1, r2, r3}
 8002360:	c40f      	stmia	r4!, {r0, r1, r2, r3}
 8002362:	e895 000f 	ldmia.w	r5, {r0, r1, r2, r3}
 8002366:	e884 000f 	stmia.w	r4, {r0, r1, r2, r3}
 800236a:	687a      	ldr	r2, [r7, #4]
 800236c:	683b      	ldr	r3, [r7, #0]
 800236e:	f502 7406 	add.w	r4, r2, #536	; 0x218
 8002372:	f503 7506 	add.w	r5, r3, #536	; 0x218
 8002376:	cd0f      	ldmia	r5!, {r0, r1, r2, r3}
 8002378:	c40f      	stmia	r4!, {r0, r1, r2, r3}
 800237a:	e895 000f 	ldmia.w	r5, {r0, r1, r2, r3}
 800237e:	e884 000f 	stmia.w	r4, {r0, r1, r2, r3}
 8002382:	687b      	ldr	r3, [r7, #4]
 8002384:	683a      	ldr	r2, [r7, #0]
 8002386:	f503 730e 	add.w	r3, r3, #568	; 0x238
 800238a:	f502 720e 	add.w	r2, r2, #568	; 0x238
 800238e:	e892 0003 	ldmia.w	r2, {r0, r1}
 8002392:	6018      	str	r0, [r3, #0]
 8002394:	3304      	adds	r3, #4
 8002396:	8019      	strh	r1, [r3, #0]
 8002398:	3302      	adds	r3, #2
 800239a:	0c0a      	lsrs	r2, r1, #16
 800239c:	701a      	strb	r2, [r3, #0]
 800239e:	683b      	ldr	r3, [r7, #0]
 80023a0:	f8d3 2240 	ldr.w	r2, [r3, #576]	; 0x240
 80023a4:	687b      	ldr	r3, [r7, #4]
 80023a6:	f8c3 2240 	str.w	r2, [r3, #576]	; 0x240
 80023aa:	683b      	ldr	r3, [r7, #0]
 80023ac:	f8d3 2244 	ldr.w	r2, [r3, #580]	; 0x244
 80023b0:	687b      	ldr	r3, [r7, #4]
 80023b2:	f8c3 2244 	str.w	r2, [r3, #580]	; 0x244
 80023b6:	683b      	ldr	r3, [r7, #0]
 80023b8:	f893 2248 	ldrb.w	r2, [r3, #584]	; 0x248
 80023bc:	687b      	ldr	r3, [r7, #4]
 80023be:	f883 2248 	strb.w	r2, [r3, #584]	; 0x248
 80023c2:	683b      	ldr	r3, [r7, #0]
 80023c4:	f893 2249 	ldrb.w	r2, [r3, #585]	; 0x249
 80023c8:	687b      	ldr	r3, [r7, #4]
 80023ca:	f883 2249 	strb.w	r2, [r3, #585]	; 0x249
 80023ce:	683b      	ldr	r3, [r7, #0]
 80023d0:	f8d3 224c 	ldr.w	r2, [r3, #588]	; 0x24c
 80023d4:	687b      	ldr	r3, [r7, #4]
 80023d6:	f8c3 224c 	str.w	r2, [r3, #588]	; 0x24c
 80023da:	683b      	ldr	r3, [r7, #0]
 80023dc:	f8d3 2250 	ldr.w	r2, [r3, #592]	; 0x250
 80023e0:	687b      	ldr	r3, [r7, #4]
 80023e2:	f8c3 2250 	str.w	r2, [r3, #592]	; 0x250
 80023e6:	683b      	ldr	r3, [r7, #0]
 80023e8:	f8d3 2254 	ldr.w	r2, [r3, #596]	; 0x254
 80023ec:	687b      	ldr	r3, [r7, #4]
 80023ee:	f8c3 2254 	str.w	r2, [r3, #596]	; 0x254
 80023f2:	683b      	ldr	r3, [r7, #0]
 80023f4:	f8d3 2258 	ldr.w	r2, [r3, #600]	; 0x258
 80023f8:	687b      	ldr	r3, [r7, #4]
 80023fa:	f8c3 2258 	str.w	r2, [r3, #600]	; 0x258
 80023fe:	683b      	ldr	r3, [r7, #0]
 8002400:	f8d3 225c 	ldr.w	r2, [r3, #604]	; 0x25c
 8002404:	687b      	ldr	r3, [r7, #4]
 8002406:	f8c3 225c 	str.w	r2, [r3, #604]	; 0x25c
 800240a:	683b      	ldr	r3, [r7, #0]
 800240c:	f8d3 2260 	ldr.w	r2, [r3, #608]	; 0x260
 8002410:	687b      	ldr	r3, [r7, #4]
 8002412:	f8c3 2260 	str.w	r2, [r3, #608]	; 0x260
 8002416:	683b      	ldr	r3, [r7, #0]
 8002418:	f8d3 2264 	ldr.w	r2, [r3, #612]	; 0x264
 800241c:	687b      	ldr	r3, [r7, #4]
 800241e:	f8c3 2264 	str.w	r2, [r3, #612]	; 0x264
 8002422:	683b      	ldr	r3, [r7, #0]
 8002424:	f8d3 2268 	ldr.w	r2, [r3, #616]	; 0x268
 8002428:	687b      	ldr	r3, [r7, #4]
 800242a:	f8c3 2268 	str.w	r2, [r3, #616]	; 0x268
 800242e:	687b      	ldr	r3, [r7, #4]
 8002430:	4618      	mov	r0, r3
 8002432:	3708      	adds	r7, #8
 8002434:	46bd      	mov	sp, r7
 8002436:	bdb0      	pop	{r4, r5, r7, pc}
 8002438:	080097e4 	.word	0x080097e4

0800243c <_ZNSt10_Head_baseILj0EN8ICM426888icm42688ELb0EEC1EOS2_>:
      constexpr _Head_base(_Head_base&&) = default;
 800243c:	b580      	push	{r7, lr}
 800243e:	b082      	sub	sp, #8
 8002440:	af00      	add	r7, sp, #0
 8002442:	6078      	str	r0, [r7, #4]
 8002444:	6039      	str	r1, [r7, #0]
 8002446:	687b      	ldr	r3, [r7, #4]
 8002448:	683a      	ldr	r2, [r7, #0]
 800244a:	4611      	mov	r1, r2
 800244c:	4618      	mov	r0, r3
 800244e:	f7ff ff5b 	bl	8002308 <_ZN8ICM426888icm42688C1EOS0_>
 8002452:	687b      	ldr	r3, [r7, #4]
 8002454:	4618      	mov	r0, r3
 8002456:	3708      	adds	r7, #8
 8002458:	46bd      	mov	sp, r7
 800245a:	bd80      	pop	{r7, pc}

0800245c <_ZNSt11_Tuple_implILj0EJN8ICM426888icm42688EtEEC1EOS2_>:
      _Tuple_impl(_Tuple_impl&&) = default;
 800245c:	b580      	push	{r7, lr}
 800245e:	b082      	sub	sp, #8
 8002460:	af00      	add	r7, sp, #0
 8002462:	6078      	str	r0, [r7, #4]
 8002464:	6039      	str	r1, [r7, #0]
 8002466:	687b      	ldr	r3, [r7, #4]
 8002468:	683a      	ldr	r2, [r7, #0]
 800246a:	4611      	mov	r1, r2
 800246c:	4618      	mov	r0, r3
 800246e:	f000 f9b3 	bl	80027d8 <_ZNSt11_Tuple_implILj1EJtEEC1EOS0_>
 8002472:	687b      	ldr	r3, [r7, #4]
 8002474:	1d1a      	adds	r2, r3, #4
 8002476:	683b      	ldr	r3, [r7, #0]
 8002478:	3304      	adds	r3, #4
 800247a:	4619      	mov	r1, r3
 800247c:	4610      	mov	r0, r2
 800247e:	f7ff ffdd 	bl	800243c <_ZNSt10_Head_baseILj0EN8ICM426888icm42688ELb0EEC1EOS2_>
 8002482:	687b      	ldr	r3, [r7, #4]
 8002484:	4618      	mov	r0, r3
 8002486:	3708      	adds	r7, #8
 8002488:	46bd      	mov	sp, r7
 800248a:	bd80      	pop	{r7, pc}

0800248c <_ZNSt5tupleIJN8ICM426888icm42688EtEEC1EOS2_>:
	noexcept(__nothrow_constructible<_U1, _U2>())
	: _Inherited(std::forward<_U1>(__a1), std::forward<_U2>(__a2)) { }

      constexpr tuple(const tuple&) = default;

      constexpr tuple(tuple&&) = default;
 800248c:	b580      	push	{r7, lr}
 800248e:	b082      	sub	sp, #8
 8002490:	af00      	add	r7, sp, #0
 8002492:	6078      	str	r0, [r7, #4]
 8002494:	6039      	str	r1, [r7, #0]
 8002496:	687b      	ldr	r3, [r7, #4]
 8002498:	683a      	ldr	r2, [r7, #0]
 800249a:	4611      	mov	r1, r2
 800249c:	4618      	mov	r0, r3
 800249e:	f7ff ffdd 	bl	800245c <_ZNSt11_Tuple_implILj0EJN8ICM426888icm42688EtEEC1EOS2_>
 80024a2:	687b      	ldr	r3, [r7, #4]
 80024a4:	4618      	mov	r0, r3
 80024a6:	3708      	adds	r7, #8
 80024a8:	46bd      	mov	sp, r7
 80024aa:	bd80      	pop	{r7, pc}

080024ac <_ZNSt5_BindIFMN8ICM426888icm42688EF7iIMU_SThES1_tEEC1EOS6_>:
      _Bind(_Bind&&) = default;
 80024ac:	b580      	push	{r7, lr}
 80024ae:	b082      	sub	sp, #8
 80024b0:	af00      	add	r7, sp, #0
 80024b2:	6078      	str	r0, [r7, #4]
 80024b4:	6039      	str	r1, [r7, #0]
 80024b6:	687b      	ldr	r3, [r7, #4]
 80024b8:	683a      	ldr	r2, [r7, #0]
 80024ba:	e892 0003 	ldmia.w	r2, {r0, r1}
 80024be:	e883 0003 	stmia.w	r3, {r0, r1}
 80024c2:	687b      	ldr	r3, [r7, #4]
 80024c4:	f103 0208 	add.w	r2, r3, #8
 80024c8:	683b      	ldr	r3, [r7, #0]
 80024ca:	3308      	adds	r3, #8
 80024cc:	4619      	mov	r1, r3
 80024ce:	4610      	mov	r0, r2
 80024d0:	f7ff ffdc 	bl	800248c <_ZNSt5tupleIJN8ICM426888icm42688EtEEC1EOS2_>
 80024d4:	687b      	ldr	r3, [r7, #4]
 80024d6:	4618      	mov	r0, r3
 80024d8:	3708      	adds	r7, #8
 80024da:	46bd      	mov	sp, r7
 80024dc:	bd80      	pop	{r7, pc}

080024de <_ZSt4bindIMN8ICM426888icm42688EF7iIMU_SThEJRS1_RtEENSt12_Bind_helperIXsrSt5__or_IJSt11is_integralINSt5decayIT_E4typeEESt7is_enumISD_EEE5valueESB_JDpT0_EE4typeEOSB_DpOSI_>:
    bind(_Func&& __f, _BoundArgs&&... __args)
 80024de:	b5b0      	push	{r4, r5, r7, lr}
 80024e0:	b084      	sub	sp, #16
 80024e2:	af00      	add	r7, sp, #0
 80024e4:	60f8      	str	r0, [r7, #12]
 80024e6:	60b9      	str	r1, [r7, #8]
 80024e8:	607a      	str	r2, [r7, #4]
 80024ea:	603b      	str	r3, [r7, #0]
					  std::forward<_BoundArgs>(__args)...);
 80024ec:	68b8      	ldr	r0, [r7, #8]
 80024ee:	f000 f938 	bl	8002762 <_ZSt7forwardIMN8ICM426888icm42688EF7iIMU_SThEEOT_RNSt16remove_referenceIS5_E4typeE>
 80024f2:	4604      	mov	r4, r0
 80024f4:	6878      	ldr	r0, [r7, #4]
 80024f6:	f000 f89d 	bl	8002634 <_ZSt7forwardIRN8ICM426888icm42688EEOT_RNSt16remove_referenceIS3_E4typeE>
 80024fa:	4605      	mov	r5, r0
 80024fc:	6838      	ldr	r0, [r7, #0]
 80024fe:	f000 f93b 	bl	8002778 <_ZSt7forwardIRtEOT_RNSt16remove_referenceIS1_E4typeE>
 8002502:	4603      	mov	r3, r0
 8002504:	462a      	mov	r2, r5
 8002506:	4621      	mov	r1, r4
 8002508:	68f8      	ldr	r0, [r7, #12]
 800250a:	f000 f940 	bl	800278e <_ZNSt5_BindIFMN8ICM426888icm42688EF7iIMU_SThES1_tEEC1IJRS1_RtEEEOS4_DpOT_>
    }
 800250e:	68f8      	ldr	r0, [r7, #12]
 8002510:	3710      	adds	r7, #16
 8002512:	46bd      	mov	sp, r7
 8002514:	bdb0      	pop	{r4, r5, r7, pc}

08002516 <_ZNSt8functionIFvvEEaSISt5_BindIFMN8ICM426888icm42688EF7iIMU_SThES5_tEEEENSt9enable_ifIXsrNS1_9_CallableIT_NSB_IXntsrSt7is_sameINSt9remove_cvINSt16remove_referenceISD_E4typeEE4typeES1_E5valueESt5decayISD_EE4type4typeESt15__invoke_resultIRSQ_JEEEE5valueERS1_E4typeEOSD_>:
	operator=(_Functor&& __f)
 8002516:	b580      	push	{r7, lr}
 8002518:	b086      	sub	sp, #24
 800251a:	af00      	add	r7, sp, #0
 800251c:	6078      	str	r0, [r7, #4]
 800251e:	6039      	str	r1, [r7, #0]
	  function(std::forward<_Functor>(__f)).swap(*this);
 8002520:	6838      	ldr	r0, [r7, #0]
 8002522:	f000 f969 	bl	80027f8 <_ZSt7forwardISt5_BindIFMN8ICM426888icm42688EF7iIMU_SThES2_tEEEOT_RNSt16remove_referenceIS8_E4typeE>
 8002526:	4602      	mov	r2, r0
 8002528:	f107 0308 	add.w	r3, r7, #8
 800252c:	4611      	mov	r1, r2
 800252e:	4618      	mov	r0, r3
 8002530:	f000 f96e 	bl	8002810 <_ZNSt8functionIFvvEEC1ISt5_BindIFMN8ICM426888icm42688EF7iIMU_SThES5_tEEvEEOT_>
 8002534:	f107 0308 	add.w	r3, r7, #8
 8002538:	6879      	ldr	r1, [r7, #4]
 800253a:	4618      	mov	r0, r3
 800253c:	f000 f8f0 	bl	8002720 <_ZNSt8functionIFvvEE4swapERS1_>
 8002540:	f107 0308 	add.w	r3, r7, #8
 8002544:	4618      	mov	r0, r3
 8002546:	f7ff fea1 	bl	800228c <_ZNSt8functionIFvvEED1Ev>
	  return *this;
 800254a:	687b      	ldr	r3, [r7, #4]
	}
 800254c:	4618      	mov	r0, r3
 800254e:	3718      	adds	r7, #24
 8002550:	46bd      	mov	sp, r7
 8002552:	bd80      	pop	{r7, pc}

08002554 <_ZN11circ_bufferI7IMUDataLm16EtE5writeES0_>:
        bool circ_buffer<bufferDataType, bufferSize, sizeDataType>::write(bufferDataType data)
 8002554:	b084      	sub	sp, #16
 8002556:	b4b0      	push	{r4, r5, r7}
 8002558:	b083      	sub	sp, #12
 800255a:	af00      	add	r7, sp, #0
 800255c:	6078      	str	r0, [r7, #4]
 800255e:	f107 001c 	add.w	r0, r7, #28
 8002562:	e880 000e 	stmia.w	r0, {r1, r2, r3}
            mBuffer_[mHead_] = data;
 8002566:	687b      	ldr	r3, [r7, #4]
 8002568:	f8b3 31c4 	ldrh.w	r3, [r3, #452]	; 0x1c4
 800256c:	4619      	mov	r1, r3
 800256e:	687a      	ldr	r2, [r7, #4]
 8002570:	460b      	mov	r3, r1
 8002572:	00db      	lsls	r3, r3, #3
 8002574:	1a5b      	subs	r3, r3, r1
 8002576:	009b      	lsls	r3, r3, #2
 8002578:	4413      	add	r3, r2
 800257a:	1d1c      	adds	r4, r3, #4
 800257c:	f107 051c 	add.w	r5, r7, #28
 8002580:	cd0f      	ldmia	r5!, {r0, r1, r2, r3}
 8002582:	c40f      	stmia	r4!, {r0, r1, r2, r3}
 8002584:	e895 0007 	ldmia.w	r5, {r0, r1, r2}
 8002588:	e884 0007 	stmia.w	r4, {r0, r1, r2}
            mEmpty_ = false;
 800258c:	687b      	ldr	r3, [r7, #4]
 800258e:	2200      	movs	r2, #0
 8002590:	f883 21c9 	strb.w	r2, [r3, #457]	; 0x1c9
            if(++mHead_ == sCapacity_){
 8002594:	687b      	ldr	r3, [r7, #4]
 8002596:	f8b3 31c4 	ldrh.w	r3, [r3, #452]	; 0x1c4
 800259a:	3301      	adds	r3, #1
 800259c:	b29a      	uxth	r2, r3
 800259e:	687b      	ldr	r3, [r7, #4]
 80025a0:	f8a3 21c4 	strh.w	r2, [r3, #452]	; 0x1c4
 80025a4:	687b      	ldr	r3, [r7, #4]
 80025a6:	f8b3 31c4 	ldrh.w	r3, [r3, #452]	; 0x1c4
 80025aa:	2b10      	cmp	r3, #16
 80025ac:	bf0c      	ite	eq
 80025ae:	2301      	moveq	r3, #1
 80025b0:	2300      	movne	r3, #0
 80025b2:	b2db      	uxtb	r3, r3
 80025b4:	2b00      	cmp	r3, #0
 80025b6:	d003      	beq.n	80025c0 <_ZN11circ_bufferI7IMUDataLm16EtE5writeES0_+0x6c>
                mHead_ = 0;
 80025b8:	687b      	ldr	r3, [r7, #4]
 80025ba:	2200      	movs	r2, #0
 80025bc:	f8a3 21c4 	strh.w	r2, [r3, #452]	; 0x1c4
            if(mFull_ == true){
 80025c0:	687b      	ldr	r3, [r7, #4]
 80025c2:	f893 31c8 	ldrb.w	r3, [r3, #456]	; 0x1c8
 80025c6:	2b01      	cmp	r3, #1
 80025c8:	d10f      	bne.n	80025ea <_ZN11circ_bufferI7IMUDataLm16EtE5writeES0_+0x96>
                mTail_ = mTail_ + 1 == sCapacity_ ? 0 : mTail_ + 1; // mTail_ = ++mTail_ == sCapacity_ ? 0 : mTail_;
 80025ca:	687b      	ldr	r3, [r7, #4]
 80025cc:	f8b3 31c6 	ldrh.w	r3, [r3, #454]	; 0x1c6
 80025d0:	2b0f      	cmp	r3, #15
 80025d2:	d005      	beq.n	80025e0 <_ZN11circ_bufferI7IMUDataLm16EtE5writeES0_+0x8c>
 80025d4:	687b      	ldr	r3, [r7, #4]
 80025d6:	f8b3 31c6 	ldrh.w	r3, [r3, #454]	; 0x1c6
 80025da:	3301      	adds	r3, #1
 80025dc:	b29a      	uxth	r2, r3
 80025de:	e000      	b.n	80025e2 <_ZN11circ_bufferI7IMUDataLm16EtE5writeES0_+0x8e>
 80025e0:	2200      	movs	r2, #0
 80025e2:	687b      	ldr	r3, [r7, #4]
 80025e4:	f8a3 21c6 	strh.w	r2, [r3, #454]	; 0x1c6
 80025e8:	e012      	b.n	8002610 <_ZN11circ_bufferI7IMUDataLm16EtE5writeES0_+0xbc>
            }else if(++mSize_ == sCapacity_){
 80025ea:	687b      	ldr	r3, [r7, #4]
 80025ec:	881b      	ldrh	r3, [r3, #0]
 80025ee:	3301      	adds	r3, #1
 80025f0:	b29a      	uxth	r2, r3
 80025f2:	687b      	ldr	r3, [r7, #4]
 80025f4:	801a      	strh	r2, [r3, #0]
 80025f6:	687b      	ldr	r3, [r7, #4]
 80025f8:	881b      	ldrh	r3, [r3, #0]
 80025fa:	2b10      	cmp	r3, #16
 80025fc:	bf0c      	ite	eq
 80025fe:	2301      	moveq	r3, #1
 8002600:	2300      	movne	r3, #0
 8002602:	b2db      	uxtb	r3, r3
 8002604:	2b00      	cmp	r3, #0
 8002606:	d003      	beq.n	8002610 <_ZN11circ_bufferI7IMUDataLm16EtE5writeES0_+0xbc>
                mFull_ = true;
 8002608:	687b      	ldr	r3, [r7, #4]
 800260a:	2201      	movs	r2, #1
 800260c:	f883 21c8 	strb.w	r2, [r3, #456]	; 0x1c8
            return EXIT_OK;
 8002610:	2301      	movs	r3, #1
        }
 8002612:	4618      	mov	r0, r3
 8002614:	370c      	adds	r7, #12
 8002616:	46bd      	mov	sp, r7
 8002618:	bcb0      	pop	{r4, r5, r7}
 800261a:	b004      	add	sp, #16
 800261c:	4770      	bx	lr

0800261e <_ZSt7forwardIMN8ICM426888icm42688EF7iIMU_STvEEOT_RNSt16remove_referenceIS5_E4typeE>:
   *  This function is used to implement "perfect forwarding".
   */
  template<typename _Tp>
    _GLIBCXX_NODISCARD
    constexpr _Tp&&
    forward(typename std::remove_reference<_Tp>::type& __t) noexcept
 800261e:	b480      	push	{r7}
 8002620:	b083      	sub	sp, #12
 8002622:	af00      	add	r7, sp, #0
 8002624:	6078      	str	r0, [r7, #4]
    { return static_cast<_Tp&&>(__t); }
 8002626:	687b      	ldr	r3, [r7, #4]
 8002628:	4618      	mov	r0, r3
 800262a:	370c      	adds	r7, #12
 800262c:	46bd      	mov	sp, r7
 800262e:	f85d 7b04 	ldr.w	r7, [sp], #4
 8002632:	4770      	bx	lr

08002634 <_ZSt7forwardIRN8ICM426888icm42688EEOT_RNSt16remove_referenceIS3_E4typeE>:
    forward(typename std::remove_reference<_Tp>::type& __t) noexcept
 8002634:	b480      	push	{r7}
 8002636:	b083      	sub	sp, #12
 8002638:	af00      	add	r7, sp, #0
 800263a:	6078      	str	r0, [r7, #4]
    { return static_cast<_Tp&&>(__t); }
 800263c:	687b      	ldr	r3, [r7, #4]
 800263e:	4618      	mov	r0, r3
 8002640:	370c      	adds	r7, #12
 8002642:	46bd      	mov	sp, r7
 8002644:	f85d 7b04 	ldr.w	r7, [sp], #4
 8002648:	4770      	bx	lr

0800264a <_ZNSt5_BindIFMN8ICM426888icm42688EF7iIMU_STvES1_EEC1IJRS1_EEEOS4_DpOT_>:
	_Bind(_Functor&& __f, _Args&&... __args)
 800264a:	b590      	push	{r4, r7, lr}
 800264c:	b085      	sub	sp, #20
 800264e:	af00      	add	r7, sp, #0
 8002650:	60f8      	str	r0, [r7, #12]
 8002652:	60b9      	str	r1, [r7, #8]
 8002654:	607a      	str	r2, [r7, #4]
	: _M_f(std::move(__f)), _M_bound_args(std::forward<_Args>(__args)...)
 8002656:	68b8      	ldr	r0, [r7, #8]
 8002658:	f000 f90a 	bl	8002870 <_ZSt4moveIRMN8ICM426888icm42688EF7iIMU_STvEEONSt16remove_referenceIT_E4typeEOS7_>
 800265c:	4602      	mov	r2, r0
 800265e:	68fb      	ldr	r3, [r7, #12]
 8002660:	e892 0003 	ldmia.w	r2, {r0, r1}
 8002664:	e883 0003 	stmia.w	r3, {r0, r1}
 8002668:	68fb      	ldr	r3, [r7, #12]
 800266a:	f103 0408 	add.w	r4, r3, #8
 800266e:	6878      	ldr	r0, [r7, #4]
 8002670:	f7ff ffe0 	bl	8002634 <_ZSt7forwardIRN8ICM426888icm42688EEOT_RNSt16remove_referenceIS3_E4typeE>
 8002674:	4603      	mov	r3, r0
 8002676:	4619      	mov	r1, r3
 8002678:	4620      	mov	r0, r4
 800267a:	f000 f904 	bl	8002886 <_ZNSt5tupleIJN8ICM426888icm42688EEEC1IJRS1_ELb1ELb1EEEDpOT_>
	{ }
 800267e:	68fb      	ldr	r3, [r7, #12]
 8002680:	4618      	mov	r0, r3
 8002682:	3714      	adds	r7, #20
 8002684:	46bd      	mov	sp, r7
 8002686:	bd90      	pop	{r4, r7, pc}

08002688 <_ZNSt11_Tuple_implILj0EJN8ICM426888icm42688EEEC1EOS2_>:
      _Tuple_impl(_Tuple_impl&& __in)
 8002688:	b580      	push	{r7, lr}
 800268a:	b082      	sub	sp, #8
 800268c:	af00      	add	r7, sp, #0
 800268e:	6078      	str	r0, [r7, #4]
 8002690:	6039      	str	r1, [r7, #0]
      : _Base(static_cast<_Base&&>(__in))
 8002692:	687b      	ldr	r3, [r7, #4]
 8002694:	683a      	ldr	r2, [r7, #0]
 8002696:	4611      	mov	r1, r2
 8002698:	4618      	mov	r0, r3
 800269a:	f7ff fecf 	bl	800243c <_ZNSt10_Head_baseILj0EN8ICM426888icm42688ELb0EEC1EOS2_>
      { }
 800269e:	687b      	ldr	r3, [r7, #4]
 80026a0:	4618      	mov	r0, r3
 80026a2:	3708      	adds	r7, #8
 80026a4:	46bd      	mov	sp, r7
 80026a6:	bd80      	pop	{r7, pc}

080026a8 <_ZSt7forwardISt5_BindIFMN8ICM426888icm42688EF7iIMU_STvES2_EEEOT_RNSt16remove_referenceIS8_E4typeE>:
    forward(typename std::remove_reference<_Tp>::type& __t) noexcept
 80026a8:	b480      	push	{r7}
 80026aa:	b083      	sub	sp, #12
 80026ac:	af00      	add	r7, sp, #0
 80026ae:	6078      	str	r0, [r7, #4]
    { return static_cast<_Tp&&>(__t); }
 80026b0:	687b      	ldr	r3, [r7, #4]
 80026b2:	4618      	mov	r0, r3
 80026b4:	370c      	adds	r7, #12
 80026b6:	46bd      	mov	sp, r7
 80026b8:	f85d 7b04 	ldr.w	r7, [sp], #4
 80026bc:	4770      	bx	lr
	...

080026c0 <_ZNSt8functionIFvvEEC1ISt5_BindIFMN8ICM426888icm42688EF7iIMU_STvES5_EEvEEOT_>:
	function(_Functor&& __f)
 80026c0:	b590      	push	{r4, r7, lr}
 80026c2:	b083      	sub	sp, #12
 80026c4:	af00      	add	r7, sp, #0
 80026c6:	6078      	str	r0, [r7, #4]
 80026c8:	6039      	str	r1, [r7, #0]
	: _Function_base()
 80026ca:	687b      	ldr	r3, [r7, #4]
 80026cc:	461a      	mov	r2, r3
 80026ce:	2300      	movs	r3, #0
 80026d0:	6013      	str	r3, [r2, #0]
 80026d2:	6053      	str	r3, [r2, #4]
 80026d4:	6093      	str	r3, [r2, #8]
 80026d6:	687b      	ldr	r3, [r7, #4]
 80026d8:	4618      	mov	r0, r3
 80026da:	f7fe fa83 	bl	8000be4 <_ZNSt14_Function_baseC1Ev>
 80026de:	687b      	ldr	r3, [r7, #4]
 80026e0:	2200      	movs	r2, #0
 80026e2:	60da      	str	r2, [r3, #12]
	  if (_My_handler::_M_not_empty_function(__f))
 80026e4:	6838      	ldr	r0, [r7, #0]
 80026e6:	f000 f8e1 	bl	80028ac <_ZNSt14_Function_base13_Base_managerISt5_BindIFMN8ICM426888icm42688EF7iIMU_STvES3_EEE21_M_not_empty_functionIS8_EEbRKT_>
 80026ea:	4603      	mov	r3, r0
 80026ec:	2b00      	cmp	r3, #0
 80026ee:	d00e      	beq.n	800270e <_ZNSt8functionIFvvEEC1ISt5_BindIFMN8ICM426888icm42688EF7iIMU_STvES5_EEvEEOT_+0x4e>
	      _My_handler::_M_init_functor(_M_functor,
 80026f0:	687c      	ldr	r4, [r7, #4]
 80026f2:	6838      	ldr	r0, [r7, #0]
 80026f4:	f7ff ffd8 	bl	80026a8 <_ZSt7forwardISt5_BindIFMN8ICM426888icm42688EF7iIMU_STvES2_EEEOT_RNSt16remove_referenceIS8_E4typeE>
 80026f8:	4603      	mov	r3, r0
 80026fa:	4619      	mov	r1, r3
 80026fc:	4620      	mov	r0, r4
 80026fe:	f000 f8e0 	bl	80028c2 <_ZNSt14_Function_base13_Base_managerISt5_BindIFMN8ICM426888icm42688EF7iIMU_STvES3_EEE15_M_init_functorIS8_EEvRSt9_Any_dataOT_>
	      _M_invoker = &_My_handler::_M_invoke;
 8002702:	687b      	ldr	r3, [r7, #4]
 8002704:	4a04      	ldr	r2, [pc, #16]	; (8002718 <_ZNSt8functionIFvvEEC1ISt5_BindIFMN8ICM426888icm42688EF7iIMU_STvES5_EEvEEOT_+0x58>)
 8002706:	60da      	str	r2, [r3, #12]
	      _M_manager = &_My_handler::_M_manager;
 8002708:	687b      	ldr	r3, [r7, #4]
 800270a:	4a04      	ldr	r2, [pc, #16]	; (800271c <_ZNSt8functionIFvvEEC1ISt5_BindIFMN8ICM426888icm42688EF7iIMU_STvES5_EEvEEOT_+0x5c>)
 800270c:	609a      	str	r2, [r3, #8]
	}
 800270e:	687b      	ldr	r3, [r7, #4]
 8002710:	4618      	mov	r0, r3
 8002712:	370c      	adds	r7, #12
 8002714:	46bd      	mov	sp, r7
 8002716:	bd90      	pop	{r4, r7, pc}
 8002718:	080028e7 	.word	0x080028e7
 800271c:	08002905 	.word	0x08002905

08002720 <_ZNSt8functionIFvvEE4swapERS1_>:
       *  @param __x A %function with identical call signature.
       *
       *  Swap the targets of @c this function object and @a __f. This
       *  function will not throw an %exception.
       */
      void swap(function& __x) noexcept
 8002720:	b580      	push	{r7, lr}
 8002722:	b082      	sub	sp, #8
 8002724:	af00      	add	r7, sp, #0
 8002726:	6078      	str	r0, [r7, #4]
 8002728:	6039      	str	r1, [r7, #0]
      {
	std::swap(_M_functor, __x._M_functor);
 800272a:	687b      	ldr	r3, [r7, #4]
 800272c:	683a      	ldr	r2, [r7, #0]
 800272e:	4611      	mov	r1, r2
 8002730:	4618      	mov	r0, r3
 8002732:	f000 f911 	bl	8002958 <_ZSt4swapISt9_Any_dataENSt9enable_ifIXsrSt6__and_IJSt6__not_ISt15__is_tuple_likeIT_EESt21is_move_constructibleIS5_ESt18is_move_assignableIS5_EEE5valueEvE4typeERS5_SF_>
	std::swap(_M_manager, __x._M_manager);
 8002736:	687b      	ldr	r3, [r7, #4]
 8002738:	f103 0208 	add.w	r2, r3, #8
 800273c:	683b      	ldr	r3, [r7, #0]
 800273e:	3308      	adds	r3, #8
 8002740:	4619      	mov	r1, r3
 8002742:	4610      	mov	r0, r2
 8002744:	f000 f93a 	bl	80029bc <_ZSt4swapIPFbRSt9_Any_dataRKS0_St18_Manager_operationEENSt9enable_ifIXsrSt6__and_IJSt6__not_ISt15__is_tuple_likeIT_EESt21is_move_constructibleISB_ESt18is_move_assignableISB_EEE5valueEvE4typeERSB_SL_>
	std::swap(_M_invoker, __x._M_invoker);
 8002748:	687b      	ldr	r3, [r7, #4]
 800274a:	f103 020c 	add.w	r2, r3, #12
 800274e:	683b      	ldr	r3, [r7, #0]
 8002750:	330c      	adds	r3, #12
 8002752:	4619      	mov	r1, r3
 8002754:	4610      	mov	r0, r2
 8002756:	f000 f95b 	bl	8002a10 <_ZSt4swapIPFvRKSt9_Any_dataEENSt9enable_ifIXsrSt6__and_IJSt6__not_ISt15__is_tuple_likeIT_EESt21is_move_constructibleIS9_ESt18is_move_assignableIS9_EEE5valueEvE4typeERS9_SJ_>
      }
 800275a:	bf00      	nop
 800275c:	3708      	adds	r7, #8
 800275e:	46bd      	mov	sp, r7
 8002760:	bd80      	pop	{r7, pc}

08002762 <_ZSt7forwardIMN8ICM426888icm42688EF7iIMU_SThEEOT_RNSt16remove_referenceIS5_E4typeE>:
    forward(typename std::remove_reference<_Tp>::type& __t) noexcept
 8002762:	b480      	push	{r7}
 8002764:	b083      	sub	sp, #12
 8002766:	af00      	add	r7, sp, #0
 8002768:	6078      	str	r0, [r7, #4]
    { return static_cast<_Tp&&>(__t); }
 800276a:	687b      	ldr	r3, [r7, #4]
 800276c:	4618      	mov	r0, r3
 800276e:	370c      	adds	r7, #12
 8002770:	46bd      	mov	sp, r7
 8002772:	f85d 7b04 	ldr.w	r7, [sp], #4
 8002776:	4770      	bx	lr

08002778 <_ZSt7forwardIRtEOT_RNSt16remove_referenceIS1_E4typeE>:
    forward(typename std::remove_reference<_Tp>::type& __t) noexcept
 8002778:	b480      	push	{r7}
 800277a:	b083      	sub	sp, #12
 800277c:	af00      	add	r7, sp, #0
 800277e:	6078      	str	r0, [r7, #4]
    { return static_cast<_Tp&&>(__t); }
 8002780:	687b      	ldr	r3, [r7, #4]
 8002782:	4618      	mov	r0, r3
 8002784:	370c      	adds	r7, #12
 8002786:	46bd      	mov	sp, r7
 8002788:	f85d 7b04 	ldr.w	r7, [sp], #4
 800278c:	4770      	bx	lr

0800278e <_ZNSt5_BindIFMN8ICM426888icm42688EF7iIMU_SThES1_tEEC1IJRS1_RtEEEOS4_DpOT_>:
	_Bind(_Functor&& __f, _Args&&... __args)
 800278e:	b5b0      	push	{r4, r5, r7, lr}
 8002790:	b084      	sub	sp, #16
 8002792:	af00      	add	r7, sp, #0
 8002794:	60f8      	str	r0, [r7, #12]
 8002796:	60b9      	str	r1, [r7, #8]
 8002798:	607a      	str	r2, [r7, #4]
 800279a:	603b      	str	r3, [r7, #0]
	: _M_f(std::move(__f)), _M_bound_args(std::forward<_Args>(__args)...)
 800279c:	68b8      	ldr	r0, [r7, #8]
 800279e:	f000 f956 	bl	8002a4e <_ZSt4moveIRMN8ICM426888icm42688EF7iIMU_SThEEONSt16remove_referenceIT_E4typeEOS7_>
 80027a2:	4602      	mov	r2, r0
 80027a4:	68fb      	ldr	r3, [r7, #12]
 80027a6:	e892 0003 	ldmia.w	r2, {r0, r1}
 80027aa:	e883 0003 	stmia.w	r3, {r0, r1}
 80027ae:	68fb      	ldr	r3, [r7, #12]
 80027b0:	f103 0408 	add.w	r4, r3, #8
 80027b4:	6878      	ldr	r0, [r7, #4]
 80027b6:	f7ff ff3d 	bl	8002634 <_ZSt7forwardIRN8ICM426888icm42688EEOT_RNSt16remove_referenceIS3_E4typeE>
 80027ba:	4605      	mov	r5, r0
 80027bc:	6838      	ldr	r0, [r7, #0]
 80027be:	f7ff ffdb 	bl	8002778 <_ZSt7forwardIRtEOT_RNSt16remove_referenceIS1_E4typeE>
 80027c2:	4603      	mov	r3, r0
 80027c4:	461a      	mov	r2, r3
 80027c6:	4629      	mov	r1, r5
 80027c8:	4620      	mov	r0, r4
 80027ca:	f000 f94b 	bl	8002a64 <_ZNSt5tupleIJN8ICM426888icm42688EtEEC1IRS1_RtLb1EEEOT_OT0_>
	{ }
 80027ce:	68fb      	ldr	r3, [r7, #12]
 80027d0:	4618      	mov	r0, r3
 80027d2:	3710      	adds	r7, #16
 80027d4:	46bd      	mov	sp, r7
 80027d6:	bdb0      	pop	{r4, r5, r7, pc}

080027d8 <_ZNSt11_Tuple_implILj1EJtEEC1EOS0_>:
      _Tuple_impl(_Tuple_impl&& __in)
 80027d8:	b480      	push	{r7}
 80027da:	b083      	sub	sp, #12
 80027dc:	af00      	add	r7, sp, #0
 80027de:	6078      	str	r0, [r7, #4]
 80027e0:	6039      	str	r1, [r7, #0]
      : _Base(static_cast<_Base&&>(__in))
 80027e2:	687b      	ldr	r3, [r7, #4]
 80027e4:	683a      	ldr	r2, [r7, #0]
 80027e6:	8812      	ldrh	r2, [r2, #0]
 80027e8:	801a      	strh	r2, [r3, #0]
      { }
 80027ea:	687b      	ldr	r3, [r7, #4]
 80027ec:	4618      	mov	r0, r3
 80027ee:	370c      	adds	r7, #12
 80027f0:	46bd      	mov	sp, r7
 80027f2:	f85d 7b04 	ldr.w	r7, [sp], #4
 80027f6:	4770      	bx	lr

080027f8 <_ZSt7forwardISt5_BindIFMN8ICM426888icm42688EF7iIMU_SThES2_tEEEOT_RNSt16remove_referenceIS8_E4typeE>:
    forward(typename std::remove_reference<_Tp>::type& __t) noexcept
 80027f8:	b480      	push	{r7}
 80027fa:	b083      	sub	sp, #12
 80027fc:	af00      	add	r7, sp, #0
 80027fe:	6078      	str	r0, [r7, #4]
    { return static_cast<_Tp&&>(__t); }
 8002800:	687b      	ldr	r3, [r7, #4]
 8002802:	4618      	mov	r0, r3
 8002804:	370c      	adds	r7, #12
 8002806:	46bd      	mov	sp, r7
 8002808:	f85d 7b04 	ldr.w	r7, [sp], #4
 800280c:	4770      	bx	lr
	...

08002810 <_ZNSt8functionIFvvEEC1ISt5_BindIFMN8ICM426888icm42688EF7iIMU_SThES5_tEEvEEOT_>:
	function(_Functor&& __f)
 8002810:	b590      	push	{r4, r7, lr}
 8002812:	b083      	sub	sp, #12
 8002814:	af00      	add	r7, sp, #0
 8002816:	6078      	str	r0, [r7, #4]
 8002818:	6039      	str	r1, [r7, #0]
	: _Function_base()
 800281a:	687b      	ldr	r3, [r7, #4]
 800281c:	461a      	mov	r2, r3
 800281e:	2300      	movs	r3, #0
 8002820:	6013      	str	r3, [r2, #0]
 8002822:	6053      	str	r3, [r2, #4]
 8002824:	6093      	str	r3, [r2, #8]
 8002826:	687b      	ldr	r3, [r7, #4]
 8002828:	4618      	mov	r0, r3
 800282a:	f7fe f9db 	bl	8000be4 <_ZNSt14_Function_baseC1Ev>
 800282e:	687b      	ldr	r3, [r7, #4]
 8002830:	2200      	movs	r2, #0
 8002832:	60da      	str	r2, [r3, #12]
	  if (_My_handler::_M_not_empty_function(__f))
 8002834:	6838      	ldr	r0, [r7, #0]
 8002836:	f000 f92e 	bl	8002a96 <_ZNSt14_Function_base13_Base_managerISt5_BindIFMN8ICM426888icm42688EF7iIMU_SThES3_tEEE21_M_not_empty_functionIS8_EEbRKT_>
 800283a:	4603      	mov	r3, r0
 800283c:	2b00      	cmp	r3, #0
 800283e:	d00e      	beq.n	800285e <_ZNSt8functionIFvvEEC1ISt5_BindIFMN8ICM426888icm42688EF7iIMU_SThES5_tEEvEEOT_+0x4e>
	      _My_handler::_M_init_functor(_M_functor,
 8002840:	687c      	ldr	r4, [r7, #4]
 8002842:	6838      	ldr	r0, [r7, #0]
 8002844:	f7ff ffd8 	bl	80027f8 <_ZSt7forwardISt5_BindIFMN8ICM426888icm42688EF7iIMU_SThES2_tEEEOT_RNSt16remove_referenceIS8_E4typeE>
 8002848:	4603      	mov	r3, r0
 800284a:	4619      	mov	r1, r3
 800284c:	4620      	mov	r0, r4
 800284e:	f000 f92d 	bl	8002aac <_ZNSt14_Function_base13_Base_managerISt5_BindIFMN8ICM426888icm42688EF7iIMU_SThES3_tEEE15_M_init_functorIS8_EEvRSt9_Any_dataOT_>
	      _M_invoker = &_My_handler::_M_invoke;
 8002852:	687b      	ldr	r3, [r7, #4]
 8002854:	4a04      	ldr	r2, [pc, #16]	; (8002868 <_ZNSt8functionIFvvEEC1ISt5_BindIFMN8ICM426888icm42688EF7iIMU_SThES5_tEEvEEOT_+0x58>)
 8002856:	60da      	str	r2, [r3, #12]
	      _M_manager = &_My_handler::_M_manager;
 8002858:	687b      	ldr	r3, [r7, #4]
 800285a:	4a04      	ldr	r2, [pc, #16]	; (800286c <_ZNSt8functionIFvvEEC1ISt5_BindIFMN8ICM426888icm42688EF7iIMU_SThES5_tEEvEEOT_+0x5c>)
 800285c:	609a      	str	r2, [r3, #8]
	}
 800285e:	687b      	ldr	r3, [r7, #4]
 8002860:	4618      	mov	r0, r3
 8002862:	370c      	adds	r7, #12
 8002864:	46bd      	mov	sp, r7
 8002866:	bd90      	pop	{r4, r7, pc}
 8002868:	08002ad1 	.word	0x08002ad1
 800286c:	08002aef 	.word	0x08002aef

08002870 <_ZSt4moveIRMN8ICM426888icm42688EF7iIMU_STvEEONSt16remove_referenceIT_E4typeEOS7_>:
   *  @return The parameter cast to an rvalue-reference to allow moving it.
  */
  template<typename _Tp>
    _GLIBCXX_NODISCARD
    constexpr typename std::remove_reference<_Tp>::type&&
    move(_Tp&& __t) noexcept
 8002870:	b480      	push	{r7}
 8002872:	b083      	sub	sp, #12
 8002874:	af00      	add	r7, sp, #0
 8002876:	6078      	str	r0, [r7, #4]
    { return static_cast<typename std::remove_reference<_Tp>::type&&>(__t); }
 8002878:	687b      	ldr	r3, [r7, #4]
 800287a:	4618      	mov	r0, r3
 800287c:	370c      	adds	r7, #12
 800287e:	46bd      	mov	sp, r7
 8002880:	f85d 7b04 	ldr.w	r7, [sp], #4
 8002884:	4770      	bx	lr

08002886 <_ZNSt5tupleIJN8ICM426888icm42688EEEC1IJRS1_ELb1ELb1EEEDpOT_>:
	tuple(_UElements&&... __elements)
 8002886:	b590      	push	{r4, r7, lr}
 8002888:	b083      	sub	sp, #12
 800288a:	af00      	add	r7, sp, #0
 800288c:	6078      	str	r0, [r7, #4]
 800288e:	6039      	str	r1, [r7, #0]
	: _Inherited(std::forward<_UElements>(__elements)...) { }
 8002890:	687c      	ldr	r4, [r7, #4]
 8002892:	6838      	ldr	r0, [r7, #0]
 8002894:	f7ff fece 	bl	8002634 <_ZSt7forwardIRN8ICM426888icm42688EEOT_RNSt16remove_referenceIS3_E4typeE>
 8002898:	4603      	mov	r3, r0
 800289a:	4619      	mov	r1, r3
 800289c:	4620      	mov	r0, r4
 800289e:	f000 f945 	bl	8002b2c <_ZNSt11_Tuple_implILj0EJN8ICM426888icm42688EEEC1IRS1_EEOT_>
 80028a2:	687b      	ldr	r3, [r7, #4]
 80028a4:	4618      	mov	r0, r3
 80028a6:	370c      	adds	r7, #12
 80028a8:	46bd      	mov	sp, r7
 80028aa:	bd90      	pop	{r4, r7, pc}

080028ac <_ZNSt14_Function_base13_Base_managerISt5_BindIFMN8ICM426888icm42688EF7iIMU_STvES3_EEE21_M_not_empty_functionIS8_EEbRKT_>:
	  _M_not_empty_function(const _Tp&)
 80028ac:	b480      	push	{r7}
 80028ae:	b083      	sub	sp, #12
 80028b0:	af00      	add	r7, sp, #0
 80028b2:	6078      	str	r0, [r7, #4]
	  { return true; }
 80028b4:	2301      	movs	r3, #1
 80028b6:	4618      	mov	r0, r3
 80028b8:	370c      	adds	r7, #12
 80028ba:	46bd      	mov	sp, r7
 80028bc:	f85d 7b04 	ldr.w	r7, [sp], #4
 80028c0:	4770      	bx	lr

080028c2 <_ZNSt14_Function_base13_Base_managerISt5_BindIFMN8ICM426888icm42688EF7iIMU_STvES3_EEE15_M_init_functorIS8_EEvRSt9_Any_dataOT_>:
	  _M_init_functor(_Any_data& __functor, _Fn&& __f)
 80028c2:	b590      	push	{r4, r7, lr}
 80028c4:	b083      	sub	sp, #12
 80028c6:	af00      	add	r7, sp, #0
 80028c8:	6078      	str	r0, [r7, #4]
 80028ca:	6039      	str	r1, [r7, #0]
	    _M_create(__functor, std::forward<_Fn>(__f), _Local_storage());
 80028cc:	6838      	ldr	r0, [r7, #0]
 80028ce:	f7ff feeb 	bl	80026a8 <_ZSt7forwardISt5_BindIFMN8ICM426888icm42688EF7iIMU_STvES2_EEEOT_RNSt16remove_referenceIS8_E4typeE>
 80028d2:	4603      	mov	r3, r0
 80028d4:	4622      	mov	r2, r4
 80028d6:	4619      	mov	r1, r3
 80028d8:	6878      	ldr	r0, [r7, #4]
 80028da:	f000 f93a 	bl	8002b52 <_ZNSt14_Function_base13_Base_managerISt5_BindIFMN8ICM426888icm42688EF7iIMU_STvES3_EEE9_M_createIS8_EEvRSt9_Any_dataOT_St17integral_constantIbLb0EE>
	  }
 80028de:	bf00      	nop
 80028e0:	370c      	adds	r7, #12
 80028e2:	46bd      	mov	sp, r7
 80028e4:	bd90      	pop	{r4, r7, pc}

080028e6 <_ZNSt17_Function_handlerIFvvESt5_BindIFMN8ICM426888icm42688EF7iIMU_STvES3_EEE9_M_invokeERKSt9_Any_data>:
      _M_invoke(const _Any_data& __functor, _ArgTypes&&... __args)
 80028e6:	b580      	push	{r7, lr}
 80028e8:	b082      	sub	sp, #8
 80028ea:	af00      	add	r7, sp, #0
 80028ec:	6078      	str	r0, [r7, #4]
	return std::__invoke_r<_Res>(*_Base::_M_get_pointer(__functor),
 80028ee:	6878      	ldr	r0, [r7, #4]
 80028f0:	f000 f94c 	bl	8002b8c <_ZNSt14_Function_base13_Base_managerISt5_BindIFMN8ICM426888icm42688EF7iIMU_STvES3_EEE14_M_get_pointerERKSt9_Any_data>
 80028f4:	4603      	mov	r3, r0
 80028f6:	4618      	mov	r0, r3
 80028f8:	f000 f966 	bl	8002bc8 <_ZSt10__invoke_rIvRSt5_BindIFMN8ICM426888icm42688EF7iIMU_STvES2_EEJEENSt9enable_ifIXsrSt6__and_IJSt7is_voidIT_ESt14__is_invocableIT0_JDpT1_EEEE5valueESC_E4typeEOSF_DpOSG_>
				     std::forward<_ArgTypes>(__args)...);
 80028fc:	bf00      	nop
      }
 80028fe:	3708      	adds	r7, #8
 8002900:	46bd      	mov	sp, r7
 8002902:	bd80      	pop	{r7, pc}

08002904 <_ZNSt17_Function_handlerIFvvESt5_BindIFMN8ICM426888icm42688EF7iIMU_STvES3_EEE10_M_managerERSt9_Any_dataRKSA_St18_Manager_operation>:
      _M_manager(_Any_data& __dest, const _Any_data& __source,
 8002904:	b590      	push	{r4, r7, lr}
 8002906:	b085      	sub	sp, #20
 8002908:	af00      	add	r7, sp, #0
 800290a:	60f8      	str	r0, [r7, #12]
 800290c:	60b9      	str	r1, [r7, #8]
 800290e:	4613      	mov	r3, r2
 8002910:	71fb      	strb	r3, [r7, #7]
	switch (__op)
 8002912:	79fb      	ldrb	r3, [r7, #7]
 8002914:	2b01      	cmp	r3, #1
 8002916:	d109      	bne.n	800292c <_ZNSt17_Function_handlerIFvvESt5_BindIFMN8ICM426888icm42688EF7iIMU_STvES3_EEE10_M_managerERSt9_Any_dataRKSA_St18_Manager_operation+0x28>
	    __dest._M_access<_Functor*>() = _Base::_M_get_pointer(__source);
 8002918:	68f8      	ldr	r0, [r7, #12]
 800291a:	f000 f965 	bl	8002be8 <_ZNSt9_Any_data9_M_accessIPSt5_BindIFMN8ICM426888icm42688EF7iIMU_STvES3_EEEERT_v>
 800291e:	4604      	mov	r4, r0
 8002920:	68b8      	ldr	r0, [r7, #8]
 8002922:	f000 f933 	bl	8002b8c <_ZNSt14_Function_base13_Base_managerISt5_BindIFMN8ICM426888icm42688EF7iIMU_STvES3_EEE14_M_get_pointerERKSt9_Any_data>
 8002926:	4603      	mov	r3, r0
 8002928:	6023      	str	r3, [r4, #0]
	    break;
 800292a:	e005      	b.n	8002938 <_ZNSt17_Function_handlerIFvvESt5_BindIFMN8ICM426888icm42688EF7iIMU_STvES3_EEE10_M_managerERSt9_Any_dataRKSA_St18_Manager_operation+0x34>
	    _Base::_M_manager(__dest, __source, __op);
 800292c:	79fb      	ldrb	r3, [r7, #7]
 800292e:	461a      	mov	r2, r3
 8002930:	68b9      	ldr	r1, [r7, #8]
 8002932:	68f8      	ldr	r0, [r7, #12]
 8002934:	f000 f964 	bl	8002c00 <_ZNSt14_Function_base13_Base_managerISt5_BindIFMN8ICM426888icm42688EF7iIMU_STvES3_EEE10_M_managerERSt9_Any_dataRKSA_St18_Manager_operation>
	return false;
 8002938:	2300      	movs	r3, #0
      }
 800293a:	4618      	mov	r0, r3
 800293c:	3714      	adds	r7, #20
 800293e:	46bd      	mov	sp, r7
 8002940:	bd90      	pop	{r4, r7, pc}

08002942 <_ZSt4moveIRSt9_Any_dataEONSt16remove_referenceIT_E4typeEOS3_>:
    move(_Tp&& __t) noexcept
 8002942:	b480      	push	{r7}
 8002944:	b083      	sub	sp, #12
 8002946:	af00      	add	r7, sp, #0
 8002948:	6078      	str	r0, [r7, #4]
    { return static_cast<typename std::remove_reference<_Tp>::type&&>(__t); }
 800294a:	687b      	ldr	r3, [r7, #4]
 800294c:	4618      	mov	r0, r3
 800294e:	370c      	adds	r7, #12
 8002950:	46bd      	mov	sp, r7
 8002952:	f85d 7b04 	ldr.w	r7, [sp], #4
 8002956:	4770      	bx	lr

08002958 <_ZSt4swapISt9_Any_dataENSt9enable_ifIXsrSt6__and_IJSt6__not_ISt15__is_tuple_likeIT_EESt21is_move_constructibleIS5_ESt18is_move_assignableIS5_EEE5valueEvE4typeERS5_SF_>:
			      is_move_constructible<_Tp>,
			      is_move_assignable<_Tp>>::value>::type
#else
    void
#endif
    swap(_Tp& __a, _Tp& __b)
 8002958:	b580      	push	{r7, lr}
 800295a:	b084      	sub	sp, #16
 800295c:	af00      	add	r7, sp, #0
 800295e:	6078      	str	r0, [r7, #4]
 8002960:	6039      	str	r1, [r7, #0]
    {
#if __cplusplus < 201103L
      // concept requirements
      __glibcxx_function_requires(_SGIAssignableConcept<_Tp>)
#endif
      _Tp __tmp = _GLIBCXX_MOVE(__a);
 8002962:	6878      	ldr	r0, [r7, #4]
 8002964:	f7ff ffed 	bl	8002942 <_ZSt4moveIRSt9_Any_dataEONSt16remove_referenceIT_E4typeEOS3_>
 8002968:	4602      	mov	r2, r0
 800296a:	f107 0308 	add.w	r3, r7, #8
 800296e:	e892 0003 	ldmia.w	r2, {r0, r1}
 8002972:	e883 0003 	stmia.w	r3, {r0, r1}
      __a = _GLIBCXX_MOVE(__b);
 8002976:	6838      	ldr	r0, [r7, #0]
 8002978:	f7ff ffe3 	bl	8002942 <_ZSt4moveIRSt9_Any_dataEONSt16remove_referenceIT_E4typeEOS3_>
 800297c:	4602      	mov	r2, r0
 800297e:	687b      	ldr	r3, [r7, #4]
 8002980:	e892 0003 	ldmia.w	r2, {r0, r1}
 8002984:	e883 0003 	stmia.w	r3, {r0, r1}
      __b = _GLIBCXX_MOVE(__tmp);
 8002988:	f107 0308 	add.w	r3, r7, #8
 800298c:	4618      	mov	r0, r3
 800298e:	f7ff ffd8 	bl	8002942 <_ZSt4moveIRSt9_Any_dataEONSt16remove_referenceIT_E4typeEOS3_>
 8002992:	4602      	mov	r2, r0
 8002994:	683b      	ldr	r3, [r7, #0]
 8002996:	e892 0003 	ldmia.w	r2, {r0, r1}
 800299a:	e883 0003 	stmia.w	r3, {r0, r1}
    }
 800299e:	bf00      	nop
 80029a0:	3710      	adds	r7, #16
 80029a2:	46bd      	mov	sp, r7
 80029a4:	bd80      	pop	{r7, pc}

080029a6 <_ZSt4moveIRPFbRSt9_Any_dataRKS0_St18_Manager_operationEEONSt16remove_referenceIT_E4typeEOS9_>:
    move(_Tp&& __t) noexcept
 80029a6:	b480      	push	{r7}
 80029a8:	b083      	sub	sp, #12
 80029aa:	af00      	add	r7, sp, #0
 80029ac:	6078      	str	r0, [r7, #4]
    { return static_cast<typename std::remove_reference<_Tp>::type&&>(__t); }
 80029ae:	687b      	ldr	r3, [r7, #4]
 80029b0:	4618      	mov	r0, r3
 80029b2:	370c      	adds	r7, #12
 80029b4:	46bd      	mov	sp, r7
 80029b6:	f85d 7b04 	ldr.w	r7, [sp], #4
 80029ba:	4770      	bx	lr

080029bc <_ZSt4swapIPFbRSt9_Any_dataRKS0_St18_Manager_operationEENSt9enable_ifIXsrSt6__and_IJSt6__not_ISt15__is_tuple_likeIT_EESt21is_move_constructibleISB_ESt18is_move_assignableISB_EEE5valueEvE4typeERSB_SL_>:
    swap(_Tp& __a, _Tp& __b)
 80029bc:	b580      	push	{r7, lr}
 80029be:	b084      	sub	sp, #16
 80029c0:	af00      	add	r7, sp, #0
 80029c2:	6078      	str	r0, [r7, #4]
 80029c4:	6039      	str	r1, [r7, #0]
      _Tp __tmp = _GLIBCXX_MOVE(__a);
 80029c6:	6878      	ldr	r0, [r7, #4]
 80029c8:	f7ff ffed 	bl	80029a6 <_ZSt4moveIRPFbRSt9_Any_dataRKS0_St18_Manager_operationEEONSt16remove_referenceIT_E4typeEOS9_>
 80029cc:	4603      	mov	r3, r0
 80029ce:	681b      	ldr	r3, [r3, #0]
 80029d0:	60fb      	str	r3, [r7, #12]
      __a = _GLIBCXX_MOVE(__b);
 80029d2:	6838      	ldr	r0, [r7, #0]
 80029d4:	f7ff ffe7 	bl	80029a6 <_ZSt4moveIRPFbRSt9_Any_dataRKS0_St18_Manager_operationEEONSt16remove_referenceIT_E4typeEOS9_>
 80029d8:	4603      	mov	r3, r0
 80029da:	681a      	ldr	r2, [r3, #0]
 80029dc:	687b      	ldr	r3, [r7, #4]
 80029de:	601a      	str	r2, [r3, #0]
      __b = _GLIBCXX_MOVE(__tmp);
 80029e0:	f107 030c 	add.w	r3, r7, #12
 80029e4:	4618      	mov	r0, r3
 80029e6:	f7ff ffde 	bl	80029a6 <_ZSt4moveIRPFbRSt9_Any_dataRKS0_St18_Manager_operationEEONSt16remove_referenceIT_E4typeEOS9_>
 80029ea:	4603      	mov	r3, r0
 80029ec:	681a      	ldr	r2, [r3, #0]
 80029ee:	683b      	ldr	r3, [r7, #0]
 80029f0:	601a      	str	r2, [r3, #0]
    }
 80029f2:	bf00      	nop
 80029f4:	3710      	adds	r7, #16
 80029f6:	46bd      	mov	sp, r7
 80029f8:	bd80      	pop	{r7, pc}

080029fa <_ZSt4moveIRPFvRKSt9_Any_dataEEONSt16remove_referenceIT_E4typeEOS7_>:
    move(_Tp&& __t) noexcept
 80029fa:	b480      	push	{r7}
 80029fc:	b083      	sub	sp, #12
 80029fe:	af00      	add	r7, sp, #0
 8002a00:	6078      	str	r0, [r7, #4]
    { return static_cast<typename std::remove_reference<_Tp>::type&&>(__t); }
 8002a02:	687b      	ldr	r3, [r7, #4]
 8002a04:	4618      	mov	r0, r3
 8002a06:	370c      	adds	r7, #12
 8002a08:	46bd      	mov	sp, r7
 8002a0a:	f85d 7b04 	ldr.w	r7, [sp], #4
 8002a0e:	4770      	bx	lr

08002a10 <_ZSt4swapIPFvRKSt9_Any_dataEENSt9enable_ifIXsrSt6__and_IJSt6__not_ISt15__is_tuple_likeIT_EESt21is_move_constructibleIS9_ESt18is_move_assignableIS9_EEE5valueEvE4typeERS9_SJ_>:
    swap(_Tp& __a, _Tp& __b)
 8002a10:	b580      	push	{r7, lr}
 8002a12:	b084      	sub	sp, #16
 8002a14:	af00      	add	r7, sp, #0
 8002a16:	6078      	str	r0, [r7, #4]
 8002a18:	6039      	str	r1, [r7, #0]
      _Tp __tmp = _GLIBCXX_MOVE(__a);
 8002a1a:	6878      	ldr	r0, [r7, #4]
 8002a1c:	f7ff ffed 	bl	80029fa <_ZSt4moveIRPFvRKSt9_Any_dataEEONSt16remove_referenceIT_E4typeEOS7_>
 8002a20:	4603      	mov	r3, r0
 8002a22:	681b      	ldr	r3, [r3, #0]
 8002a24:	60fb      	str	r3, [r7, #12]
      __a = _GLIBCXX_MOVE(__b);
 8002a26:	6838      	ldr	r0, [r7, #0]
 8002a28:	f7ff ffe7 	bl	80029fa <_ZSt4moveIRPFvRKSt9_Any_dataEEONSt16remove_referenceIT_E4typeEOS7_>
 8002a2c:	4603      	mov	r3, r0
 8002a2e:	681a      	ldr	r2, [r3, #0]
 8002a30:	687b      	ldr	r3, [r7, #4]
 8002a32:	601a      	str	r2, [r3, #0]
      __b = _GLIBCXX_MOVE(__tmp);
 8002a34:	f107 030c 	add.w	r3, r7, #12
 8002a38:	4618      	mov	r0, r3
 8002a3a:	f7ff ffde 	bl	80029fa <_ZSt4moveIRPFvRKSt9_Any_dataEEONSt16remove_referenceIT_E4typeEOS7_>
 8002a3e:	4603      	mov	r3, r0
 8002a40:	681a      	ldr	r2, [r3, #0]
 8002a42:	683b      	ldr	r3, [r7, #0]
 8002a44:	601a      	str	r2, [r3, #0]
    }
 8002a46:	bf00      	nop
 8002a48:	3710      	adds	r7, #16
 8002a4a:	46bd      	mov	sp, r7
 8002a4c:	bd80      	pop	{r7, pc}

08002a4e <_ZSt4moveIRMN8ICM426888icm42688EF7iIMU_SThEEONSt16remove_referenceIT_E4typeEOS7_>:
    move(_Tp&& __t) noexcept
 8002a4e:	b480      	push	{r7}
 8002a50:	b083      	sub	sp, #12
 8002a52:	af00      	add	r7, sp, #0
 8002a54:	6078      	str	r0, [r7, #4]
    { return static_cast<typename std::remove_reference<_Tp>::type&&>(__t); }
 8002a56:	687b      	ldr	r3, [r7, #4]
 8002a58:	4618      	mov	r0, r3
 8002a5a:	370c      	adds	r7, #12
 8002a5c:	46bd      	mov	sp, r7
 8002a5e:	f85d 7b04 	ldr.w	r7, [sp], #4
 8002a62:	4770      	bx	lr

08002a64 <_ZNSt5tupleIJN8ICM426888icm42688EtEEC1IRS1_RtLb1EEEOT_OT0_>:
	tuple(_U1&& __a1, _U2&& __a2)
 8002a64:	b5b0      	push	{r4, r5, r7, lr}
 8002a66:	b084      	sub	sp, #16
 8002a68:	af00      	add	r7, sp, #0
 8002a6a:	60f8      	str	r0, [r7, #12]
 8002a6c:	60b9      	str	r1, [r7, #8]
 8002a6e:	607a      	str	r2, [r7, #4]
	: _Inherited(std::forward<_U1>(__a1), std::forward<_U2>(__a2)) { }
 8002a70:	68fc      	ldr	r4, [r7, #12]
 8002a72:	68b8      	ldr	r0, [r7, #8]
 8002a74:	f7ff fdde 	bl	8002634 <_ZSt7forwardIRN8ICM426888icm42688EEOT_RNSt16remove_referenceIS3_E4typeE>
 8002a78:	4605      	mov	r5, r0
 8002a7a:	6878      	ldr	r0, [r7, #4]
 8002a7c:	f7ff fe7c 	bl	8002778 <_ZSt7forwardIRtEOT_RNSt16remove_referenceIS1_E4typeE>
 8002a80:	4603      	mov	r3, r0
 8002a82:	461a      	mov	r2, r3
 8002a84:	4629      	mov	r1, r5
 8002a86:	4620      	mov	r0, r4
 8002a88:	f000 f8f4 	bl	8002c74 <_ZNSt11_Tuple_implILj0EJN8ICM426888icm42688EtEEC1IRS1_JRtEvEEOT_DpOT0_>
 8002a8c:	68fb      	ldr	r3, [r7, #12]
 8002a8e:	4618      	mov	r0, r3
 8002a90:	3710      	adds	r7, #16
 8002a92:	46bd      	mov	sp, r7
 8002a94:	bdb0      	pop	{r4, r5, r7, pc}

08002a96 <_ZNSt14_Function_base13_Base_managerISt5_BindIFMN8ICM426888icm42688EF7iIMU_SThES3_tEEE21_M_not_empty_functionIS8_EEbRKT_>:
	  _M_not_empty_function(const _Tp&)
 8002a96:	b480      	push	{r7}
 8002a98:	b083      	sub	sp, #12
 8002a9a:	af00      	add	r7, sp, #0
 8002a9c:	6078      	str	r0, [r7, #4]
	  { return true; }
 8002a9e:	2301      	movs	r3, #1
 8002aa0:	4618      	mov	r0, r3
 8002aa2:	370c      	adds	r7, #12
 8002aa4:	46bd      	mov	sp, r7
 8002aa6:	f85d 7b04 	ldr.w	r7, [sp], #4
 8002aaa:	4770      	bx	lr

08002aac <_ZNSt14_Function_base13_Base_managerISt5_BindIFMN8ICM426888icm42688EF7iIMU_SThES3_tEEE15_M_init_functorIS8_EEvRSt9_Any_dataOT_>:
	  _M_init_functor(_Any_data& __functor, _Fn&& __f)
 8002aac:	b590      	push	{r4, r7, lr}
 8002aae:	b083      	sub	sp, #12
 8002ab0:	af00      	add	r7, sp, #0
 8002ab2:	6078      	str	r0, [r7, #4]
 8002ab4:	6039      	str	r1, [r7, #0]
	    _M_create(__functor, std::forward<_Fn>(__f), _Local_storage());
 8002ab6:	6838      	ldr	r0, [r7, #0]
 8002ab8:	f7ff fe9e 	bl	80027f8 <_ZSt7forwardISt5_BindIFMN8ICM426888icm42688EF7iIMU_SThES2_tEEEOT_RNSt16remove_referenceIS8_E4typeE>
 8002abc:	4603      	mov	r3, r0
 8002abe:	4622      	mov	r2, r4
 8002ac0:	4619      	mov	r1, r3
 8002ac2:	6878      	ldr	r0, [r7, #4]
 8002ac4:	f000 f8f4 	bl	8002cb0 <_ZNSt14_Function_base13_Base_managerISt5_BindIFMN8ICM426888icm42688EF7iIMU_SThES3_tEEE9_M_createIS8_EEvRSt9_Any_dataOT_St17integral_constantIbLb0EE>
	  }
 8002ac8:	bf00      	nop
 8002aca:	370c      	adds	r7, #12
 8002acc:	46bd      	mov	sp, r7
 8002ace:	bd90      	pop	{r4, r7, pc}

08002ad0 <_ZNSt17_Function_handlerIFvvESt5_BindIFMN8ICM426888icm42688EF7iIMU_SThES3_tEEE9_M_invokeERKSt9_Any_data>:
      _M_invoke(const _Any_data& __functor, _ArgTypes&&... __args)
 8002ad0:	b580      	push	{r7, lr}
 8002ad2:	b082      	sub	sp, #8
 8002ad4:	af00      	add	r7, sp, #0
 8002ad6:	6078      	str	r0, [r7, #4]
	return std::__invoke_r<_Res>(*_Base::_M_get_pointer(__functor),
 8002ad8:	6878      	ldr	r0, [r7, #4]
 8002ada:	f000 f906 	bl	8002cea <_ZNSt14_Function_base13_Base_managerISt5_BindIFMN8ICM426888icm42688EF7iIMU_SThES3_tEEE14_M_get_pointerERKSt9_Any_data>
 8002ade:	4603      	mov	r3, r0
 8002ae0:	4618      	mov	r0, r3
 8002ae2:	f000 f920 	bl	8002d26 <_ZSt10__invoke_rIvRSt5_BindIFMN8ICM426888icm42688EF7iIMU_SThES2_tEEJEENSt9enable_ifIXsrSt6__and_IJSt7is_voidIT_ESt14__is_invocableIT0_JDpT1_EEEE5valueESC_E4typeEOSF_DpOSG_>
				     std::forward<_ArgTypes>(__args)...);
 8002ae6:	bf00      	nop
      }
 8002ae8:	3708      	adds	r7, #8
 8002aea:	46bd      	mov	sp, r7
 8002aec:	bd80      	pop	{r7, pc}

08002aee <_ZNSt17_Function_handlerIFvvESt5_BindIFMN8ICM426888icm42688EF7iIMU_SThES3_tEEE10_M_managerERSt9_Any_dataRKSA_St18_Manager_operation>:
      _M_manager(_Any_data& __dest, const _Any_data& __source,
 8002aee:	b590      	push	{r4, r7, lr}
 8002af0:	b085      	sub	sp, #20
 8002af2:	af00      	add	r7, sp, #0
 8002af4:	60f8      	str	r0, [r7, #12]
 8002af6:	60b9      	str	r1, [r7, #8]
 8002af8:	4613      	mov	r3, r2
 8002afa:	71fb      	strb	r3, [r7, #7]
	switch (__op)
 8002afc:	79fb      	ldrb	r3, [r7, #7]
 8002afe:	2b01      	cmp	r3, #1
 8002b00:	d109      	bne.n	8002b16 <_ZNSt17_Function_handlerIFvvESt5_BindIFMN8ICM426888icm42688EF7iIMU_SThES3_tEEE10_M_managerERSt9_Any_dataRKSA_St18_Manager_operation+0x28>
	    __dest._M_access<_Functor*>() = _Base::_M_get_pointer(__source);
 8002b02:	68f8      	ldr	r0, [r7, #12]
 8002b04:	f000 f91f 	bl	8002d46 <_ZNSt9_Any_data9_M_accessIPSt5_BindIFMN8ICM426888icm42688EF7iIMU_SThES3_tEEEERT_v>
 8002b08:	4604      	mov	r4, r0
 8002b0a:	68b8      	ldr	r0, [r7, #8]
 8002b0c:	f000 f8ed 	bl	8002cea <_ZNSt14_Function_base13_Base_managerISt5_BindIFMN8ICM426888icm42688EF7iIMU_SThES3_tEEE14_M_get_pointerERKSt9_Any_data>
 8002b10:	4603      	mov	r3, r0
 8002b12:	6023      	str	r3, [r4, #0]
	    break;
 8002b14:	e005      	b.n	8002b22 <_ZNSt17_Function_handlerIFvvESt5_BindIFMN8ICM426888icm42688EF7iIMU_SThES3_tEEE10_M_managerERSt9_Any_dataRKSA_St18_Manager_operation+0x34>
	    _Base::_M_manager(__dest, __source, __op);
 8002b16:	79fb      	ldrb	r3, [r7, #7]
 8002b18:	461a      	mov	r2, r3
 8002b1a:	68b9      	ldr	r1, [r7, #8]
 8002b1c:	68f8      	ldr	r0, [r7, #12]
 8002b1e:	f000 f91f 	bl	8002d60 <_ZNSt14_Function_base13_Base_managerISt5_BindIFMN8ICM426888icm42688EF7iIMU_SThES3_tEEE10_M_managerERSt9_Any_dataRKSA_St18_Manager_operation>
	return false;
 8002b22:	2300      	movs	r3, #0
      }
 8002b24:	4618      	mov	r0, r3
 8002b26:	3714      	adds	r7, #20
 8002b28:	46bd      	mov	sp, r7
 8002b2a:	bd90      	pop	{r4, r7, pc}

08002b2c <_ZNSt11_Tuple_implILj0EJN8ICM426888icm42688EEEC1IRS1_EEOT_>:
	_Tuple_impl(_UHead&& __head)
 8002b2c:	b590      	push	{r4, r7, lr}
 8002b2e:	b083      	sub	sp, #12
 8002b30:	af00      	add	r7, sp, #0
 8002b32:	6078      	str	r0, [r7, #4]
 8002b34:	6039      	str	r1, [r7, #0]
	: _Base(std::forward<_UHead>(__head))
 8002b36:	687c      	ldr	r4, [r7, #4]
 8002b38:	6838      	ldr	r0, [r7, #0]
 8002b3a:	f7ff fd7b 	bl	8002634 <_ZSt7forwardIRN8ICM426888icm42688EEOT_RNSt16remove_referenceIS3_E4typeE>
 8002b3e:	4603      	mov	r3, r0
 8002b40:	4619      	mov	r1, r3
 8002b42:	4620      	mov	r0, r4
 8002b44:	f000 f9f2 	bl	8002f2c <_ZNSt10_Head_baseILj0EN8ICM426888icm42688ELb0EEC1IRS1_EEOT_>
	{ }
 8002b48:	687b      	ldr	r3, [r7, #4]
 8002b4a:	4618      	mov	r0, r3
 8002b4c:	370c      	adds	r7, #12
 8002b4e:	46bd      	mov	sp, r7
 8002b50:	bd90      	pop	{r4, r7, pc}

08002b52 <_ZNSt14_Function_base13_Base_managerISt5_BindIFMN8ICM426888icm42688EF7iIMU_STvES3_EEE9_M_createIS8_EEvRSt9_Any_dataOT_St17integral_constantIbLb0EE>:
	  _M_create(_Any_data& __dest, _Fn&& __f, false_type)
 8002b52:	b5b0      	push	{r4, r5, r7, lr}
 8002b54:	b084      	sub	sp, #16
 8002b56:	af00      	add	r7, sp, #0
 8002b58:	60f8      	str	r0, [r7, #12]
 8002b5a:	60b9      	str	r1, [r7, #8]
 8002b5c:	713a      	strb	r2, [r7, #4]
	      = new _Functor(std::forward<_Fn>(__f));
 8002b5e:	68b8      	ldr	r0, [r7, #8]
 8002b60:	f7ff fda2 	bl	80026a8 <_ZSt7forwardISt5_BindIFMN8ICM426888icm42688EF7iIMU_STvES2_EEEOT_RNSt16remove_referenceIS8_E4typeE>
 8002b64:	4605      	mov	r5, r0
 8002b66:	f44f 701d 	mov.w	r0, #628	; 0x274
 8002b6a:	f006 fc5c 	bl	8009426 <_Znwj>
 8002b6e:	4603      	mov	r3, r0
 8002b70:	461c      	mov	r4, r3
 8002b72:	4629      	mov	r1, r5
 8002b74:	4620      	mov	r0, r4
 8002b76:	f7ff fb59 	bl	800222c <_ZNSt5_BindIFMN8ICM426888icm42688EF7iIMU_STvES1_EEC1EOS6_>
	    __dest._M_access<_Functor*>()
 8002b7a:	68f8      	ldr	r0, [r7, #12]
 8002b7c:	f000 f834 	bl	8002be8 <_ZNSt9_Any_data9_M_accessIPSt5_BindIFMN8ICM426888icm42688EF7iIMU_STvES3_EEEERT_v>
 8002b80:	4603      	mov	r3, r0
	      = new _Functor(std::forward<_Fn>(__f));
 8002b82:	601c      	str	r4, [r3, #0]
	  }
 8002b84:	bf00      	nop
 8002b86:	3710      	adds	r7, #16
 8002b88:	46bd      	mov	sp, r7
 8002b8a:	bdb0      	pop	{r4, r5, r7, pc}

08002b8c <_ZNSt14_Function_base13_Base_managerISt5_BindIFMN8ICM426888icm42688EF7iIMU_STvES3_EEE14_M_get_pointerERKSt9_Any_data>:
	_M_get_pointer(const _Any_data& __source)
 8002b8c:	b580      	push	{r7, lr}
 8002b8e:	b082      	sub	sp, #8
 8002b90:	af00      	add	r7, sp, #0
 8002b92:	6078      	str	r0, [r7, #4]
	    return __source._M_access<_Functor*>();
 8002b94:	6878      	ldr	r0, [r7, #4]
 8002b96:	f000 f9dc 	bl	8002f52 <_ZNKSt9_Any_data9_M_accessIPSt5_BindIFMN8ICM426888icm42688EF7iIMU_STvES3_EEEERKT_v>
 8002b9a:	4603      	mov	r3, r0
 8002b9c:	681b      	ldr	r3, [r3, #0]
	}
 8002b9e:	4618      	mov	r0, r3
 8002ba0:	3708      	adds	r7, #8
 8002ba2:	46bd      	mov	sp, r7
 8002ba4:	bd80      	pop	{r7, pc}

08002ba6 <_ZSt13__invoke_implI7iIMU_STRSt5_BindIFMN8ICM426888icm42688EFS0_vES3_EEJEET_St14__invoke_otherOT0_DpOT1_>:
    __invfwd(typename remove_reference<_Tp>::type& __t) noexcept
    { return static_cast<_Up&&>(__t); }

  template<typename _Res, typename _Fn, typename... _Args>
    constexpr _Res
    __invoke_impl(__invoke_other, _Fn&& __f, _Args&&... __args)
 8002ba6:	b580      	push	{r7, lr}
 8002ba8:	b082      	sub	sp, #8
 8002baa:	af00      	add	r7, sp, #0
 8002bac:	7138      	strb	r0, [r7, #4]
 8002bae:	6039      	str	r1, [r7, #0]
    { return std::forward<_Fn>(__f)(std::forward<_Args>(__args)...); }
 8002bb0:	6838      	ldr	r0, [r7, #0]
 8002bb2:	f000 f9da 	bl	8002f6a <_ZSt7forwardIRSt5_BindIFMN8ICM426888icm42688EF7iIMU_STvES2_EEEOT_RNSt16remove_referenceIS9_E4typeE>
 8002bb6:	4603      	mov	r3, r0
 8002bb8:	4618      	mov	r0, r3
 8002bba:	f000 f9e1 	bl	8002f80 <_ZNSt5_BindIFMN8ICM426888icm42688EF7iIMU_STvES1_EEclIJES2_EET0_DpOT_>
 8002bbe:	4603      	mov	r3, r0
 8002bc0:	4618      	mov	r0, r3
 8002bc2:	3708      	adds	r7, #8
 8002bc4:	46bd      	mov	sp, r7
 8002bc6:	bd80      	pop	{r7, pc}

08002bc8 <_ZSt10__invoke_rIvRSt5_BindIFMN8ICM426888icm42688EF7iIMU_STvES2_EEJEENSt9enable_ifIXsrSt6__and_IJSt7is_voidIT_ESt14__is_invocableIT0_JDpT1_EEEE5valueESC_E4typeEOSF_DpOSG_>:
    }

  // INVOKE<R> when R is cv void
  template<typename _Res, typename _Callable, typename... _Args>
    _GLIBCXX14_CONSTEXPR __can_invoke_as_void<_Res, _Callable, _Args...>
    __invoke_r(_Callable&& __fn, _Args&&... __args)
 8002bc8:	b590      	push	{r4, r7, lr}
 8002bca:	b083      	sub	sp, #12
 8002bcc:	af00      	add	r7, sp, #0
 8002bce:	6078      	str	r0, [r7, #4]
    {
      using __result = __invoke_result<_Callable, _Args...>;
      using __type = typename __result::type;
      using __tag = typename __result::__invoke_type;
      std::__invoke_impl<__type>(__tag{}, std::forward<_Callable>(__fn),
 8002bd0:	6878      	ldr	r0, [r7, #4]
 8002bd2:	f000 f9ca 	bl	8002f6a <_ZSt7forwardIRSt5_BindIFMN8ICM426888icm42688EF7iIMU_STvES2_EEEOT_RNSt16remove_referenceIS9_E4typeE>
 8002bd6:	4603      	mov	r3, r0
 8002bd8:	4619      	mov	r1, r3
 8002bda:	4620      	mov	r0, r4
 8002bdc:	f7ff ffe3 	bl	8002ba6 <_ZSt13__invoke_implI7iIMU_STRSt5_BindIFMN8ICM426888icm42688EFS0_vES3_EEJEET_St14__invoke_otherOT0_DpOT1_>
				 std::forward<_Args>(__args)...);
    }
 8002be0:	bf00      	nop
 8002be2:	370c      	adds	r7, #12
 8002be4:	46bd      	mov	sp, r7
 8002be6:	bd90      	pop	{r4, r7, pc}

08002be8 <_ZNSt9_Any_data9_M_accessIPSt5_BindIFMN8ICM426888icm42688EF7iIMU_STvES3_EEEERT_v>:
      _M_access()
 8002be8:	b580      	push	{r7, lr}
 8002bea:	b082      	sub	sp, #8
 8002bec:	af00      	add	r7, sp, #0
 8002bee:	6078      	str	r0, [r7, #4]
      { return *static_cast<_Tp*>(_M_access()); }
 8002bf0:	6878      	ldr	r0, [r7, #4]
 8002bf2:	f7fe f820 	bl	8000c36 <_ZNSt9_Any_data9_M_accessEv>
 8002bf6:	4603      	mov	r3, r0
 8002bf8:	4618      	mov	r0, r3
 8002bfa:	3708      	adds	r7, #8
 8002bfc:	46bd      	mov	sp, r7
 8002bfe:	bd80      	pop	{r7, pc}

08002c00 <_ZNSt14_Function_base13_Base_managerISt5_BindIFMN8ICM426888icm42688EF7iIMU_STvES3_EEE10_M_managerERSt9_Any_dataRKSA_St18_Manager_operation>:
	_M_manager(_Any_data& __dest, const _Any_data& __source,
 8002c00:	b590      	push	{r4, r7, lr}
 8002c02:	b085      	sub	sp, #20
 8002c04:	af00      	add	r7, sp, #0
 8002c06:	60f8      	str	r0, [r7, #12]
 8002c08:	60b9      	str	r1, [r7, #8]
 8002c0a:	4613      	mov	r3, r2
 8002c0c:	71fb      	strb	r3, [r7, #7]
	  switch (__op)
 8002c0e:	79fb      	ldrb	r3, [r7, #7]
 8002c10:	2b03      	cmp	r3, #3
 8002c12:	d82a      	bhi.n	8002c6a <_ZNSt14_Function_base13_Base_managerISt5_BindIFMN8ICM426888icm42688EF7iIMU_STvES3_EEE10_M_managerERSt9_Any_dataRKSA_St18_Manager_operation+0x6a>
 8002c14:	a201      	add	r2, pc, #4	; (adr r2, 8002c1c <_ZNSt14_Function_base13_Base_managerISt5_BindIFMN8ICM426888icm42688EF7iIMU_STvES3_EEE10_M_managerERSt9_Any_dataRKSA_St18_Manager_operation+0x1c>)
 8002c16:	f852 f023 	ldr.w	pc, [r2, r3, lsl #2]
 8002c1a:	bf00      	nop
 8002c1c:	08002c2d 	.word	0x08002c2d
 8002c20:	08002c3b 	.word	0x08002c3b
 8002c24:	08002c4f 	.word	0x08002c4f
 8002c28:	08002c61 	.word	0x08002c61
	      __dest._M_access<const type_info*>() = nullptr;
 8002c2c:	68f8      	ldr	r0, [r7, #12]
 8002c2e:	f000 f9b9 	bl	8002fa4 <_ZNSt9_Any_data9_M_accessIPKSt9type_infoEERT_v>
 8002c32:	4603      	mov	r3, r0
 8002c34:	2200      	movs	r2, #0
 8002c36:	601a      	str	r2, [r3, #0]
	      break;
 8002c38:	e017      	b.n	8002c6a <_ZNSt14_Function_base13_Base_managerISt5_BindIFMN8ICM426888icm42688EF7iIMU_STvES3_EEE10_M_managerERSt9_Any_dataRKSA_St18_Manager_operation+0x6a>
	      __dest._M_access<_Functor*>() = _M_get_pointer(__source);
 8002c3a:	68f8      	ldr	r0, [r7, #12]
 8002c3c:	f7ff ffd4 	bl	8002be8 <_ZNSt9_Any_data9_M_accessIPSt5_BindIFMN8ICM426888icm42688EF7iIMU_STvES3_EEEERT_v>
 8002c40:	4604      	mov	r4, r0
 8002c42:	68b8      	ldr	r0, [r7, #8]
 8002c44:	f7ff ffa2 	bl	8002b8c <_ZNSt14_Function_base13_Base_managerISt5_BindIFMN8ICM426888icm42688EF7iIMU_STvES3_EEE14_M_get_pointerERKSt9_Any_data>
 8002c48:	4603      	mov	r3, r0
 8002c4a:	6023      	str	r3, [r4, #0]
	      break;
 8002c4c:	e00d      	b.n	8002c6a <_ZNSt14_Function_base13_Base_managerISt5_BindIFMN8ICM426888icm42688EF7iIMU_STvES3_EEE10_M_managerERSt9_Any_dataRKSA_St18_Manager_operation+0x6a>
		  *const_cast<const _Functor*>(_M_get_pointer(__source)));
 8002c4e:	68b8      	ldr	r0, [r7, #8]
 8002c50:	f7ff ff9c 	bl	8002b8c <_ZNSt14_Function_base13_Base_managerISt5_BindIFMN8ICM426888icm42688EF7iIMU_STvES3_EEE14_M_get_pointerERKSt9_Any_data>
 8002c54:	4603      	mov	r3, r0
	      _M_init_functor(__dest,
 8002c56:	4619      	mov	r1, r3
 8002c58:	68f8      	ldr	r0, [r7, #12]
 8002c5a:	f000 f9af 	bl	8002fbc <_ZNSt14_Function_base13_Base_managerISt5_BindIFMN8ICM426888icm42688EF7iIMU_STvES3_EEE15_M_init_functorIRKS8_EEvRSt9_Any_dataOT_>
	      break;
 8002c5e:	e004      	b.n	8002c6a <_ZNSt14_Function_base13_Base_managerISt5_BindIFMN8ICM426888icm42688EF7iIMU_STvES3_EEE10_M_managerERSt9_Any_dataRKSA_St18_Manager_operation+0x6a>
	      _M_destroy(__dest, _Local_storage());
 8002c60:	4621      	mov	r1, r4
 8002c62:	68f8      	ldr	r0, [r7, #12]
 8002c64:	f000 f9bc 	bl	8002fe0 <_ZNSt14_Function_base13_Base_managerISt5_BindIFMN8ICM426888icm42688EF7iIMU_STvES3_EEE10_M_destroyERSt9_Any_dataSt17integral_constantIbLb0EE>
	      break;
 8002c68:	bf00      	nop
	  return false;
 8002c6a:	2300      	movs	r3, #0
	}
 8002c6c:	4618      	mov	r0, r3
 8002c6e:	3714      	adds	r7, #20
 8002c70:	46bd      	mov	sp, r7
 8002c72:	bd90      	pop	{r4, r7, pc}

08002c74 <_ZNSt11_Tuple_implILj0EJN8ICM426888icm42688EtEEC1IRS1_JRtEvEEOT_DpOT0_>:
	_Tuple_impl(_UHead&& __head, _UTail&&... __tail)
 8002c74:	b590      	push	{r4, r7, lr}
 8002c76:	b085      	sub	sp, #20
 8002c78:	af00      	add	r7, sp, #0
 8002c7a:	60f8      	str	r0, [r7, #12]
 8002c7c:	60b9      	str	r1, [r7, #8]
 8002c7e:	607a      	str	r2, [r7, #4]
	  _Base(std::forward<_UHead>(__head))
 8002c80:	68fc      	ldr	r4, [r7, #12]
 8002c82:	6878      	ldr	r0, [r7, #4]
 8002c84:	f7ff fd78 	bl	8002778 <_ZSt7forwardIRtEOT_RNSt16remove_referenceIS1_E4typeE>
 8002c88:	4603      	mov	r3, r0
 8002c8a:	4619      	mov	r1, r3
 8002c8c:	4620      	mov	r0, r4
 8002c8e:	f000 f9bc 	bl	800300a <_ZNSt11_Tuple_implILj1EJtEEC1IRtEEOT_>
 8002c92:	68fb      	ldr	r3, [r7, #12]
 8002c94:	1d1c      	adds	r4, r3, #4
 8002c96:	68b8      	ldr	r0, [r7, #8]
 8002c98:	f7ff fccc 	bl	8002634 <_ZSt7forwardIRN8ICM426888icm42688EEOT_RNSt16remove_referenceIS3_E4typeE>
 8002c9c:	4603      	mov	r3, r0
 8002c9e:	4619      	mov	r1, r3
 8002ca0:	4620      	mov	r0, r4
 8002ca2:	f000 f943 	bl	8002f2c <_ZNSt10_Head_baseILj0EN8ICM426888icm42688ELb0EEC1IRS1_EEOT_>
	{ }
 8002ca6:	68fb      	ldr	r3, [r7, #12]
 8002ca8:	4618      	mov	r0, r3
 8002caa:	3714      	adds	r7, #20
 8002cac:	46bd      	mov	sp, r7
 8002cae:	bd90      	pop	{r4, r7, pc}

08002cb0 <_ZNSt14_Function_base13_Base_managerISt5_BindIFMN8ICM426888icm42688EF7iIMU_SThES3_tEEE9_M_createIS8_EEvRSt9_Any_dataOT_St17integral_constantIbLb0EE>:
	  _M_create(_Any_data& __dest, _Fn&& __f, false_type)
 8002cb0:	b5b0      	push	{r4, r5, r7, lr}
 8002cb2:	b084      	sub	sp, #16
 8002cb4:	af00      	add	r7, sp, #0
 8002cb6:	60f8      	str	r0, [r7, #12]
 8002cb8:	60b9      	str	r1, [r7, #8]
 8002cba:	713a      	strb	r2, [r7, #4]
	      = new _Functor(std::forward<_Fn>(__f));
 8002cbc:	68b8      	ldr	r0, [r7, #8]
 8002cbe:	f7ff fd9b 	bl	80027f8 <_ZSt7forwardISt5_BindIFMN8ICM426888icm42688EF7iIMU_SThES2_tEEEOT_RNSt16remove_referenceIS8_E4typeE>
 8002cc2:	4605      	mov	r5, r0
 8002cc4:	f44f 701e 	mov.w	r0, #632	; 0x278
 8002cc8:	f006 fbad 	bl	8009426 <_Znwj>
 8002ccc:	4603      	mov	r3, r0
 8002cce:	461c      	mov	r4, r3
 8002cd0:	4629      	mov	r1, r5
 8002cd2:	4620      	mov	r0, r4
 8002cd4:	f7ff fbea 	bl	80024ac <_ZNSt5_BindIFMN8ICM426888icm42688EF7iIMU_SThES1_tEEC1EOS6_>
	    __dest._M_access<_Functor*>()
 8002cd8:	68f8      	ldr	r0, [r7, #12]
 8002cda:	f000 f834 	bl	8002d46 <_ZNSt9_Any_data9_M_accessIPSt5_BindIFMN8ICM426888icm42688EF7iIMU_SThES3_tEEEERT_v>
 8002cde:	4603      	mov	r3, r0
	      = new _Functor(std::forward<_Fn>(__f));
 8002ce0:	601c      	str	r4, [r3, #0]
	  }
 8002ce2:	bf00      	nop
 8002ce4:	3710      	adds	r7, #16
 8002ce6:	46bd      	mov	sp, r7
 8002ce8:	bdb0      	pop	{r4, r5, r7, pc}

08002cea <_ZNSt14_Function_base13_Base_managerISt5_BindIFMN8ICM426888icm42688EF7iIMU_SThES3_tEEE14_M_get_pointerERKSt9_Any_data>:
	_M_get_pointer(const _Any_data& __source)
 8002cea:	b580      	push	{r7, lr}
 8002cec:	b082      	sub	sp, #8
 8002cee:	af00      	add	r7, sp, #0
 8002cf0:	6078      	str	r0, [r7, #4]
	    return __source._M_access<_Functor*>();
 8002cf2:	6878      	ldr	r0, [r7, #4]
 8002cf4:	f000 f99c 	bl	8003030 <_ZNKSt9_Any_data9_M_accessIPSt5_BindIFMN8ICM426888icm42688EF7iIMU_SThES3_tEEEERKT_v>
 8002cf8:	4603      	mov	r3, r0
 8002cfa:	681b      	ldr	r3, [r3, #0]
	}
 8002cfc:	4618      	mov	r0, r3
 8002cfe:	3708      	adds	r7, #8
 8002d00:	46bd      	mov	sp, r7
 8002d02:	bd80      	pop	{r7, pc}

08002d04 <_ZSt13__invoke_implI7iIMU_STRSt5_BindIFMN8ICM426888icm42688EFS0_hES3_tEEJEET_St14__invoke_otherOT0_DpOT1_>:
    __invoke_impl(__invoke_other, _Fn&& __f, _Args&&... __args)
 8002d04:	b580      	push	{r7, lr}
 8002d06:	b082      	sub	sp, #8
 8002d08:	af00      	add	r7, sp, #0
 8002d0a:	7138      	strb	r0, [r7, #4]
 8002d0c:	6039      	str	r1, [r7, #0]
    { return std::forward<_Fn>(__f)(std::forward<_Args>(__args)...); }
 8002d0e:	6838      	ldr	r0, [r7, #0]
 8002d10:	f000 f99a 	bl	8003048 <_ZSt7forwardIRSt5_BindIFMN8ICM426888icm42688EF7iIMU_SThES2_tEEEOT_RNSt16remove_referenceIS9_E4typeE>
 8002d14:	4603      	mov	r3, r0
 8002d16:	4618      	mov	r0, r3
 8002d18:	f000 f9a1 	bl	800305e <_ZNSt5_BindIFMN8ICM426888icm42688EF7iIMU_SThES1_tEEclIJES2_EET0_DpOT_>
 8002d1c:	4603      	mov	r3, r0
 8002d1e:	4618      	mov	r0, r3
 8002d20:	3708      	adds	r7, #8
 8002d22:	46bd      	mov	sp, r7
 8002d24:	bd80      	pop	{r7, pc}

08002d26 <_ZSt10__invoke_rIvRSt5_BindIFMN8ICM426888icm42688EF7iIMU_SThES2_tEEJEENSt9enable_ifIXsrSt6__and_IJSt7is_voidIT_ESt14__is_invocableIT0_JDpT1_EEEE5valueESC_E4typeEOSF_DpOSG_>:
    __invoke_r(_Callable&& __fn, _Args&&... __args)
 8002d26:	b590      	push	{r4, r7, lr}
 8002d28:	b083      	sub	sp, #12
 8002d2a:	af00      	add	r7, sp, #0
 8002d2c:	6078      	str	r0, [r7, #4]
      std::__invoke_impl<__type>(__tag{}, std::forward<_Callable>(__fn),
 8002d2e:	6878      	ldr	r0, [r7, #4]
 8002d30:	f000 f98a 	bl	8003048 <_ZSt7forwardIRSt5_BindIFMN8ICM426888icm42688EF7iIMU_SThES2_tEEEOT_RNSt16remove_referenceIS9_E4typeE>
 8002d34:	4603      	mov	r3, r0
 8002d36:	4619      	mov	r1, r3
 8002d38:	4620      	mov	r0, r4
 8002d3a:	f7ff ffe3 	bl	8002d04 <_ZSt13__invoke_implI7iIMU_STRSt5_BindIFMN8ICM426888icm42688EFS0_hES3_tEEJEET_St14__invoke_otherOT0_DpOT1_>
    }
 8002d3e:	bf00      	nop
 8002d40:	370c      	adds	r7, #12
 8002d42:	46bd      	mov	sp, r7
 8002d44:	bd90      	pop	{r4, r7, pc}

08002d46 <_ZNSt9_Any_data9_M_accessIPSt5_BindIFMN8ICM426888icm42688EF7iIMU_SThES3_tEEEERT_v>:
      _M_access()
 8002d46:	b580      	push	{r7, lr}
 8002d48:	b082      	sub	sp, #8
 8002d4a:	af00      	add	r7, sp, #0
 8002d4c:	6078      	str	r0, [r7, #4]
      { return *static_cast<_Tp*>(_M_access()); }
 8002d4e:	6878      	ldr	r0, [r7, #4]
 8002d50:	f7fd ff71 	bl	8000c36 <_ZNSt9_Any_data9_M_accessEv>
 8002d54:	4603      	mov	r3, r0
 8002d56:	4618      	mov	r0, r3
 8002d58:	3708      	adds	r7, #8
 8002d5a:	46bd      	mov	sp, r7
 8002d5c:	bd80      	pop	{r7, pc}
	...

08002d60 <_ZNSt14_Function_base13_Base_managerISt5_BindIFMN8ICM426888icm42688EF7iIMU_SThES3_tEEE10_M_managerERSt9_Any_dataRKSA_St18_Manager_operation>:
	_M_manager(_Any_data& __dest, const _Any_data& __source,
 8002d60:	b590      	push	{r4, r7, lr}
 8002d62:	b085      	sub	sp, #20
 8002d64:	af00      	add	r7, sp, #0
 8002d66:	60f8      	str	r0, [r7, #12]
 8002d68:	60b9      	str	r1, [r7, #8]
 8002d6a:	4613      	mov	r3, r2
 8002d6c:	71fb      	strb	r3, [r7, #7]
	  switch (__op)
 8002d6e:	79fb      	ldrb	r3, [r7, #7]
 8002d70:	2b03      	cmp	r3, #3
 8002d72:	d82a      	bhi.n	8002dca <_ZNSt14_Function_base13_Base_managerISt5_BindIFMN8ICM426888icm42688EF7iIMU_SThES3_tEEE10_M_managerERSt9_Any_dataRKSA_St18_Manager_operation+0x6a>
 8002d74:	a201      	add	r2, pc, #4	; (adr r2, 8002d7c <_ZNSt14_Function_base13_Base_managerISt5_BindIFMN8ICM426888icm42688EF7iIMU_SThES3_tEEE10_M_managerERSt9_Any_dataRKSA_St18_Manager_operation+0x1c>)
 8002d76:	f852 f023 	ldr.w	pc, [r2, r3, lsl #2]
 8002d7a:	bf00      	nop
 8002d7c:	08002d8d 	.word	0x08002d8d
 8002d80:	08002d9b 	.word	0x08002d9b
 8002d84:	08002daf 	.word	0x08002daf
 8002d88:	08002dc1 	.word	0x08002dc1
	      __dest._M_access<const type_info*>() = nullptr;
 8002d8c:	68f8      	ldr	r0, [r7, #12]
 8002d8e:	f000 f909 	bl	8002fa4 <_ZNSt9_Any_data9_M_accessIPKSt9type_infoEERT_v>
 8002d92:	4603      	mov	r3, r0
 8002d94:	2200      	movs	r2, #0
 8002d96:	601a      	str	r2, [r3, #0]
	      break;
 8002d98:	e017      	b.n	8002dca <_ZNSt14_Function_base13_Base_managerISt5_BindIFMN8ICM426888icm42688EF7iIMU_SThES3_tEEE10_M_managerERSt9_Any_dataRKSA_St18_Manager_operation+0x6a>
	      __dest._M_access<_Functor*>() = _M_get_pointer(__source);
 8002d9a:	68f8      	ldr	r0, [r7, #12]
 8002d9c:	f7ff ffd3 	bl	8002d46 <_ZNSt9_Any_data9_M_accessIPSt5_BindIFMN8ICM426888icm42688EF7iIMU_SThES3_tEEEERT_v>
 8002da0:	4604      	mov	r4, r0
 8002da2:	68b8      	ldr	r0, [r7, #8]
 8002da4:	f7ff ffa1 	bl	8002cea <_ZNSt14_Function_base13_Base_managerISt5_BindIFMN8ICM426888icm42688EF7iIMU_SThES3_tEEE14_M_get_pointerERKSt9_Any_data>
 8002da8:	4603      	mov	r3, r0
 8002daa:	6023      	str	r3, [r4, #0]
	      break;
 8002dac:	e00d      	b.n	8002dca <_ZNSt14_Function_base13_Base_managerISt5_BindIFMN8ICM426888icm42688EF7iIMU_SThES3_tEEE10_M_managerERSt9_Any_dataRKSA_St18_Manager_operation+0x6a>
		  *const_cast<const _Functor*>(_M_get_pointer(__source)));
 8002dae:	68b8      	ldr	r0, [r7, #8]
 8002db0:	f7ff ff9b 	bl	8002cea <_ZNSt14_Function_base13_Base_managerISt5_BindIFMN8ICM426888icm42688EF7iIMU_SThES3_tEEE14_M_get_pointerERKSt9_Any_data>
 8002db4:	4603      	mov	r3, r0
	      _M_init_functor(__dest,
 8002db6:	4619      	mov	r1, r3
 8002db8:	68f8      	ldr	r0, [r7, #12]
 8002dba:	f000 f962 	bl	8003082 <_ZNSt14_Function_base13_Base_managerISt5_BindIFMN8ICM426888icm42688EF7iIMU_SThES3_tEEE15_M_init_functorIRKS8_EEvRSt9_Any_dataOT_>
	      break;
 8002dbe:	e004      	b.n	8002dca <_ZNSt14_Function_base13_Base_managerISt5_BindIFMN8ICM426888icm42688EF7iIMU_SThES3_tEEE10_M_managerERSt9_Any_dataRKSA_St18_Manager_operation+0x6a>
	      _M_destroy(__dest, _Local_storage());
 8002dc0:	4621      	mov	r1, r4
 8002dc2:	68f8      	ldr	r0, [r7, #12]
 8002dc4:	f000 f96f 	bl	80030a6 <_ZNSt14_Function_base13_Base_managerISt5_BindIFMN8ICM426888icm42688EF7iIMU_SThES3_tEEE10_M_destroyERSt9_Any_dataSt17integral_constantIbLb0EE>
	      break;
 8002dc8:	bf00      	nop
	  return false;
 8002dca:	2300      	movs	r3, #0
	}
 8002dcc:	4618      	mov	r0, r3
 8002dce:	3714      	adds	r7, #20
 8002dd0:	46bd      	mov	sp, r7
 8002dd2:	bd90      	pop	{r4, r7, pc}

08002dd4 <_ZN4iIMUC1ERKS_>:
 8002dd4:	b480      	push	{r7}
 8002dd6:	b083      	sub	sp, #12
 8002dd8:	af00      	add	r7, sp, #0
 8002dda:	6078      	str	r0, [r7, #4]
 8002ddc:	6039      	str	r1, [r7, #0]
 8002dde:	4a05      	ldr	r2, [pc, #20]	; (8002df4 <_ZN4iIMUC1ERKS_+0x20>)
 8002de0:	687b      	ldr	r3, [r7, #4]
 8002de2:	601a      	str	r2, [r3, #0]
 8002de4:	687b      	ldr	r3, [r7, #4]
 8002de6:	4618      	mov	r0, r3
 8002de8:	370c      	adds	r7, #12
 8002dea:	46bd      	mov	sp, r7
 8002dec:	f85d 7b04 	ldr.w	r7, [sp], #4
 8002df0:	4770      	bx	lr
 8002df2:	bf00      	nop
 8002df4:	08009834 	.word	0x08009834

08002df8 <_ZN8ICM426888icm42688C1ERKS0_>:
 8002df8:	b5b0      	push	{r4, r5, r7, lr}
 8002dfa:	b082      	sub	sp, #8
 8002dfc:	af00      	add	r7, sp, #0
 8002dfe:	6078      	str	r0, [r7, #4]
 8002e00:	6039      	str	r1, [r7, #0]
 8002e02:	687b      	ldr	r3, [r7, #4]
 8002e04:	683a      	ldr	r2, [r7, #0]
 8002e06:	4611      	mov	r1, r2
 8002e08:	4618      	mov	r0, r3
 8002e0a:	f7ff ffe3 	bl	8002dd4 <_ZN4iIMUC1ERKS_>
 8002e0e:	4a46      	ldr	r2, [pc, #280]	; (8002f28 <_ZN8ICM426888icm42688C1ERKS0_+0x130>)
 8002e10:	687b      	ldr	r3, [r7, #4]
 8002e12:	601a      	str	r2, [r3, #0]
 8002e14:	687a      	ldr	r2, [r7, #4]
 8002e16:	683b      	ldr	r3, [r7, #0]
 8002e18:	1d10      	adds	r0, r2, #4
 8002e1a:	3304      	adds	r3, #4
 8002e1c:	f44f 72e6 	mov.w	r2, #460	; 0x1cc
 8002e20:	4619      	mov	r1, r3
 8002e22:	f006 fc67 	bl	80096f4 <memcpy>
 8002e26:	687a      	ldr	r2, [r7, #4]
 8002e28:	683b      	ldr	r3, [r7, #0]
 8002e2a:	f502 74e8 	add.w	r4, r2, #464	; 0x1d0
 8002e2e:	f503 75e8 	add.w	r5, r3, #464	; 0x1d0
 8002e32:	cd0f      	ldmia	r5!, {r0, r1, r2, r3}
 8002e34:	c40f      	stmia	r4!, {r0, r1, r2, r3}
 8002e36:	cd0f      	ldmia	r5!, {r0, r1, r2, r3}
 8002e38:	c40f      	stmia	r4!, {r0, r1, r2, r3}
 8002e3a:	e895 0003 	ldmia.w	r5, {r0, r1}
 8002e3e:	e884 0003 	stmia.w	r4, {r0, r1}
 8002e42:	687a      	ldr	r2, [r7, #4]
 8002e44:	683b      	ldr	r3, [r7, #0]
 8002e46:	f502 74fc 	add.w	r4, r2, #504	; 0x1f8
 8002e4a:	f503 75fc 	add.w	r5, r3, #504	; 0x1f8
 8002e4e:	cd0f      	ldmia	r5!, {r0, r1, r2, r3}
 8002e50:	c40f      	stmia	r4!, {r0, r1, r2, r3}
 8002e52:	e895 000f 	ldmia.w	r5, {r0, r1, r2, r3}
 8002e56:	e884 000f 	stmia.w	r4, {r0, r1, r2, r3}
 8002e5a:	687a      	ldr	r2, [r7, #4]
 8002e5c:	683b      	ldr	r3, [r7, #0]
 8002e5e:	f502 7406 	add.w	r4, r2, #536	; 0x218
 8002e62:	f503 7506 	add.w	r5, r3, #536	; 0x218
 8002e66:	cd0f      	ldmia	r5!, {r0, r1, r2, r3}
 8002e68:	c40f      	stmia	r4!, {r0, r1, r2, r3}
 8002e6a:	e895 000f 	ldmia.w	r5, {r0, r1, r2, r3}
 8002e6e:	e884 000f 	stmia.w	r4, {r0, r1, r2, r3}
 8002e72:	687b      	ldr	r3, [r7, #4]
 8002e74:	683a      	ldr	r2, [r7, #0]
 8002e76:	f503 730e 	add.w	r3, r3, #568	; 0x238
 8002e7a:	f502 720e 	add.w	r2, r2, #568	; 0x238
 8002e7e:	e892 0003 	ldmia.w	r2, {r0, r1}
 8002e82:	6018      	str	r0, [r3, #0]
 8002e84:	3304      	adds	r3, #4
 8002e86:	8019      	strh	r1, [r3, #0]
 8002e88:	3302      	adds	r3, #2
 8002e8a:	0c0a      	lsrs	r2, r1, #16
 8002e8c:	701a      	strb	r2, [r3, #0]
 8002e8e:	683b      	ldr	r3, [r7, #0]
 8002e90:	f8d3 2240 	ldr.w	r2, [r3, #576]	; 0x240
 8002e94:	687b      	ldr	r3, [r7, #4]
 8002e96:	f8c3 2240 	str.w	r2, [r3, #576]	; 0x240
 8002e9a:	683b      	ldr	r3, [r7, #0]
 8002e9c:	f8d3 2244 	ldr.w	r2, [r3, #580]	; 0x244
 8002ea0:	687b      	ldr	r3, [r7, #4]
 8002ea2:	f8c3 2244 	str.w	r2, [r3, #580]	; 0x244
 8002ea6:	683b      	ldr	r3, [r7, #0]
 8002ea8:	f893 2248 	ldrb.w	r2, [r3, #584]	; 0x248
 8002eac:	687b      	ldr	r3, [r7, #4]
 8002eae:	f883 2248 	strb.w	r2, [r3, #584]	; 0x248
 8002eb2:	683b      	ldr	r3, [r7, #0]
 8002eb4:	f893 2249 	ldrb.w	r2, [r3, #585]	; 0x249
 8002eb8:	687b      	ldr	r3, [r7, #4]
 8002eba:	f883 2249 	strb.w	r2, [r3, #585]	; 0x249
 8002ebe:	683b      	ldr	r3, [r7, #0]
 8002ec0:	f8d3 224c 	ldr.w	r2, [r3, #588]	; 0x24c
 8002ec4:	687b      	ldr	r3, [r7, #4]
 8002ec6:	f8c3 224c 	str.w	r2, [r3, #588]	; 0x24c
 8002eca:	683b      	ldr	r3, [r7, #0]
 8002ecc:	f8d3 2250 	ldr.w	r2, [r3, #592]	; 0x250
 8002ed0:	687b      	ldr	r3, [r7, #4]
 8002ed2:	f8c3 2250 	str.w	r2, [r3, #592]	; 0x250
 8002ed6:	683b      	ldr	r3, [r7, #0]
 8002ed8:	f8d3 2254 	ldr.w	r2, [r3, #596]	; 0x254
 8002edc:	687b      	ldr	r3, [r7, #4]
 8002ede:	f8c3 2254 	str.w	r2, [r3, #596]	; 0x254
 8002ee2:	683b      	ldr	r3, [r7, #0]
 8002ee4:	f8d3 2258 	ldr.w	r2, [r3, #600]	; 0x258
 8002ee8:	687b      	ldr	r3, [r7, #4]
 8002eea:	f8c3 2258 	str.w	r2, [r3, #600]	; 0x258
 8002eee:	683b      	ldr	r3, [r7, #0]
 8002ef0:	f8d3 225c 	ldr.w	r2, [r3, #604]	; 0x25c
 8002ef4:	687b      	ldr	r3, [r7, #4]
 8002ef6:	f8c3 225c 	str.w	r2, [r3, #604]	; 0x25c
 8002efa:	683b      	ldr	r3, [r7, #0]
 8002efc:	f8d3 2260 	ldr.w	r2, [r3, #608]	; 0x260
 8002f00:	687b      	ldr	r3, [r7, #4]
 8002f02:	f8c3 2260 	str.w	r2, [r3, #608]	; 0x260
 8002f06:	683b      	ldr	r3, [r7, #0]
 8002f08:	f8d3 2264 	ldr.w	r2, [r3, #612]	; 0x264
 8002f0c:	687b      	ldr	r3, [r7, #4]
 8002f0e:	f8c3 2264 	str.w	r2, [r3, #612]	; 0x264
 8002f12:	683b      	ldr	r3, [r7, #0]
 8002f14:	f8d3 2268 	ldr.w	r2, [r3, #616]	; 0x268
 8002f18:	687b      	ldr	r3, [r7, #4]
 8002f1a:	f8c3 2268 	str.w	r2, [r3, #616]	; 0x268
 8002f1e:	687b      	ldr	r3, [r7, #4]
 8002f20:	4618      	mov	r0, r3
 8002f22:	3708      	adds	r7, #8
 8002f24:	46bd      	mov	sp, r7
 8002f26:	bdb0      	pop	{r4, r5, r7, pc}
 8002f28:	080097e4 	.word	0x080097e4

08002f2c <_ZNSt10_Head_baseILj0EN8ICM426888icm42688ELb0EEC1IRS1_EEOT_>:
        constexpr _Head_base(_UHead&& __h)
 8002f2c:	b590      	push	{r4, r7, lr}
 8002f2e:	b083      	sub	sp, #12
 8002f30:	af00      	add	r7, sp, #0
 8002f32:	6078      	str	r0, [r7, #4]
 8002f34:	6039      	str	r1, [r7, #0]
	: _M_head_impl(std::forward<_UHead>(__h)) { }
 8002f36:	687c      	ldr	r4, [r7, #4]
 8002f38:	6838      	ldr	r0, [r7, #0]
 8002f3a:	f7ff fb7b 	bl	8002634 <_ZSt7forwardIRN8ICM426888icm42688EEOT_RNSt16remove_referenceIS3_E4typeE>
 8002f3e:	4603      	mov	r3, r0
 8002f40:	4619      	mov	r1, r3
 8002f42:	4620      	mov	r0, r4
 8002f44:	f7ff ff58 	bl	8002df8 <_ZN8ICM426888icm42688C1ERKS0_>
 8002f48:	687b      	ldr	r3, [r7, #4]
 8002f4a:	4618      	mov	r0, r3
 8002f4c:	370c      	adds	r7, #12
 8002f4e:	46bd      	mov	sp, r7
 8002f50:	bd90      	pop	{r4, r7, pc}

08002f52 <_ZNKSt9_Any_data9_M_accessIPSt5_BindIFMN8ICM426888icm42688EF7iIMU_STvES3_EEEERKT_v>:
      _M_access() const
 8002f52:	b580      	push	{r7, lr}
 8002f54:	b082      	sub	sp, #8
 8002f56:	af00      	add	r7, sp, #0
 8002f58:	6078      	str	r0, [r7, #4]
      { return *static_cast<const _Tp*>(_M_access()); }
 8002f5a:	6878      	ldr	r0, [r7, #4]
 8002f5c:	f7fd fe76 	bl	8000c4c <_ZNKSt9_Any_data9_M_accessEv>
 8002f60:	4603      	mov	r3, r0
 8002f62:	4618      	mov	r0, r3
 8002f64:	3708      	adds	r7, #8
 8002f66:	46bd      	mov	sp, r7
 8002f68:	bd80      	pop	{r7, pc}

08002f6a <_ZSt7forwardIRSt5_BindIFMN8ICM426888icm42688EF7iIMU_STvES2_EEEOT_RNSt16remove_referenceIS9_E4typeE>:
    forward(typename std::remove_reference<_Tp>::type& __t) noexcept
 8002f6a:	b480      	push	{r7}
 8002f6c:	b083      	sub	sp, #12
 8002f6e:	af00      	add	r7, sp, #0
 8002f70:	6078      	str	r0, [r7, #4]
    { return static_cast<_Tp&&>(__t); }
 8002f72:	687b      	ldr	r3, [r7, #4]
 8002f74:	4618      	mov	r0, r3
 8002f76:	370c      	adds	r7, #12
 8002f78:	46bd      	mov	sp, r7
 8002f7a:	f85d 7b04 	ldr.w	r7, [sp], #4
 8002f7e:	4770      	bx	lr

08002f80 <_ZNSt5_BindIFMN8ICM426888icm42688EF7iIMU_STvES1_EEclIJES2_EET0_DpOT_>:
	operator()(_Args&&... __args)
 8002f80:	b590      	push	{r4, r7, lr}
 8002f82:	b085      	sub	sp, #20
 8002f84:	af00      	add	r7, sp, #0
 8002f86:	6078      	str	r0, [r7, #4]
	      std::forward_as_tuple(std::forward<_Args>(__args)...),
 8002f88:	f000 f8a2 	bl	80030d0 <_ZSt16forward_as_tupleIJEESt5tupleIJDpOT_EES3_>
	  return this->__call<_Result>(
 8002f8c:	f107 030c 	add.w	r3, r7, #12
 8002f90:	4622      	mov	r2, r4
 8002f92:	4619      	mov	r1, r3
 8002f94:	6878      	ldr	r0, [r7, #4]
 8002f96:	f000 f8a3 	bl	80030e0 <_ZNSt5_BindIFMN8ICM426888icm42688EF7iIMU_STvES1_EE6__callIS2_JEJLj0EEEET_OSt5tupleIJDpT0_EESt12_Index_tupleIJXspT1_EEE>
 8002f9a:	4603      	mov	r3, r0
	}
 8002f9c:	4618      	mov	r0, r3
 8002f9e:	3714      	adds	r7, #20
 8002fa0:	46bd      	mov	sp, r7
 8002fa2:	bd90      	pop	{r4, r7, pc}

08002fa4 <_ZNSt9_Any_data9_M_accessIPKSt9type_infoEERT_v>:
      _M_access()
 8002fa4:	b580      	push	{r7, lr}
 8002fa6:	b082      	sub	sp, #8
 8002fa8:	af00      	add	r7, sp, #0
 8002faa:	6078      	str	r0, [r7, #4]
      { return *static_cast<_Tp*>(_M_access()); }
 8002fac:	6878      	ldr	r0, [r7, #4]
 8002fae:	f7fd fe42 	bl	8000c36 <_ZNSt9_Any_data9_M_accessEv>
 8002fb2:	4603      	mov	r3, r0
 8002fb4:	4618      	mov	r0, r3
 8002fb6:	3708      	adds	r7, #8
 8002fb8:	46bd      	mov	sp, r7
 8002fba:	bd80      	pop	{r7, pc}

08002fbc <_ZNSt14_Function_base13_Base_managerISt5_BindIFMN8ICM426888icm42688EF7iIMU_STvES3_EEE15_M_init_functorIRKS8_EEvRSt9_Any_dataOT_>:
	  _M_init_functor(_Any_data& __functor, _Fn&& __f)
 8002fbc:	b590      	push	{r4, r7, lr}
 8002fbe:	b083      	sub	sp, #12
 8002fc0:	af00      	add	r7, sp, #0
 8002fc2:	6078      	str	r0, [r7, #4]
 8002fc4:	6039      	str	r1, [r7, #0]
	    _M_create(__functor, std::forward<_Fn>(__f), _Local_storage());
 8002fc6:	6838      	ldr	r0, [r7, #0]
 8002fc8:	f000 f8a7 	bl	800311a <_ZSt7forwardIRKSt5_BindIFMN8ICM426888icm42688EF7iIMU_STvES2_EEEOT_RNSt16remove_referenceISA_E4typeE>
 8002fcc:	4603      	mov	r3, r0
 8002fce:	4622      	mov	r2, r4
 8002fd0:	4619      	mov	r1, r3
 8002fd2:	6878      	ldr	r0, [r7, #4]
 8002fd4:	f000 f8f5 	bl	80031c2 <_ZNSt14_Function_base13_Base_managerISt5_BindIFMN8ICM426888icm42688EF7iIMU_STvES3_EEE9_M_createIRKS8_EEvRSt9_Any_dataOT_St17integral_constantIbLb0EE>
	  }
 8002fd8:	bf00      	nop
 8002fda:	370c      	adds	r7, #12
 8002fdc:	46bd      	mov	sp, r7
 8002fde:	bd90      	pop	{r4, r7, pc}

08002fe0 <_ZNSt14_Function_base13_Base_managerISt5_BindIFMN8ICM426888icm42688EF7iIMU_STvES3_EEE10_M_destroyERSt9_Any_dataSt17integral_constantIbLb0EE>:
	_M_destroy(_Any_data& __victim, false_type)
 8002fe0:	b580      	push	{r7, lr}
 8002fe2:	b082      	sub	sp, #8
 8002fe4:	af00      	add	r7, sp, #0
 8002fe6:	6078      	str	r0, [r7, #4]
 8002fe8:	7039      	strb	r1, [r7, #0]
	  delete __victim._M_access<_Functor*>();
 8002fea:	6878      	ldr	r0, [r7, #4]
 8002fec:	f7ff fdfc 	bl	8002be8 <_ZNSt9_Any_data9_M_accessIPSt5_BindIFMN8ICM426888icm42688EF7iIMU_STvES3_EEEERT_v>
 8002ff0:	4603      	mov	r3, r0
 8002ff2:	681b      	ldr	r3, [r3, #0]
 8002ff4:	2b00      	cmp	r3, #0
 8002ff6:	d004      	beq.n	8003002 <_ZNSt14_Function_base13_Base_managerISt5_BindIFMN8ICM426888icm42688EF7iIMU_STvES3_EEE10_M_destroyERSt9_Any_dataSt17integral_constantIbLb0EE+0x22>
 8002ff8:	f44f 711d 	mov.w	r1, #628	; 0x274
 8002ffc:	4618      	mov	r0, r3
 8002ffe:	f006 fa10 	bl	8009422 <_ZdlPvj>
	}
 8003002:	bf00      	nop
 8003004:	3708      	adds	r7, #8
 8003006:	46bd      	mov	sp, r7
 8003008:	bd80      	pop	{r7, pc}

0800300a <_ZNSt11_Tuple_implILj1EJtEEC1IRtEEOT_>:
	_Tuple_impl(_UHead&& __head)
 800300a:	b590      	push	{r4, r7, lr}
 800300c:	b083      	sub	sp, #12
 800300e:	af00      	add	r7, sp, #0
 8003010:	6078      	str	r0, [r7, #4]
 8003012:	6039      	str	r1, [r7, #0]
	: _Base(std::forward<_UHead>(__head))
 8003014:	687c      	ldr	r4, [r7, #4]
 8003016:	6838      	ldr	r0, [r7, #0]
 8003018:	f7ff fbae 	bl	8002778 <_ZSt7forwardIRtEOT_RNSt16remove_referenceIS1_E4typeE>
 800301c:	4603      	mov	r3, r0
 800301e:	4619      	mov	r1, r3
 8003020:	4620      	mov	r0, r4
 8003022:	f000 f8eb 	bl	80031fc <_ZNSt10_Head_baseILj1EtLb0EEC1IRtEEOT_>
	{ }
 8003026:	687b      	ldr	r3, [r7, #4]
 8003028:	4618      	mov	r0, r3
 800302a:	370c      	adds	r7, #12
 800302c:	46bd      	mov	sp, r7
 800302e:	bd90      	pop	{r4, r7, pc}

08003030 <_ZNKSt9_Any_data9_M_accessIPSt5_BindIFMN8ICM426888icm42688EF7iIMU_SThES3_tEEEERKT_v>:
      _M_access() const
 8003030:	b580      	push	{r7, lr}
 8003032:	b082      	sub	sp, #8
 8003034:	af00      	add	r7, sp, #0
 8003036:	6078      	str	r0, [r7, #4]
      { return *static_cast<const _Tp*>(_M_access()); }
 8003038:	6878      	ldr	r0, [r7, #4]
 800303a:	f7fd fe07 	bl	8000c4c <_ZNKSt9_Any_data9_M_accessEv>
 800303e:	4603      	mov	r3, r0
 8003040:	4618      	mov	r0, r3
 8003042:	3708      	adds	r7, #8
 8003044:	46bd      	mov	sp, r7
 8003046:	bd80      	pop	{r7, pc}

08003048 <_ZSt7forwardIRSt5_BindIFMN8ICM426888icm42688EF7iIMU_SThES2_tEEEOT_RNSt16remove_referenceIS9_E4typeE>:
    forward(typename std::remove_reference<_Tp>::type& __t) noexcept
 8003048:	b480      	push	{r7}
 800304a:	b083      	sub	sp, #12
 800304c:	af00      	add	r7, sp, #0
 800304e:	6078      	str	r0, [r7, #4]
    { return static_cast<_Tp&&>(__t); }
 8003050:	687b      	ldr	r3, [r7, #4]
 8003052:	4618      	mov	r0, r3
 8003054:	370c      	adds	r7, #12
 8003056:	46bd      	mov	sp, r7
 8003058:	f85d 7b04 	ldr.w	r7, [sp], #4
 800305c:	4770      	bx	lr

0800305e <_ZNSt5_BindIFMN8ICM426888icm42688EF7iIMU_SThES1_tEEclIJES2_EET0_DpOT_>:
	operator()(_Args&&... __args)
 800305e:	b590      	push	{r4, r7, lr}
 8003060:	b085      	sub	sp, #20
 8003062:	af00      	add	r7, sp, #0
 8003064:	6078      	str	r0, [r7, #4]
	      std::forward_as_tuple(std::forward<_Args>(__args)...),
 8003066:	f000 f833 	bl	80030d0 <_ZSt16forward_as_tupleIJEESt5tupleIJDpOT_EES3_>
	  return this->__call<_Result>(
 800306a:	f107 030c 	add.w	r3, r7, #12
 800306e:	4622      	mov	r2, r4
 8003070:	4619      	mov	r1, r3
 8003072:	6878      	ldr	r0, [r7, #4]
 8003074:	f000 f8d3 	bl	800321e <_ZNSt5_BindIFMN8ICM426888icm42688EF7iIMU_SThES1_tEE6__callIS2_JEJLj0ELj1EEEET_OSt5tupleIJDpT0_EESt12_Index_tupleIJXspT1_EEE>
 8003078:	4603      	mov	r3, r0
	}
 800307a:	4618      	mov	r0, r3
 800307c:	3714      	adds	r7, #20
 800307e:	46bd      	mov	sp, r7
 8003080:	bd90      	pop	{r4, r7, pc}

08003082 <_ZNSt14_Function_base13_Base_managerISt5_BindIFMN8ICM426888icm42688EF7iIMU_SThES3_tEEE15_M_init_functorIRKS8_EEvRSt9_Any_dataOT_>:
	  _M_init_functor(_Any_data& __functor, _Fn&& __f)
 8003082:	b590      	push	{r4, r7, lr}
 8003084:	b083      	sub	sp, #12
 8003086:	af00      	add	r7, sp, #0
 8003088:	6078      	str	r0, [r7, #4]
 800308a:	6039      	str	r1, [r7, #0]
	    _M_create(__functor, std::forward<_Fn>(__f), _Local_storage());
 800308c:	6838      	ldr	r0, [r7, #0]
 800308e:	f000 f8f1 	bl	8003274 <_ZSt7forwardIRKSt5_BindIFMN8ICM426888icm42688EF7iIMU_SThES2_tEEEOT_RNSt16remove_referenceISA_E4typeE>
 8003092:	4603      	mov	r3, r0
 8003094:	4622      	mov	r2, r4
 8003096:	4619      	mov	r1, r3
 8003098:	6878      	ldr	r0, [r7, #4]
 800309a:	f000 f935 	bl	8003308 <_ZNSt14_Function_base13_Base_managerISt5_BindIFMN8ICM426888icm42688EF7iIMU_SThES3_tEEE9_M_createIRKS8_EEvRSt9_Any_dataOT_St17integral_constantIbLb0EE>
	  }
 800309e:	bf00      	nop
 80030a0:	370c      	adds	r7, #12
 80030a2:	46bd      	mov	sp, r7
 80030a4:	bd90      	pop	{r4, r7, pc}

080030a6 <_ZNSt14_Function_base13_Base_managerISt5_BindIFMN8ICM426888icm42688EF7iIMU_SThES3_tEEE10_M_destroyERSt9_Any_dataSt17integral_constantIbLb0EE>:
	_M_destroy(_Any_data& __victim, false_type)
 80030a6:	b580      	push	{r7, lr}
 80030a8:	b082      	sub	sp, #8
 80030aa:	af00      	add	r7, sp, #0
 80030ac:	6078      	str	r0, [r7, #4]
 80030ae:	7039      	strb	r1, [r7, #0]
	  delete __victim._M_access<_Functor*>();
 80030b0:	6878      	ldr	r0, [r7, #4]
 80030b2:	f7ff fe48 	bl	8002d46 <_ZNSt9_Any_data9_M_accessIPSt5_BindIFMN8ICM426888icm42688EF7iIMU_SThES3_tEEEERT_v>
 80030b6:	4603      	mov	r3, r0
 80030b8:	681b      	ldr	r3, [r3, #0]
 80030ba:	2b00      	cmp	r3, #0
 80030bc:	d004      	beq.n	80030c8 <_ZNSt14_Function_base13_Base_managerISt5_BindIFMN8ICM426888icm42688EF7iIMU_SThES3_tEEE10_M_destroyERSt9_Any_dataSt17integral_constantIbLb0EE+0x22>
 80030be:	f44f 711e 	mov.w	r1, #632	; 0x278
 80030c2:	4618      	mov	r0, r3
 80030c4:	f006 f9ad 	bl	8009422 <_ZdlPvj>
	}
 80030c8:	bf00      	nop
 80030ca:	3708      	adds	r7, #8
 80030cc:	46bd      	mov	sp, r7
 80030ce:	bd80      	pop	{r7, pc}

080030d0 <_ZSt16forward_as_tupleIJEESt5tupleIJDpOT_EES3_>:
  // _GLIBCXX_RESOLVE_LIB_DEFECTS
  // 2275. Why is forward_as_tuple not constexpr?
  /// std::forward_as_tuple
  template<typename... _Elements>
    constexpr tuple<_Elements&&...>
    forward_as_tuple(_Elements&&... __args) noexcept
 80030d0:	b480      	push	{r7}
 80030d2:	af00      	add	r7, sp, #0
    { return tuple<_Elements&&...>(std::forward<_Elements>(__args)...); }
 80030d4:	bf00      	nop
 80030d6:	4618      	mov	r0, r3
 80030d8:	46bd      	mov	sp, r7
 80030da:	f85d 7b04 	ldr.w	r7, [sp], #4
 80030de:	4770      	bx	lr

080030e0 <_ZNSt5_BindIFMN8ICM426888icm42688EF7iIMU_STvES1_EE6__callIS2_JEJLj0EEEET_OSt5tupleIJDpT0_EESt12_Index_tupleIJXspT1_EEE>:
	__call(tuple<_Args...>&& __args, _Index_tuple<_Indexes...>)
 80030e0:	b590      	push	{r4, r7, lr}
 80030e2:	b087      	sub	sp, #28
 80030e4:	af00      	add	r7, sp, #0
 80030e6:	60f8      	str	r0, [r7, #12]
 80030e8:	60b9      	str	r1, [r7, #8]
 80030ea:	713a      	strb	r2, [r7, #4]
	  return std::__invoke(_M_f,
 80030ec:	68fc      	ldr	r4, [r7, #12]
	      _Mu<_Bound_args>()(std::get<_Indexes>(_M_bound_args), __args)...
 80030ee:	68fb      	ldr	r3, [r7, #12]
 80030f0:	3308      	adds	r3, #8
 80030f2:	4618      	mov	r0, r3
 80030f4:	f000 f925 	bl	8003342 <_ZSt3getILj0EJN8ICM426888icm42688EEERNSt13tuple_elementIXT_ESt5tupleIJDpT0_EEE4typeERS6_>
 80030f8:	4601      	mov	r1, r0
	  return std::__invoke(_M_f,
 80030fa:	f107 0314 	add.w	r3, r7, #20
 80030fe:	68ba      	ldr	r2, [r7, #8]
 8003100:	4618      	mov	r0, r3
 8003102:	f000 f92b 	bl	800335c <_ZNVKSt3_MuIN8ICM426888icm42688ELb0ELb0EEclIRS1_St5tupleIJEEEEOT_S8_RT0_>
 8003106:	4603      	mov	r3, r0
 8003108:	4619      	mov	r1, r3
 800310a:	4620      	mov	r0, r4
 800310c:	f000 f934 	bl	8003378 <_ZSt8__invokeIRMN8ICM426888icm42688EF7iIMU_STvEJRS1_EENSt15__invoke_resultIT_JDpT0_EE4typeEOS8_DpOS9_>
 8003110:	4603      	mov	r3, r0
	}
 8003112:	4618      	mov	r0, r3
 8003114:	371c      	adds	r7, #28
 8003116:	46bd      	mov	sp, r7
 8003118:	bd90      	pop	{r4, r7, pc}

0800311a <_ZSt7forwardIRKSt5_BindIFMN8ICM426888icm42688EF7iIMU_STvES2_EEEOT_RNSt16remove_referenceISA_E4typeE>:
    forward(typename std::remove_reference<_Tp>::type& __t) noexcept
 800311a:	b480      	push	{r7}
 800311c:	b083      	sub	sp, #12
 800311e:	af00      	add	r7, sp, #0
 8003120:	6078      	str	r0, [r7, #4]
    { return static_cast<_Tp&&>(__t); }
 8003122:	687b      	ldr	r3, [r7, #4]
 8003124:	4618      	mov	r0, r3
 8003126:	370c      	adds	r7, #12
 8003128:	46bd      	mov	sp, r7
 800312a:	f85d 7b04 	ldr.w	r7, [sp], #4
 800312e:	4770      	bx	lr

08003130 <_ZNSt10_Head_baseILj0EN8ICM426888icm42688ELb0EEC1ERKS2_>:
      constexpr _Head_base(const _Head_base&) = default;
 8003130:	b580      	push	{r7, lr}
 8003132:	b082      	sub	sp, #8
 8003134:	af00      	add	r7, sp, #0
 8003136:	6078      	str	r0, [r7, #4]
 8003138:	6039      	str	r1, [r7, #0]
 800313a:	687b      	ldr	r3, [r7, #4]
 800313c:	683a      	ldr	r2, [r7, #0]
 800313e:	4611      	mov	r1, r2
 8003140:	4618      	mov	r0, r3
 8003142:	f7ff fe59 	bl	8002df8 <_ZN8ICM426888icm42688C1ERKS0_>
 8003146:	687b      	ldr	r3, [r7, #4]
 8003148:	4618      	mov	r0, r3
 800314a:	3708      	adds	r7, #8
 800314c:	46bd      	mov	sp, r7
 800314e:	bd80      	pop	{r7, pc}

08003150 <_ZNSt11_Tuple_implILj0EJN8ICM426888icm42688EEEC1ERKS2_>:
      constexpr _Tuple_impl(const _Tuple_impl&) = default;
 8003150:	b580      	push	{r7, lr}
 8003152:	b082      	sub	sp, #8
 8003154:	af00      	add	r7, sp, #0
 8003156:	6078      	str	r0, [r7, #4]
 8003158:	6039      	str	r1, [r7, #0]
 800315a:	687b      	ldr	r3, [r7, #4]
 800315c:	683a      	ldr	r2, [r7, #0]
 800315e:	4611      	mov	r1, r2
 8003160:	4618      	mov	r0, r3
 8003162:	f7ff ffe5 	bl	8003130 <_ZNSt10_Head_baseILj0EN8ICM426888icm42688ELb0EEC1ERKS2_>
 8003166:	687b      	ldr	r3, [r7, #4]
 8003168:	4618      	mov	r0, r3
 800316a:	3708      	adds	r7, #8
 800316c:	46bd      	mov	sp, r7
 800316e:	bd80      	pop	{r7, pc}

08003170 <_ZNSt5tupleIJN8ICM426888icm42688EEEC1ERKS2_>:
      constexpr tuple(const tuple&) = default;
 8003170:	b580      	push	{r7, lr}
 8003172:	b082      	sub	sp, #8
 8003174:	af00      	add	r7, sp, #0
 8003176:	6078      	str	r0, [r7, #4]
 8003178:	6039      	str	r1, [r7, #0]
 800317a:	687b      	ldr	r3, [r7, #4]
 800317c:	683a      	ldr	r2, [r7, #0]
 800317e:	4611      	mov	r1, r2
 8003180:	4618      	mov	r0, r3
 8003182:	f7ff ffe5 	bl	8003150 <_ZNSt11_Tuple_implILj0EJN8ICM426888icm42688EEEC1ERKS2_>
 8003186:	687b      	ldr	r3, [r7, #4]
 8003188:	4618      	mov	r0, r3
 800318a:	3708      	adds	r7, #8
 800318c:	46bd      	mov	sp, r7
 800318e:	bd80      	pop	{r7, pc}

08003190 <_ZNSt5_BindIFMN8ICM426888icm42688EF7iIMU_STvES1_EEC1ERKS6_>:
      _Bind(const _Bind&) = default;
 8003190:	b580      	push	{r7, lr}
 8003192:	b082      	sub	sp, #8
 8003194:	af00      	add	r7, sp, #0
 8003196:	6078      	str	r0, [r7, #4]
 8003198:	6039      	str	r1, [r7, #0]
 800319a:	687b      	ldr	r3, [r7, #4]
 800319c:	683a      	ldr	r2, [r7, #0]
 800319e:	e892 0003 	ldmia.w	r2, {r0, r1}
 80031a2:	e883 0003 	stmia.w	r3, {r0, r1}
 80031a6:	687b      	ldr	r3, [r7, #4]
 80031a8:	f103 0208 	add.w	r2, r3, #8
 80031ac:	683b      	ldr	r3, [r7, #0]
 80031ae:	3308      	adds	r3, #8
 80031b0:	4619      	mov	r1, r3
 80031b2:	4610      	mov	r0, r2
 80031b4:	f7ff ffdc 	bl	8003170 <_ZNSt5tupleIJN8ICM426888icm42688EEEC1ERKS2_>
 80031b8:	687b      	ldr	r3, [r7, #4]
 80031ba:	4618      	mov	r0, r3
 80031bc:	3708      	adds	r7, #8
 80031be:	46bd      	mov	sp, r7
 80031c0:	bd80      	pop	{r7, pc}

080031c2 <_ZNSt14_Function_base13_Base_managerISt5_BindIFMN8ICM426888icm42688EF7iIMU_STvES3_EEE9_M_createIRKS8_EEvRSt9_Any_dataOT_St17integral_constantIbLb0EE>:
	  _M_create(_Any_data& __dest, _Fn&& __f, false_type)
 80031c2:	b5b0      	push	{r4, r5, r7, lr}
 80031c4:	b084      	sub	sp, #16
 80031c6:	af00      	add	r7, sp, #0
 80031c8:	60f8      	str	r0, [r7, #12]
 80031ca:	60b9      	str	r1, [r7, #8]
 80031cc:	713a      	strb	r2, [r7, #4]
	      = new _Functor(std::forward<_Fn>(__f));
 80031ce:	68b8      	ldr	r0, [r7, #8]
 80031d0:	f7ff ffa3 	bl	800311a <_ZSt7forwardIRKSt5_BindIFMN8ICM426888icm42688EF7iIMU_STvES2_EEEOT_RNSt16remove_referenceISA_E4typeE>
 80031d4:	4605      	mov	r5, r0
 80031d6:	f44f 701d 	mov.w	r0, #628	; 0x274
 80031da:	f006 f924 	bl	8009426 <_Znwj>
 80031de:	4603      	mov	r3, r0
 80031e0:	461c      	mov	r4, r3
 80031e2:	4629      	mov	r1, r5
 80031e4:	4620      	mov	r0, r4
 80031e6:	f7ff ffd3 	bl	8003190 <_ZNSt5_BindIFMN8ICM426888icm42688EF7iIMU_STvES1_EEC1ERKS6_>
	    __dest._M_access<_Functor*>()
 80031ea:	68f8      	ldr	r0, [r7, #12]
 80031ec:	f7ff fcfc 	bl	8002be8 <_ZNSt9_Any_data9_M_accessIPSt5_BindIFMN8ICM426888icm42688EF7iIMU_STvES3_EEEERT_v>
 80031f0:	4603      	mov	r3, r0
	      = new _Functor(std::forward<_Fn>(__f));
 80031f2:	601c      	str	r4, [r3, #0]
	  }
 80031f4:	bf00      	nop
 80031f6:	3710      	adds	r7, #16
 80031f8:	46bd      	mov	sp, r7
 80031fa:	bdb0      	pop	{r4, r5, r7, pc}

080031fc <_ZNSt10_Head_baseILj1EtLb0EEC1IRtEEOT_>:
        constexpr _Head_base(_UHead&& __h)
 80031fc:	b580      	push	{r7, lr}
 80031fe:	b082      	sub	sp, #8
 8003200:	af00      	add	r7, sp, #0
 8003202:	6078      	str	r0, [r7, #4]
 8003204:	6039      	str	r1, [r7, #0]
	: _M_head_impl(std::forward<_UHead>(__h)) { }
 8003206:	6838      	ldr	r0, [r7, #0]
 8003208:	f7ff fab6 	bl	8002778 <_ZSt7forwardIRtEOT_RNSt16remove_referenceIS1_E4typeE>
 800320c:	4603      	mov	r3, r0
 800320e:	881a      	ldrh	r2, [r3, #0]
 8003210:	687b      	ldr	r3, [r7, #4]
 8003212:	801a      	strh	r2, [r3, #0]
 8003214:	687b      	ldr	r3, [r7, #4]
 8003216:	4618      	mov	r0, r3
 8003218:	3708      	adds	r7, #8
 800321a:	46bd      	mov	sp, r7
 800321c:	bd80      	pop	{r7, pc}

0800321e <_ZNSt5_BindIFMN8ICM426888icm42688EF7iIMU_SThES1_tEE6__callIS2_JEJLj0ELj1EEEET_OSt5tupleIJDpT0_EESt12_Index_tupleIJXspT1_EEE>:
	__call(tuple<_Args...>&& __args, _Index_tuple<_Indexes...>)
 800321e:	b5b0      	push	{r4, r5, r7, lr}
 8003220:	b086      	sub	sp, #24
 8003222:	af00      	add	r7, sp, #0
 8003224:	60f8      	str	r0, [r7, #12]
 8003226:	60b9      	str	r1, [r7, #8]
 8003228:	713a      	strb	r2, [r7, #4]
	  return std::__invoke(_M_f,
 800322a:	68fc      	ldr	r4, [r7, #12]
	      _Mu<_Bound_args>()(std::get<_Indexes>(_M_bound_args), __args)...
 800322c:	68fb      	ldr	r3, [r7, #12]
 800322e:	3308      	adds	r3, #8
 8003230:	4618      	mov	r0, r3
 8003232:	f000 f8b8 	bl	80033a6 <_ZSt3getILj0EJN8ICM426888icm42688EtEERNSt13tuple_elementIXT_ESt5tupleIJDpT0_EEE4typeERS6_>
 8003236:	4601      	mov	r1, r0
	  return std::__invoke(_M_f,
 8003238:	f107 0310 	add.w	r3, r7, #16
 800323c:	68ba      	ldr	r2, [r7, #8]
 800323e:	4618      	mov	r0, r3
 8003240:	f000 f88c 	bl	800335c <_ZNVKSt3_MuIN8ICM426888icm42688ELb0ELb0EEclIRS1_St5tupleIJEEEEOT_S8_RT0_>
 8003244:	4605      	mov	r5, r0
	      _Mu<_Bound_args>()(std::get<_Indexes>(_M_bound_args), __args)...
 8003246:	68fb      	ldr	r3, [r7, #12]
 8003248:	3308      	adds	r3, #8
 800324a:	4618      	mov	r0, r3
 800324c:	f000 f8b8 	bl	80033c0 <_ZSt3getILj1EJN8ICM426888icm42688EtEERNSt13tuple_elementIXT_ESt5tupleIJDpT0_EEE4typeERS6_>
 8003250:	4601      	mov	r1, r0
	  return std::__invoke(_M_f,
 8003252:	f107 0314 	add.w	r3, r7, #20
 8003256:	68ba      	ldr	r2, [r7, #8]
 8003258:	4618      	mov	r0, r3
 800325a:	f000 f8be 	bl	80033da <_ZNVKSt3_MuItLb0ELb0EEclIRtSt5tupleIJEEEEOT_S6_RT0_>
 800325e:	4603      	mov	r3, r0
 8003260:	461a      	mov	r2, r3
 8003262:	4629      	mov	r1, r5
 8003264:	4620      	mov	r0, r4
 8003266:	f000 f8c6 	bl	80033f6 <_ZSt8__invokeIRMN8ICM426888icm42688EF7iIMU_SThEJRS1_RtEENSt15__invoke_resultIT_JDpT0_EE4typeEOS9_DpOSA_>
 800326a:	4603      	mov	r3, r0
	}
 800326c:	4618      	mov	r0, r3
 800326e:	3718      	adds	r7, #24
 8003270:	46bd      	mov	sp, r7
 8003272:	bdb0      	pop	{r4, r5, r7, pc}

08003274 <_ZSt7forwardIRKSt5_BindIFMN8ICM426888icm42688EF7iIMU_SThES2_tEEEOT_RNSt16remove_referenceISA_E4typeE>:
    forward(typename std::remove_reference<_Tp>::type& __t) noexcept
 8003274:	b480      	push	{r7}
 8003276:	b083      	sub	sp, #12
 8003278:	af00      	add	r7, sp, #0
 800327a:	6078      	str	r0, [r7, #4]
    { return static_cast<_Tp&&>(__t); }
 800327c:	687b      	ldr	r3, [r7, #4]
 800327e:	4618      	mov	r0, r3
 8003280:	370c      	adds	r7, #12
 8003282:	46bd      	mov	sp, r7
 8003284:	f85d 7b04 	ldr.w	r7, [sp], #4
 8003288:	4770      	bx	lr

0800328a <_ZNSt11_Tuple_implILj0EJN8ICM426888icm42688EtEEC1ERKS2_>:
      constexpr _Tuple_impl(const _Tuple_impl&) = default;
 800328a:	b580      	push	{r7, lr}
 800328c:	b082      	sub	sp, #8
 800328e:	af00      	add	r7, sp, #0
 8003290:	6078      	str	r0, [r7, #4]
 8003292:	6039      	str	r1, [r7, #0]
 8003294:	687b      	ldr	r3, [r7, #4]
 8003296:	683a      	ldr	r2, [r7, #0]
 8003298:	8812      	ldrh	r2, [r2, #0]
 800329a:	801a      	strh	r2, [r3, #0]
 800329c:	687b      	ldr	r3, [r7, #4]
 800329e:	1d1a      	adds	r2, r3, #4
 80032a0:	683b      	ldr	r3, [r7, #0]
 80032a2:	3304      	adds	r3, #4
 80032a4:	4619      	mov	r1, r3
 80032a6:	4610      	mov	r0, r2
 80032a8:	f7ff ff42 	bl	8003130 <_ZNSt10_Head_baseILj0EN8ICM426888icm42688ELb0EEC1ERKS2_>
 80032ac:	687b      	ldr	r3, [r7, #4]
 80032ae:	4618      	mov	r0, r3
 80032b0:	3708      	adds	r7, #8
 80032b2:	46bd      	mov	sp, r7
 80032b4:	bd80      	pop	{r7, pc}

080032b6 <_ZNSt5tupleIJN8ICM426888icm42688EtEEC1ERKS2_>:
      constexpr tuple(const tuple&) = default;
 80032b6:	b580      	push	{r7, lr}
 80032b8:	b082      	sub	sp, #8
 80032ba:	af00      	add	r7, sp, #0
 80032bc:	6078      	str	r0, [r7, #4]
 80032be:	6039      	str	r1, [r7, #0]
 80032c0:	687b      	ldr	r3, [r7, #4]
 80032c2:	683a      	ldr	r2, [r7, #0]
 80032c4:	4611      	mov	r1, r2
 80032c6:	4618      	mov	r0, r3
 80032c8:	f7ff ffdf 	bl	800328a <_ZNSt11_Tuple_implILj0EJN8ICM426888icm42688EtEEC1ERKS2_>
 80032cc:	687b      	ldr	r3, [r7, #4]
 80032ce:	4618      	mov	r0, r3
 80032d0:	3708      	adds	r7, #8
 80032d2:	46bd      	mov	sp, r7
 80032d4:	bd80      	pop	{r7, pc}

080032d6 <_ZNSt5_BindIFMN8ICM426888icm42688EF7iIMU_SThES1_tEEC1ERKS6_>:
      _Bind(const _Bind&) = default;
 80032d6:	b580      	push	{r7, lr}
 80032d8:	b082      	sub	sp, #8
 80032da:	af00      	add	r7, sp, #0
 80032dc:	6078      	str	r0, [r7, #4]
 80032de:	6039      	str	r1, [r7, #0]
 80032e0:	687b      	ldr	r3, [r7, #4]
 80032e2:	683a      	ldr	r2, [r7, #0]
 80032e4:	e892 0003 	ldmia.w	r2, {r0, r1}
 80032e8:	e883 0003 	stmia.w	r3, {r0, r1}
 80032ec:	687b      	ldr	r3, [r7, #4]
 80032ee:	f103 0208 	add.w	r2, r3, #8
 80032f2:	683b      	ldr	r3, [r7, #0]
 80032f4:	3308      	adds	r3, #8
 80032f6:	4619      	mov	r1, r3
 80032f8:	4610      	mov	r0, r2
 80032fa:	f7ff ffdc 	bl	80032b6 <_ZNSt5tupleIJN8ICM426888icm42688EtEEC1ERKS2_>
 80032fe:	687b      	ldr	r3, [r7, #4]
 8003300:	4618      	mov	r0, r3
 8003302:	3708      	adds	r7, #8
 8003304:	46bd      	mov	sp, r7
 8003306:	bd80      	pop	{r7, pc}

08003308 <_ZNSt14_Function_base13_Base_managerISt5_BindIFMN8ICM426888icm42688EF7iIMU_SThES3_tEEE9_M_createIRKS8_EEvRSt9_Any_dataOT_St17integral_constantIbLb0EE>:
	  _M_create(_Any_data& __dest, _Fn&& __f, false_type)
 8003308:	b5b0      	push	{r4, r5, r7, lr}
 800330a:	b084      	sub	sp, #16
 800330c:	af00      	add	r7, sp, #0
 800330e:	60f8      	str	r0, [r7, #12]
 8003310:	60b9      	str	r1, [r7, #8]
 8003312:	713a      	strb	r2, [r7, #4]
	      = new _Functor(std::forward<_Fn>(__f));
 8003314:	68b8      	ldr	r0, [r7, #8]
 8003316:	f7ff ffad 	bl	8003274 <_ZSt7forwardIRKSt5_BindIFMN8ICM426888icm42688EF7iIMU_SThES2_tEEEOT_RNSt16remove_referenceISA_E4typeE>
 800331a:	4605      	mov	r5, r0
 800331c:	f44f 701e 	mov.w	r0, #632	; 0x278
 8003320:	f006 f881 	bl	8009426 <_Znwj>
 8003324:	4603      	mov	r3, r0
 8003326:	461c      	mov	r4, r3
 8003328:	4629      	mov	r1, r5
 800332a:	4620      	mov	r0, r4
 800332c:	f7ff ffd3 	bl	80032d6 <_ZNSt5_BindIFMN8ICM426888icm42688EF7iIMU_SThES1_tEEC1ERKS6_>
	    __dest._M_access<_Functor*>()
 8003330:	68f8      	ldr	r0, [r7, #12]
 8003332:	f7ff fd08 	bl	8002d46 <_ZNSt9_Any_data9_M_accessIPSt5_BindIFMN8ICM426888icm42688EF7iIMU_SThES3_tEEEERT_v>
 8003336:	4603      	mov	r3, r0
	      = new _Functor(std::forward<_Fn>(__f));
 8003338:	601c      	str	r4, [r3, #0]
	  }
 800333a:	bf00      	nop
 800333c:	3710      	adds	r7, #16
 800333e:	46bd      	mov	sp, r7
 8003340:	bdb0      	pop	{r4, r5, r7, pc}

08003342 <_ZSt3getILj0EJN8ICM426888icm42688EEERNSt13tuple_elementIXT_ESt5tupleIJDpT0_EEE4typeERS6_>:
    get(tuple<_Elements...>& __t) noexcept
 8003342:	b580      	push	{r7, lr}
 8003344:	b082      	sub	sp, #8
 8003346:	af00      	add	r7, sp, #0
 8003348:	6078      	str	r0, [r7, #4]
    { return std::__get_helper<__i>(__t); }
 800334a:	687b      	ldr	r3, [r7, #4]
 800334c:	4618      	mov	r0, r3
 800334e:	f000 f86e 	bl	800342e <_ZSt12__get_helperILj0EN8ICM426888icm42688EJEERT0_RSt11_Tuple_implIXT_EJS2_DpT1_EE>
 8003352:	4603      	mov	r3, r0
 8003354:	4618      	mov	r0, r3
 8003356:	3708      	adds	r7, #8
 8003358:	46bd      	mov	sp, r7
 800335a:	bd80      	pop	{r7, pc}

0800335c <_ZNVKSt3_MuIN8ICM426888icm42688ELb0ELb0EEclIRS1_St5tupleIJEEEEOT_S8_RT0_>:
	operator()(_CVArg&& __arg, _Tuple&) const volatile
 800335c:	b580      	push	{r7, lr}
 800335e:	b084      	sub	sp, #16
 8003360:	af00      	add	r7, sp, #0
 8003362:	60f8      	str	r0, [r7, #12]
 8003364:	60b9      	str	r1, [r7, #8]
 8003366:	607a      	str	r2, [r7, #4]
	{ return std::forward<_CVArg>(__arg); }
 8003368:	68b8      	ldr	r0, [r7, #8]
 800336a:	f7ff f963 	bl	8002634 <_ZSt7forwardIRN8ICM426888icm42688EEOT_RNSt16remove_referenceIS3_E4typeE>
 800336e:	4603      	mov	r3, r0
 8003370:	4618      	mov	r0, r3
 8003372:	3710      	adds	r7, #16
 8003374:	46bd      	mov	sp, r7
 8003376:	bd80      	pop	{r7, pc}

08003378 <_ZSt8__invokeIRMN8ICM426888icm42688EF7iIMU_STvEJRS1_EENSt15__invoke_resultIT_JDpT0_EE4typeEOS8_DpOS9_>:
    __invoke(_Callable&& __fn, _Args&&... __args)
 8003378:	b5b0      	push	{r4, r5, r7, lr}
 800337a:	b082      	sub	sp, #8
 800337c:	af00      	add	r7, sp, #0
 800337e:	6078      	str	r0, [r7, #4]
 8003380:	6039      	str	r1, [r7, #0]
      return std::__invoke_impl<__type>(__tag{}, std::forward<_Callable>(__fn),
 8003382:	6878      	ldr	r0, [r7, #4]
 8003384:	f000 f85f 	bl	8003446 <_ZSt7forwardIRMN8ICM426888icm42688EF7iIMU_STvEEOT_RNSt16remove_referenceIS6_E4typeE>
 8003388:	4604      	mov	r4, r0
 800338a:	6838      	ldr	r0, [r7, #0]
 800338c:	f7ff f952 	bl	8002634 <_ZSt7forwardIRN8ICM426888icm42688EEOT_RNSt16remove_referenceIS3_E4typeE>
 8003390:	4603      	mov	r3, r0
 8003392:	461a      	mov	r2, r3
 8003394:	4621      	mov	r1, r4
 8003396:	4628      	mov	r0, r5
 8003398:	f000 f860 	bl	800345c <_ZSt13__invoke_implI7iIMU_STRMN8ICM426888icm42688EFS0_vERS2_JEET_St19__invoke_memfun_refOT0_OT1_DpOT2_>
 800339c:	4603      	mov	r3, r0
    }
 800339e:	4618      	mov	r0, r3
 80033a0:	3708      	adds	r7, #8
 80033a2:	46bd      	mov	sp, r7
 80033a4:	bdb0      	pop	{r4, r5, r7, pc}

080033a6 <_ZSt3getILj0EJN8ICM426888icm42688EtEERNSt13tuple_elementIXT_ESt5tupleIJDpT0_EEE4typeERS6_>:
    get(tuple<_Elements...>& __t) noexcept
 80033a6:	b580      	push	{r7, lr}
 80033a8:	b082      	sub	sp, #8
 80033aa:	af00      	add	r7, sp, #0
 80033ac:	6078      	str	r0, [r7, #4]
    { return std::__get_helper<__i>(__t); }
 80033ae:	687b      	ldr	r3, [r7, #4]
 80033b0:	4618      	mov	r0, r3
 80033b2:	f000 f87a 	bl	80034aa <_ZSt12__get_helperILj0EN8ICM426888icm42688EJtEERT0_RSt11_Tuple_implIXT_EJS2_DpT1_EE>
 80033b6:	4603      	mov	r3, r0
 80033b8:	4618      	mov	r0, r3
 80033ba:	3708      	adds	r7, #8
 80033bc:	46bd      	mov	sp, r7
 80033be:	bd80      	pop	{r7, pc}

080033c0 <_ZSt3getILj1EJN8ICM426888icm42688EtEERNSt13tuple_elementIXT_ESt5tupleIJDpT0_EEE4typeERS6_>:
    get(tuple<_Elements...>& __t) noexcept
 80033c0:	b580      	push	{r7, lr}
 80033c2:	b082      	sub	sp, #8
 80033c4:	af00      	add	r7, sp, #0
 80033c6:	6078      	str	r0, [r7, #4]
    { return std::__get_helper<__i>(__t); }
 80033c8:	687b      	ldr	r3, [r7, #4]
 80033ca:	4618      	mov	r0, r3
 80033cc:	f000 f879 	bl	80034c2 <_ZSt12__get_helperILj1EtJEERT0_RSt11_Tuple_implIXT_EJS0_DpT1_EE>
 80033d0:	4603      	mov	r3, r0
 80033d2:	4618      	mov	r0, r3
 80033d4:	3708      	adds	r7, #8
 80033d6:	46bd      	mov	sp, r7
 80033d8:	bd80      	pop	{r7, pc}

080033da <_ZNVKSt3_MuItLb0ELb0EEclIRtSt5tupleIJEEEEOT_S6_RT0_>:
	operator()(_CVArg&& __arg, _Tuple&) const volatile
 80033da:	b580      	push	{r7, lr}
 80033dc:	b084      	sub	sp, #16
 80033de:	af00      	add	r7, sp, #0
 80033e0:	60f8      	str	r0, [r7, #12]
 80033e2:	60b9      	str	r1, [r7, #8]
 80033e4:	607a      	str	r2, [r7, #4]
	{ return std::forward<_CVArg>(__arg); }
 80033e6:	68b8      	ldr	r0, [r7, #8]
 80033e8:	f7ff f9c6 	bl	8002778 <_ZSt7forwardIRtEOT_RNSt16remove_referenceIS1_E4typeE>
 80033ec:	4603      	mov	r3, r0
 80033ee:	4618      	mov	r0, r3
 80033f0:	3710      	adds	r7, #16
 80033f2:	46bd      	mov	sp, r7
 80033f4:	bd80      	pop	{r7, pc}

080033f6 <_ZSt8__invokeIRMN8ICM426888icm42688EF7iIMU_SThEJRS1_RtEENSt15__invoke_resultIT_JDpT0_EE4typeEOS9_DpOSA_>:
    __invoke(_Callable&& __fn, _Args&&... __args)
 80033f6:	b5f0      	push	{r4, r5, r6, r7, lr}
 80033f8:	b085      	sub	sp, #20
 80033fa:	af00      	add	r7, sp, #0
 80033fc:	60f8      	str	r0, [r7, #12]
 80033fe:	60b9      	str	r1, [r7, #8]
 8003400:	607a      	str	r2, [r7, #4]
      return std::__invoke_impl<__type>(__tag{}, std::forward<_Callable>(__fn),
 8003402:	68f8      	ldr	r0, [r7, #12]
 8003404:	f000 f869 	bl	80034da <_ZSt7forwardIRMN8ICM426888icm42688EF7iIMU_SThEEOT_RNSt16remove_referenceIS6_E4typeE>
 8003408:	4604      	mov	r4, r0
 800340a:	68b8      	ldr	r0, [r7, #8]
 800340c:	f7ff f912 	bl	8002634 <_ZSt7forwardIRN8ICM426888icm42688EEOT_RNSt16remove_referenceIS3_E4typeE>
 8003410:	4605      	mov	r5, r0
 8003412:	6878      	ldr	r0, [r7, #4]
 8003414:	f7ff f9b0 	bl	8002778 <_ZSt7forwardIRtEOT_RNSt16remove_referenceIS1_E4typeE>
 8003418:	4603      	mov	r3, r0
 800341a:	462a      	mov	r2, r5
 800341c:	4621      	mov	r1, r4
 800341e:	4630      	mov	r0, r6
 8003420:	f000 f866 	bl	80034f0 <_ZSt13__invoke_implI7iIMU_STRMN8ICM426888icm42688EFS0_hERS2_JRtEET_St19__invoke_memfun_refOT0_OT1_DpOT2_>
 8003424:	4603      	mov	r3, r0
    }
 8003426:	4618      	mov	r0, r3
 8003428:	3714      	adds	r7, #20
 800342a:	46bd      	mov	sp, r7
 800342c:	bdf0      	pop	{r4, r5, r6, r7, pc}

0800342e <_ZSt12__get_helperILj0EN8ICM426888icm42688EJEERT0_RSt11_Tuple_implIXT_EJS2_DpT1_EE>:
    __get_helper(_Tuple_impl<__i, _Head, _Tail...>& __t) noexcept
 800342e:	b580      	push	{r7, lr}
 8003430:	b082      	sub	sp, #8
 8003432:	af00      	add	r7, sp, #0
 8003434:	6078      	str	r0, [r7, #4]
    { return _Tuple_impl<__i, _Head, _Tail...>::_M_head(__t); }
 8003436:	6878      	ldr	r0, [r7, #4]
 8003438:	f000 f889 	bl	800354e <_ZNSt11_Tuple_implILj0EJN8ICM426888icm42688EEE7_M_headERS2_>
 800343c:	4603      	mov	r3, r0
 800343e:	4618      	mov	r0, r3
 8003440:	3708      	adds	r7, #8
 8003442:	46bd      	mov	sp, r7
 8003444:	bd80      	pop	{r7, pc}

08003446 <_ZSt7forwardIRMN8ICM426888icm42688EF7iIMU_STvEEOT_RNSt16remove_referenceIS6_E4typeE>:
    forward(typename std::remove_reference<_Tp>::type& __t) noexcept
 8003446:	b480      	push	{r7}
 8003448:	b083      	sub	sp, #12
 800344a:	af00      	add	r7, sp, #0
 800344c:	6078      	str	r0, [r7, #4]
    { return static_cast<_Tp&&>(__t); }
 800344e:	687b      	ldr	r3, [r7, #4]
 8003450:	4618      	mov	r0, r3
 8003452:	370c      	adds	r7, #12
 8003454:	46bd      	mov	sp, r7
 8003456:	f85d 7b04 	ldr.w	r7, [sp], #4
 800345a:	4770      	bx	lr

0800345c <_ZSt13__invoke_implI7iIMU_STRMN8ICM426888icm42688EFS0_vERS2_JEET_St19__invoke_memfun_refOT0_OT1_DpOT2_>:
    __invoke_impl(__invoke_memfun_ref, _MemFun&& __f, _Tp&& __t,
 800345c:	b580      	push	{r7, lr}
 800345e:	b084      	sub	sp, #16
 8003460:	af00      	add	r7, sp, #0
 8003462:	7338      	strb	r0, [r7, #12]
 8003464:	60b9      	str	r1, [r7, #8]
 8003466:	607a      	str	r2, [r7, #4]
    { return (__invfwd<_Tp>(__t).*__f)(std::forward<_Args>(__args)...); }
 8003468:	6878      	ldr	r0, [r7, #4]
 800346a:	f000 f87d 	bl	8003568 <_ZSt8__invfwdIRN8ICM426888icm42688ES2_EOT0_RNSt16remove_referenceIT_E4typeE>
 800346e:	4603      	mov	r3, r0
 8003470:	68ba      	ldr	r2, [r7, #8]
 8003472:	6852      	ldr	r2, [r2, #4]
 8003474:	1052      	asrs	r2, r2, #1
 8003476:	1899      	adds	r1, r3, r2
 8003478:	68ba      	ldr	r2, [r7, #8]
 800347a:	6852      	ldr	r2, [r2, #4]
 800347c:	f002 0201 	and.w	r2, r2, #1
 8003480:	2a00      	cmp	r2, #0
 8003482:	d102      	bne.n	800348a <_ZSt13__invoke_implI7iIMU_STRMN8ICM426888icm42688EFS0_vERS2_JEET_St19__invoke_memfun_refOT0_OT1_DpOT2_+0x2e>
 8003484:	68bb      	ldr	r3, [r7, #8]
 8003486:	681b      	ldr	r3, [r3, #0]
 8003488:	e008      	b.n	800349c <_ZSt13__invoke_implI7iIMU_STRMN8ICM426888icm42688EFS0_vERS2_JEET_St19__invoke_memfun_refOT0_OT1_DpOT2_+0x40>
 800348a:	68ba      	ldr	r2, [r7, #8]
 800348c:	6852      	ldr	r2, [r2, #4]
 800348e:	1052      	asrs	r2, r2, #1
 8003490:	4413      	add	r3, r2
 8003492:	681b      	ldr	r3, [r3, #0]
 8003494:	68ba      	ldr	r2, [r7, #8]
 8003496:	6812      	ldr	r2, [r2, #0]
 8003498:	4413      	add	r3, r2
 800349a:	681b      	ldr	r3, [r3, #0]
 800349c:	4608      	mov	r0, r1
 800349e:	4798      	blx	r3
 80034a0:	4603      	mov	r3, r0
 80034a2:	4618      	mov	r0, r3
 80034a4:	3710      	adds	r7, #16
 80034a6:	46bd      	mov	sp, r7
 80034a8:	bd80      	pop	{r7, pc}

080034aa <_ZSt12__get_helperILj0EN8ICM426888icm42688EJtEERT0_RSt11_Tuple_implIXT_EJS2_DpT1_EE>:
    __get_helper(_Tuple_impl<__i, _Head, _Tail...>& __t) noexcept
 80034aa:	b580      	push	{r7, lr}
 80034ac:	b082      	sub	sp, #8
 80034ae:	af00      	add	r7, sp, #0
 80034b0:	6078      	str	r0, [r7, #4]
    { return _Tuple_impl<__i, _Head, _Tail...>::_M_head(__t); }
 80034b2:	6878      	ldr	r0, [r7, #4]
 80034b4:	f000 f863 	bl	800357e <_ZNSt11_Tuple_implILj0EJN8ICM426888icm42688EtEE7_M_headERS2_>
 80034b8:	4603      	mov	r3, r0
 80034ba:	4618      	mov	r0, r3
 80034bc:	3708      	adds	r7, #8
 80034be:	46bd      	mov	sp, r7
 80034c0:	bd80      	pop	{r7, pc}

080034c2 <_ZSt12__get_helperILj1EtJEERT0_RSt11_Tuple_implIXT_EJS0_DpT1_EE>:
    __get_helper(_Tuple_impl<__i, _Head, _Tail...>& __t) noexcept
 80034c2:	b580      	push	{r7, lr}
 80034c4:	b082      	sub	sp, #8
 80034c6:	af00      	add	r7, sp, #0
 80034c8:	6078      	str	r0, [r7, #4]
    { return _Tuple_impl<__i, _Head, _Tail...>::_M_head(__t); }
 80034ca:	6878      	ldr	r0, [r7, #4]
 80034cc:	f000 f865 	bl	800359a <_ZNSt11_Tuple_implILj1EJtEE7_M_headERS0_>
 80034d0:	4603      	mov	r3, r0
 80034d2:	4618      	mov	r0, r3
 80034d4:	3708      	adds	r7, #8
 80034d6:	46bd      	mov	sp, r7
 80034d8:	bd80      	pop	{r7, pc}

080034da <_ZSt7forwardIRMN8ICM426888icm42688EF7iIMU_SThEEOT_RNSt16remove_referenceIS6_E4typeE>:
    forward(typename std::remove_reference<_Tp>::type& __t) noexcept
 80034da:	b480      	push	{r7}
 80034dc:	b083      	sub	sp, #12
 80034de:	af00      	add	r7, sp, #0
 80034e0:	6078      	str	r0, [r7, #4]
    { return static_cast<_Tp&&>(__t); }
 80034e2:	687b      	ldr	r3, [r7, #4]
 80034e4:	4618      	mov	r0, r3
 80034e6:	370c      	adds	r7, #12
 80034e8:	46bd      	mov	sp, r7
 80034ea:	f85d 7b04 	ldr.w	r7, [sp], #4
 80034ee:	4770      	bx	lr

080034f0 <_ZSt13__invoke_implI7iIMU_STRMN8ICM426888icm42688EFS0_hERS2_JRtEET_St19__invoke_memfun_refOT0_OT1_DpOT2_>:
    __invoke_impl(__invoke_memfun_ref, _MemFun&& __f, _Tp&& __t,
 80034f0:	b5b0      	push	{r4, r5, r7, lr}
 80034f2:	b084      	sub	sp, #16
 80034f4:	af00      	add	r7, sp, #0
 80034f6:	7338      	strb	r0, [r7, #12]
 80034f8:	60b9      	str	r1, [r7, #8]
 80034fa:	607a      	str	r2, [r7, #4]
 80034fc:	603b      	str	r3, [r7, #0]
    { return (__invfwd<_Tp>(__t).*__f)(std::forward<_Args>(__args)...); }
 80034fe:	6878      	ldr	r0, [r7, #4]
 8003500:	f000 f832 	bl	8003568 <_ZSt8__invfwdIRN8ICM426888icm42688ES2_EOT0_RNSt16remove_referenceIT_E4typeE>
 8003504:	4603      	mov	r3, r0
 8003506:	68ba      	ldr	r2, [r7, #8]
 8003508:	6852      	ldr	r2, [r2, #4]
 800350a:	1052      	asrs	r2, r2, #1
 800350c:	189d      	adds	r5, r3, r2
 800350e:	68ba      	ldr	r2, [r7, #8]
 8003510:	6852      	ldr	r2, [r2, #4]
 8003512:	f002 0201 	and.w	r2, r2, #1
 8003516:	2a00      	cmp	r2, #0
 8003518:	d102      	bne.n	8003520 <_ZSt13__invoke_implI7iIMU_STRMN8ICM426888icm42688EFS0_hERS2_JRtEET_St19__invoke_memfun_refOT0_OT1_DpOT2_+0x30>
 800351a:	68bb      	ldr	r3, [r7, #8]
 800351c:	681c      	ldr	r4, [r3, #0]
 800351e:	e008      	b.n	8003532 <_ZSt13__invoke_implI7iIMU_STRMN8ICM426888icm42688EFS0_hERS2_JRtEET_St19__invoke_memfun_refOT0_OT1_DpOT2_+0x42>
 8003520:	68ba      	ldr	r2, [r7, #8]
 8003522:	6852      	ldr	r2, [r2, #4]
 8003524:	1052      	asrs	r2, r2, #1
 8003526:	4413      	add	r3, r2
 8003528:	681b      	ldr	r3, [r3, #0]
 800352a:	68ba      	ldr	r2, [r7, #8]
 800352c:	6812      	ldr	r2, [r2, #0]
 800352e:	4413      	add	r3, r2
 8003530:	681c      	ldr	r4, [r3, #0]
 8003532:	6838      	ldr	r0, [r7, #0]
 8003534:	f7ff f920 	bl	8002778 <_ZSt7forwardIRtEOT_RNSt16remove_referenceIS1_E4typeE>
 8003538:	4603      	mov	r3, r0
 800353a:	881b      	ldrh	r3, [r3, #0]
 800353c:	b2db      	uxtb	r3, r3
 800353e:	4619      	mov	r1, r3
 8003540:	4628      	mov	r0, r5
 8003542:	47a0      	blx	r4
 8003544:	4603      	mov	r3, r0
 8003546:	4618      	mov	r0, r3
 8003548:	3710      	adds	r7, #16
 800354a:	46bd      	mov	sp, r7
 800354c:	bdb0      	pop	{r4, r5, r7, pc}

0800354e <_ZNSt11_Tuple_implILj0EJN8ICM426888icm42688EEE7_M_headERS2_>:
      _M_head(_Tuple_impl& __t) noexcept { return _Base::_M_head(__t); }
 800354e:	b580      	push	{r7, lr}
 8003550:	b082      	sub	sp, #8
 8003552:	af00      	add	r7, sp, #0
 8003554:	6078      	str	r0, [r7, #4]
 8003556:	687b      	ldr	r3, [r7, #4]
 8003558:	4618      	mov	r0, r3
 800355a:	f000 f82b 	bl	80035b4 <_ZNSt10_Head_baseILj0EN8ICM426888icm42688ELb0EE7_M_headERS2_>
 800355e:	4603      	mov	r3, r0
 8003560:	4618      	mov	r0, r3
 8003562:	3708      	adds	r7, #8
 8003564:	46bd      	mov	sp, r7
 8003566:	bd80      	pop	{r7, pc}

08003568 <_ZSt8__invfwdIRN8ICM426888icm42688ES2_EOT0_RNSt16remove_referenceIT_E4typeE>:
    __invfwd(typename remove_reference<_Tp>::type& __t) noexcept
 8003568:	b480      	push	{r7}
 800356a:	b083      	sub	sp, #12
 800356c:	af00      	add	r7, sp, #0
 800356e:	6078      	str	r0, [r7, #4]
    { return static_cast<_Up&&>(__t); }
 8003570:	687b      	ldr	r3, [r7, #4]
 8003572:	4618      	mov	r0, r3
 8003574:	370c      	adds	r7, #12
 8003576:	46bd      	mov	sp, r7
 8003578:	f85d 7b04 	ldr.w	r7, [sp], #4
 800357c:	4770      	bx	lr

0800357e <_ZNSt11_Tuple_implILj0EJN8ICM426888icm42688EtEE7_M_headERS2_>:
      _M_head(_Tuple_impl& __t) noexcept { return _Base::_M_head(__t); }
 800357e:	b580      	push	{r7, lr}
 8003580:	b082      	sub	sp, #8
 8003582:	af00      	add	r7, sp, #0
 8003584:	6078      	str	r0, [r7, #4]
 8003586:	687b      	ldr	r3, [r7, #4]
 8003588:	3304      	adds	r3, #4
 800358a:	4618      	mov	r0, r3
 800358c:	f000 f812 	bl	80035b4 <_ZNSt10_Head_baseILj0EN8ICM426888icm42688ELb0EE7_M_headERS2_>
 8003590:	4603      	mov	r3, r0
 8003592:	4618      	mov	r0, r3
 8003594:	3708      	adds	r7, #8
 8003596:	46bd      	mov	sp, r7
 8003598:	bd80      	pop	{r7, pc}

0800359a <_ZNSt11_Tuple_implILj1EJtEE7_M_headERS0_>:
      _M_head(_Tuple_impl& __t) noexcept { return _Base::_M_head(__t); }
 800359a:	b580      	push	{r7, lr}
 800359c:	b082      	sub	sp, #8
 800359e:	af00      	add	r7, sp, #0
 80035a0:	6078      	str	r0, [r7, #4]
 80035a2:	687b      	ldr	r3, [r7, #4]
 80035a4:	4618      	mov	r0, r3
 80035a6:	f000 f810 	bl	80035ca <_ZNSt10_Head_baseILj1EtLb0EE7_M_headERS0_>
 80035aa:	4603      	mov	r3, r0
 80035ac:	4618      	mov	r0, r3
 80035ae:	3708      	adds	r7, #8
 80035b0:	46bd      	mov	sp, r7
 80035b2:	bd80      	pop	{r7, pc}

080035b4 <_ZNSt10_Head_baseILj0EN8ICM426888icm42688ELb0EE7_M_headERS2_>:
      _M_head(_Head_base& __b) noexcept { return __b._M_head_impl; }
 80035b4:	b480      	push	{r7}
 80035b6:	b083      	sub	sp, #12
 80035b8:	af00      	add	r7, sp, #0
 80035ba:	6078      	str	r0, [r7, #4]
 80035bc:	687b      	ldr	r3, [r7, #4]
 80035be:	4618      	mov	r0, r3
 80035c0:	370c      	adds	r7, #12
 80035c2:	46bd      	mov	sp, r7
 80035c4:	f85d 7b04 	ldr.w	r7, [sp], #4
 80035c8:	4770      	bx	lr

080035ca <_ZNSt10_Head_baseILj1EtLb0EE7_M_headERS0_>:
 80035ca:	b480      	push	{r7}
 80035cc:	b083      	sub	sp, #12
 80035ce:	af00      	add	r7, sp, #0
 80035d0:	6078      	str	r0, [r7, #4]
 80035d2:	687b      	ldr	r3, [r7, #4]
 80035d4:	4618      	mov	r0, r3
 80035d6:	370c      	adds	r7, #12
 80035d8:	46bd      	mov	sp, r7
 80035da:	f85d 7b04 	ldr.w	r7, [sp], #4
 80035de:	4770      	bx	lr

080035e0 <_ZN8ICM426888GYRO_CNFlsEhNS0_3FSRE>:
        {
 80035e0:	b480      	push	{r7}
 80035e2:	b083      	sub	sp, #12
 80035e4:	af00      	add	r7, sp, #0
 80035e6:	4603      	mov	r3, r0
 80035e8:	6039      	str	r1, [r7, #0]
 80035ea:	71fb      	strb	r3, [r7, #7]
            return  n << static_cast<uint8_t> (fsr);
 80035ec:	79fb      	ldrb	r3, [r7, #7]
 80035ee:	683a      	ldr	r2, [r7, #0]
 80035f0:	b2d2      	uxtb	r2, r2
 80035f2:	4093      	lsls	r3, r2
        }   
 80035f4:	4618      	mov	r0, r3
 80035f6:	370c      	adds	r7, #12
 80035f8:	46bd      	mov	sp, r7
 80035fa:	f85d 7b04 	ldr.w	r7, [sp], #4
 80035fe:	4770      	bx	lr

08003600 <_ZN8ICM426889ACCEL_CNFlsEhNS0_3FSRE>:
        {
 8003600:	b480      	push	{r7}
 8003602:	b083      	sub	sp, #12
 8003604:	af00      	add	r7, sp, #0
 8003606:	4603      	mov	r3, r0
 8003608:	6039      	str	r1, [r7, #0]
 800360a:	71fb      	strb	r3, [r7, #7]
            return  n << static_cast<uint8_t> (fsr);
 800360c:	79fb      	ldrb	r3, [r7, #7]
 800360e:	683a      	ldr	r2, [r7, #0]
 8003610:	b2d2      	uxtb	r2, r2
 8003612:	4093      	lsls	r3, r2
        } 
 8003614:	4618      	mov	r0, r3
 8003616:	370c      	adds	r7, #12
 8003618:	46bd      	mov	sp, r7
 800361a:	f85d 7b04 	ldr.w	r7, [sp], #4
 800361e:	4770      	bx	lr

08003620 <_ZN8ICM4268823map_gyro_ODR_CNF_to_ODRENS_8GYRO_CNF3ODRE>:

namespace ICM42688{

    //float map_gyro_ODR_CNF_to_ODR(const config& cnf){

	float map_gyro_ODR_CNF_to_ODR(GYRO_CNF::ODR gyroODR){
 8003620:	b580      	push	{r7, lr}
 8003622:	b082      	sub	sp, #8
 8003624:	af00      	add	r7, sp, #0
 8003626:	6078      	str	r0, [r7, #4]
        using namespace GYRO_CNF;

        if(gyroODR == ODR::ODR_500){
 8003628:	687b      	ldr	r3, [r7, #4]
 800362a:	2b0f      	cmp	r3, #15
 800362c:	d102      	bne.n	8003634 <_ZN8ICM4268823map_gyro_ODR_CNF_to_ODRENS_8GYRO_CNF3ODRE+0x14>
            return 500.0f;
 800362e:	eddf 7a29 	vldr	s15, [pc, #164]	; 80036d4 <_ZN8ICM4268823map_gyro_ODR_CNF_to_ODRENS_8GYRO_CNF3ODRE+0xb4>
 8003632:	e049      	b.n	80036c8 <_ZN8ICM4268823map_gyro_ODR_CNF_to_ODRENS_8GYRO_CNF3ODRE+0xa8>
        }

        if(gyroODR <= ODR::ODR_1000 && gyroODR >= ODR::ODR_32000){
 8003634:	2106      	movs	r1, #6
 8003636:	6878      	ldr	r0, [r7, #4]
 8003638:	f000 f91e 	bl	8003878 <_ZN8ICM426888GYRO_CNFleENS0_3ODRES1_>
 800363c:	4603      	mov	r3, r0
 800363e:	2b00      	cmp	r3, #0
 8003640:	d008      	beq.n	8003654 <_ZN8ICM4268823map_gyro_ODR_CNF_to_ODRENS_8GYRO_CNF3ODRE+0x34>
 8003642:	2101      	movs	r1, #1
 8003644:	6878      	ldr	r0, [r7, #4]
 8003646:	f000 f92b 	bl	80038a0 <_ZN8ICM426888GYRO_CNFgeENS0_3ODRES1_>
 800364a:	4603      	mov	r3, r0
 800364c:	2b00      	cmp	r3, #0
 800364e:	d001      	beq.n	8003654 <_ZN8ICM4268823map_gyro_ODR_CNF_to_ODRENS_8GYRO_CNF3ODRE+0x34>
 8003650:	2301      	movs	r3, #1
 8003652:	e000      	b.n	8003656 <_ZN8ICM4268823map_gyro_ODR_CNF_to_ODRENS_8GYRO_CNF3ODRE+0x36>
 8003654:	2300      	movs	r3, #0
 8003656:	2b00      	cmp	r3, #0
 8003658:	d010      	beq.n	800367c <_ZN8ICM4268823map_gyro_ODR_CNF_to_ODRENS_8GYRO_CNF3ODRE+0x5c>
            return 32000.0f / (1 << (gyroODR - ODR::ODR_32000));
 800365a:	2101      	movs	r1, #1
 800365c:	6878      	ldr	r0, [r7, #4]
 800365e:	f000 f933 	bl	80038c8 <_ZN8ICM426888GYRO_CNFmiENS0_3ODRES1_>
 8003662:	4603      	mov	r3, r0
 8003664:	461a      	mov	r2, r3
 8003666:	2301      	movs	r3, #1
 8003668:	4093      	lsls	r3, r2
 800366a:	ee07 3a90 	vmov	s15, r3
 800366e:	eeb8 7ae7 	vcvt.f32.s32	s14, s15
 8003672:	eddf 6a19 	vldr	s13, [pc, #100]	; 80036d8 <_ZN8ICM4268823map_gyro_ODR_CNF_to_ODRENS_8GYRO_CNF3ODRE+0xb8>
 8003676:	eec6 7a87 	vdiv.f32	s15, s13, s14
 800367a:	e025      	b.n	80036c8 <_ZN8ICM4268823map_gyro_ODR_CNF_to_ODRENS_8GYRO_CNF3ODRE+0xa8>
        }

        if(gyroODR <= ODR::ODR_12_5 && gyroODR >= ODR::ODR_200){
 800367c:	210b      	movs	r1, #11
 800367e:	6878      	ldr	r0, [r7, #4]
 8003680:	f000 f8fa 	bl	8003878 <_ZN8ICM426888GYRO_CNFleENS0_3ODRES1_>
 8003684:	4603      	mov	r3, r0
 8003686:	2b00      	cmp	r3, #0
 8003688:	d008      	beq.n	800369c <_ZN8ICM4268823map_gyro_ODR_CNF_to_ODRENS_8GYRO_CNF3ODRE+0x7c>
 800368a:	2107      	movs	r1, #7
 800368c:	6878      	ldr	r0, [r7, #4]
 800368e:	f000 f907 	bl	80038a0 <_ZN8ICM426888GYRO_CNFgeENS0_3ODRES1_>
 8003692:	4603      	mov	r3, r0
 8003694:	2b00      	cmp	r3, #0
 8003696:	d001      	beq.n	800369c <_ZN8ICM4268823map_gyro_ODR_CNF_to_ODRENS_8GYRO_CNF3ODRE+0x7c>
 8003698:	2301      	movs	r3, #1
 800369a:	e000      	b.n	800369e <_ZN8ICM4268823map_gyro_ODR_CNF_to_ODRENS_8GYRO_CNF3ODRE+0x7e>
 800369c:	2300      	movs	r3, #0
 800369e:	2b00      	cmp	r3, #0
 80036a0:	d010      	beq.n	80036c4 <_ZN8ICM4268823map_gyro_ODR_CNF_to_ODRENS_8GYRO_CNF3ODRE+0xa4>
            return 200.0f /  (1 << (gyroODR - ODR::ODR_200));
 80036a2:	2107      	movs	r1, #7
 80036a4:	6878      	ldr	r0, [r7, #4]
 80036a6:	f000 f90f 	bl	80038c8 <_ZN8ICM426888GYRO_CNFmiENS0_3ODRES1_>
 80036aa:	4603      	mov	r3, r0
 80036ac:	461a      	mov	r2, r3
 80036ae:	2301      	movs	r3, #1
 80036b0:	4093      	lsls	r3, r2
 80036b2:	ee07 3a90 	vmov	s15, r3
 80036b6:	eeb8 7ae7 	vcvt.f32.s32	s14, s15
 80036ba:	eddf 6a08 	vldr	s13, [pc, #32]	; 80036dc <_ZN8ICM4268823map_gyro_ODR_CNF_to_ODRENS_8GYRO_CNF3ODRE+0xbc>
 80036be:	eec6 7a87 	vdiv.f32	s15, s13, s14
 80036c2:	e001      	b.n	80036c8 <_ZN8ICM4268823map_gyro_ODR_CNF_to_ODRENS_8GYRO_CNF3ODRE+0xa8>
        }

        return -1.0f;
 80036c4:	eeff 7a00 	vmov.f32	s15, #240	; 0xbf800000 -1.0
    }
 80036c8:	eeb0 0a67 	vmov.f32	s0, s15
 80036cc:	3708      	adds	r7, #8
 80036ce:	46bd      	mov	sp, r7
 80036d0:	bd80      	pop	{r7, pc}
 80036d2:	bf00      	nop
 80036d4:	43fa0000 	.word	0x43fa0000
 80036d8:	46fa0000 	.word	0x46fa0000
 80036dc:	43480000 	.word	0x43480000

080036e0 <_ZN8ICM4268823map_gyro_FSR_CNF_to_FSRENS_8GYRO_CNF3FSRE>:


    //float map_gyro_FSR_CNF_to_FSR(const config& cnf){
	float map_gyro_FSR_CNF_to_FSR(GYRO_CNF::FSR gyroFSR){
 80036e0:	b580      	push	{r7, lr}
 80036e2:	b082      	sub	sp, #8
 80036e4:	af00      	add	r7, sp, #0
 80036e6:	6078      	str	r0, [r7, #4]
        using namespace GYRO_CNF;

        if(gyroFSR <= FSR::FSR_15_625){
 80036e8:	2107      	movs	r1, #7
 80036ea:	6878      	ldr	r0, [r7, #4]
 80036ec:	f000 f8fd 	bl	80038ea <_ZN8ICM426888GYRO_CNFleENS0_3FSRES1_>
 80036f0:	4603      	mov	r3, r0
 80036f2:	2b00      	cmp	r3, #0
 80036f4:	d00c      	beq.n	8003710 <_ZN8ICM4268823map_gyro_FSR_CNF_to_FSRENS_8GYRO_CNF3FSRE+0x30>
            return 2000.0f / (1 << gyroFSR);
 80036f6:	6879      	ldr	r1, [r7, #4]
 80036f8:	2001      	movs	r0, #1
 80036fa:	f7ff ff71 	bl	80035e0 <_ZN8ICM426888GYRO_CNFlsEhNS0_3FSRE>
 80036fe:	ee07 0a90 	vmov	s15, r0
 8003702:	eef8 7a67 	vcvt.f32.u32	s15, s15
 8003706:	eddf 6a07 	vldr	s13, [pc, #28]	; 8003724 <_ZN8ICM4268823map_gyro_FSR_CNF_to_FSRENS_8GYRO_CNF3FSRE+0x44>
 800370a:	ee86 7aa7 	vdiv.f32	s14, s13, s15
 800370e:	e001      	b.n	8003714 <_ZN8ICM4268823map_gyro_FSR_CNF_to_FSRENS_8GYRO_CNF3FSRE+0x34>
        }

        return -1.0f;
 8003710:	eebf 7a00 	vmov.f32	s14, #240	; 0xbf800000 -1.0
    }
 8003714:	eef0 7a47 	vmov.f32	s15, s14
 8003718:	eeb0 0a67 	vmov.f32	s0, s15
 800371c:	3708      	adds	r7, #8
 800371e:	46bd      	mov	sp, r7
 8003720:	bd80      	pop	{r7, pc}
 8003722:	bf00      	nop
 8003724:	44fa0000 	.word	0x44fa0000

08003728 <_ZN8ICM4268824map_accel_ODR_CNF_to_ODRENS_9ACCEL_CNF3ODRE>:

    //float map_accel_ODR_CNF_to_ODR(const config& cnf){
	float map_accel_ODR_CNF_to_ODR(ACCEL_CNF::ODR accelODR){
 8003728:	b580      	push	{r7, lr}
 800372a:	b082      	sub	sp, #8
 800372c:	af00      	add	r7, sp, #0
 800372e:	6078      	str	r0, [r7, #4]
        using namespace ACCEL_CNF;

        if(accelODR == ODR::ODR_500){
 8003730:	687b      	ldr	r3, [r7, #4]
 8003732:	2b0f      	cmp	r3, #15
 8003734:	d102      	bne.n	800373c <_ZN8ICM4268824map_accel_ODR_CNF_to_ODRENS_9ACCEL_CNF3ODRE+0x14>
            return 500.0f;
 8003736:	eddf 7a29 	vldr	s15, [pc, #164]	; 80037dc <_ZN8ICM4268824map_accel_ODR_CNF_to_ODRENS_9ACCEL_CNF3ODRE+0xb4>
 800373a:	e049      	b.n	80037d0 <_ZN8ICM4268824map_accel_ODR_CNF_to_ODRENS_9ACCEL_CNF3ODRE+0xa8>
        }

        if(accelODR <= ODR::ODR_1000 && accelODR >= ODR::ODR_32000){
 800373c:	2106      	movs	r1, #6
 800373e:	6878      	ldr	r0, [r7, #4]
 8003740:	f000 f8e7 	bl	8003912 <_ZN8ICM426889ACCEL_CNFleENS0_3ODRES1_>
 8003744:	4603      	mov	r3, r0
 8003746:	2b00      	cmp	r3, #0
 8003748:	d008      	beq.n	800375c <_ZN8ICM4268824map_accel_ODR_CNF_to_ODRENS_9ACCEL_CNF3ODRE+0x34>
 800374a:	2101      	movs	r1, #1
 800374c:	6878      	ldr	r0, [r7, #4]
 800374e:	f000 f8f4 	bl	800393a <_ZN8ICM426889ACCEL_CNFgeENS0_3ODRES1_>
 8003752:	4603      	mov	r3, r0
 8003754:	2b00      	cmp	r3, #0
 8003756:	d001      	beq.n	800375c <_ZN8ICM4268824map_accel_ODR_CNF_to_ODRENS_9ACCEL_CNF3ODRE+0x34>
 8003758:	2301      	movs	r3, #1
 800375a:	e000      	b.n	800375e <_ZN8ICM4268824map_accel_ODR_CNF_to_ODRENS_9ACCEL_CNF3ODRE+0x36>
 800375c:	2300      	movs	r3, #0
 800375e:	2b00      	cmp	r3, #0
 8003760:	d010      	beq.n	8003784 <_ZN8ICM4268824map_accel_ODR_CNF_to_ODRENS_9ACCEL_CNF3ODRE+0x5c>
            return 32000.0f / (1 << (accelODR - ODR::ODR_32000)) ;
 8003762:	2101      	movs	r1, #1
 8003764:	6878      	ldr	r0, [r7, #4]
 8003766:	f000 f8fc 	bl	8003962 <_ZN8ICM426889ACCEL_CNFmiENS0_3ODRES1_>
 800376a:	4603      	mov	r3, r0
 800376c:	461a      	mov	r2, r3
 800376e:	2301      	movs	r3, #1
 8003770:	4093      	lsls	r3, r2
 8003772:	ee07 3a90 	vmov	s15, r3
 8003776:	eeb8 7ae7 	vcvt.f32.s32	s14, s15
 800377a:	eddf 6a19 	vldr	s13, [pc, #100]	; 80037e0 <_ZN8ICM4268824map_accel_ODR_CNF_to_ODRENS_9ACCEL_CNF3ODRE+0xb8>
 800377e:	eec6 7a87 	vdiv.f32	s15, s13, s14
 8003782:	e025      	b.n	80037d0 <_ZN8ICM4268824map_accel_ODR_CNF_to_ODRENS_9ACCEL_CNF3ODRE+0xa8>
        }

        if(accelODR <= ODR::ODR_1_562 && accelODR >= ODR::ODR_200){
 8003784:	210e      	movs	r1, #14
 8003786:	6878      	ldr	r0, [r7, #4]
 8003788:	f000 f8c3 	bl	8003912 <_ZN8ICM426889ACCEL_CNFleENS0_3ODRES1_>
 800378c:	4603      	mov	r3, r0
 800378e:	2b00      	cmp	r3, #0
 8003790:	d008      	beq.n	80037a4 <_ZN8ICM4268824map_accel_ODR_CNF_to_ODRENS_9ACCEL_CNF3ODRE+0x7c>
 8003792:	2107      	movs	r1, #7
 8003794:	6878      	ldr	r0, [r7, #4]
 8003796:	f000 f8d0 	bl	800393a <_ZN8ICM426889ACCEL_CNFgeENS0_3ODRES1_>
 800379a:	4603      	mov	r3, r0
 800379c:	2b00      	cmp	r3, #0
 800379e:	d001      	beq.n	80037a4 <_ZN8ICM4268824map_accel_ODR_CNF_to_ODRENS_9ACCEL_CNF3ODRE+0x7c>
 80037a0:	2301      	movs	r3, #1
 80037a2:	e000      	b.n	80037a6 <_ZN8ICM4268824map_accel_ODR_CNF_to_ODRENS_9ACCEL_CNF3ODRE+0x7e>
 80037a4:	2300      	movs	r3, #0
 80037a6:	2b00      	cmp	r3, #0
 80037a8:	d010      	beq.n	80037cc <_ZN8ICM4268824map_accel_ODR_CNF_to_ODRENS_9ACCEL_CNF3ODRE+0xa4>
            return 200.0f /  ( 1 << (accelODR - ODR::ODR_200));
 80037aa:	2107      	movs	r1, #7
 80037ac:	6878      	ldr	r0, [r7, #4]
 80037ae:	f000 f8d8 	bl	8003962 <_ZN8ICM426889ACCEL_CNFmiENS0_3ODRES1_>
 80037b2:	4603      	mov	r3, r0
 80037b4:	461a      	mov	r2, r3
 80037b6:	2301      	movs	r3, #1
 80037b8:	4093      	lsls	r3, r2
 80037ba:	ee07 3a90 	vmov	s15, r3
 80037be:	eeb8 7ae7 	vcvt.f32.s32	s14, s15
 80037c2:	eddf 6a08 	vldr	s13, [pc, #32]	; 80037e4 <_ZN8ICM4268824map_accel_ODR_CNF_to_ODRENS_9ACCEL_CNF3ODRE+0xbc>
 80037c6:	eec6 7a87 	vdiv.f32	s15, s13, s14
 80037ca:	e001      	b.n	80037d0 <_ZN8ICM4268824map_accel_ODR_CNF_to_ODRENS_9ACCEL_CNF3ODRE+0xa8>
        }

        return -1.0f;
 80037cc:	eeff 7a00 	vmov.f32	s15, #240	; 0xbf800000 -1.0
    }
 80037d0:	eeb0 0a67 	vmov.f32	s0, s15
 80037d4:	3708      	adds	r7, #8
 80037d6:	46bd      	mov	sp, r7
 80037d8:	bd80      	pop	{r7, pc}
 80037da:	bf00      	nop
 80037dc:	43fa0000 	.word	0x43fa0000
 80037e0:	46fa0000 	.word	0x46fa0000
 80037e4:	43480000 	.word	0x43480000

080037e8 <_ZN8ICM4268824map_accel_FSR_CNF_to_FSRENS_9ACCEL_CNF3FSRE>:

    //float map_accel_FSR_CNF_to_FSR(const config& cnf){
	float map_accel_FSR_CNF_to_FSR(ACCEL_CNF::FSR accelFSR){
 80037e8:	b580      	push	{r7, lr}
 80037ea:	b082      	sub	sp, #8
 80037ec:	af00      	add	r7, sp, #0
 80037ee:	6078      	str	r0, [r7, #4]
        using namespace ACCEL_CNF;
  
        if(accelFSR <= FSR::FSR_2){
 80037f0:	2103      	movs	r1, #3
 80037f2:	6878      	ldr	r0, [r7, #4]
 80037f4:	f000 f8c6 	bl	8003984 <_ZN8ICM426889ACCEL_CNFleENS0_3FSRES1_>
 80037f8:	4603      	mov	r3, r0
 80037fa:	2b00      	cmp	r3, #0
 80037fc:	d00c      	beq.n	8003818 <_ZN8ICM4268824map_accel_FSR_CNF_to_FSRENS_9ACCEL_CNF3FSRE+0x30>
            return 16.0f / (1 << accelFSR);
 80037fe:	6879      	ldr	r1, [r7, #4]
 8003800:	2001      	movs	r0, #1
 8003802:	f7ff fefd 	bl	8003600 <_ZN8ICM426889ACCEL_CNFlsEhNS0_3FSRE>
 8003806:	ee07 0a90 	vmov	s15, r0
 800380a:	eef8 7a67 	vcvt.f32.u32	s15, s15
 800380e:	eef3 6a00 	vmov.f32	s13, #48	; 0x41800000  16.0
 8003812:	ee86 7aa7 	vdiv.f32	s14, s13, s15
 8003816:	e001      	b.n	800381c <_ZN8ICM4268824map_accel_FSR_CNF_to_FSRENS_9ACCEL_CNF3FSRE+0x34>
        }

        return -1.0f;
 8003818:	eebf 7a00 	vmov.f32	s14, #240	; 0xbf800000 -1.0
    }
 800381c:	eef0 7a47 	vmov.f32	s15, s14
 8003820:	eeb0 0a67 	vmov.f32	s0, s15
 8003824:	3708      	adds	r7, #8
 8003826:	46bd      	mov	sp, r7
 8003828:	bd80      	pop	{r7, pc}
	...

0800382c <_ZN8ICM4268815convertTempDataEhh>:

    
    float convertTempData(uint8_t rawTempH, uint8_t rawTempL)
    {
 800382c:	b480      	push	{r7}
 800382e:	b085      	sub	sp, #20
 8003830:	af00      	add	r7, sp, #0
 8003832:	4603      	mov	r3, r0
 8003834:	460a      	mov	r2, r1
 8003836:	71fb      	strb	r3, [r7, #7]
 8003838:	4613      	mov	r3, r2
 800383a:	71bb      	strb	r3, [r7, #6]
        int16_t temp_data = (rawTempH << 8) |  rawTempL;
 800383c:	79fb      	ldrb	r3, [r7, #7]
 800383e:	021b      	lsls	r3, r3, #8
 8003840:	b21a      	sxth	r2, r3
 8003842:	79bb      	ldrb	r3, [r7, #6]
 8003844:	b21b      	sxth	r3, r3
 8003846:	4313      	orrs	r3, r2
 8003848:	81fb      	strh	r3, [r7, #14]
        return (temp_data / 132.48f + 25);
 800384a:	f9b7 300e 	ldrsh.w	r3, [r7, #14]
 800384e:	ee07 3a90 	vmov	s15, r3
 8003852:	eeb8 7ae7 	vcvt.f32.s32	s14, s15
 8003856:	eddf 6a07 	vldr	s13, [pc, #28]	; 8003874 <_ZN8ICM4268815convertTempDataEhh+0x48>
 800385a:	eec7 7a26 	vdiv.f32	s15, s14, s13
 800385e:	eeb3 7a09 	vmov.f32	s14, #57	; 0x41c80000  25.0
 8003862:	ee77 7a87 	vadd.f32	s15, s15, s14
    }
 8003866:	eeb0 0a67 	vmov.f32	s0, s15
 800386a:	3714      	adds	r7, #20
 800386c:	46bd      	mov	sp, r7
 800386e:	f85d 7b04 	ldr.w	r7, [sp], #4
 8003872:	4770      	bx	lr
 8003874:	43047ae1 	.word	0x43047ae1

08003878 <_ZN8ICM426888GYRO_CNFleENS0_3ODRES1_>:
    /////////////////////////// GYRO_CNF /////////////////////////////////////

    namespace GYRO_CNF {

        bool operator<=(ODR odr1, ODR odr2) 
        {
 8003878:	b480      	push	{r7}
 800387a:	b083      	sub	sp, #12
 800387c:	af00      	add	r7, sp, #0
 800387e:	6078      	str	r0, [r7, #4]
 8003880:	6039      	str	r1, [r7, #0]
            return static_cast<uint8_t> (odr1) <= static_cast<uint8_t> (odr2);
 8003882:	687b      	ldr	r3, [r7, #4]
 8003884:	b2da      	uxtb	r2, r3
 8003886:	683b      	ldr	r3, [r7, #0]
 8003888:	b2db      	uxtb	r3, r3
 800388a:	429a      	cmp	r2, r3
 800388c:	bf94      	ite	ls
 800388e:	2301      	movls	r3, #1
 8003890:	2300      	movhi	r3, #0
 8003892:	b2db      	uxtb	r3, r3
        }
 8003894:	4618      	mov	r0, r3
 8003896:	370c      	adds	r7, #12
 8003898:	46bd      	mov	sp, r7
 800389a:	f85d 7b04 	ldr.w	r7, [sp], #4
 800389e:	4770      	bx	lr

080038a0 <_ZN8ICM426888GYRO_CNFgeENS0_3ODRES1_>:
        bool operator>=(ODR odr1, ODR odr2) 
        {
 80038a0:	b480      	push	{r7}
 80038a2:	b083      	sub	sp, #12
 80038a4:	af00      	add	r7, sp, #0
 80038a6:	6078      	str	r0, [r7, #4]
 80038a8:	6039      	str	r1, [r7, #0]
            return static_cast<uint8_t> (odr1) >= static_cast<uint8_t> (odr2);
 80038aa:	687b      	ldr	r3, [r7, #4]
 80038ac:	b2da      	uxtb	r2, r3
 80038ae:	683b      	ldr	r3, [r7, #0]
 80038b0:	b2db      	uxtb	r3, r3
 80038b2:	429a      	cmp	r2, r3
 80038b4:	bf2c      	ite	cs
 80038b6:	2301      	movcs	r3, #1
 80038b8:	2300      	movcc	r3, #0
 80038ba:	b2db      	uxtb	r3, r3
        }
 80038bc:	4618      	mov	r0, r3
 80038be:	370c      	adds	r7, #12
 80038c0:	46bd      	mov	sp, r7
 80038c2:	f85d 7b04 	ldr.w	r7, [sp], #4
 80038c6:	4770      	bx	lr

080038c8 <_ZN8ICM426888GYRO_CNFmiENS0_3ODRES1_>:
        uint8_t operator-(ODR odr1, ODR odr2)
        {
 80038c8:	b480      	push	{r7}
 80038ca:	b083      	sub	sp, #12
 80038cc:	af00      	add	r7, sp, #0
 80038ce:	6078      	str	r0, [r7, #4]
 80038d0:	6039      	str	r1, [r7, #0]
            return static_cast<uint8_t> (odr1) - static_cast<uint8_t> (odr2);
 80038d2:	687b      	ldr	r3, [r7, #4]
 80038d4:	b2da      	uxtb	r2, r3
 80038d6:	683b      	ldr	r3, [r7, #0]
 80038d8:	b2db      	uxtb	r3, r3
 80038da:	1ad3      	subs	r3, r2, r3
 80038dc:	b2db      	uxtb	r3, r3
        }
 80038de:	4618      	mov	r0, r3
 80038e0:	370c      	adds	r7, #12
 80038e2:	46bd      	mov	sp, r7
 80038e4:	f85d 7b04 	ldr.w	r7, [sp], #4
 80038e8:	4770      	bx	lr

080038ea <_ZN8ICM426888GYRO_CNFleENS0_3FSRES1_>:


        bool operator<=(FSR fsr1, FSR fsr2)
        {
 80038ea:	b480      	push	{r7}
 80038ec:	b083      	sub	sp, #12
 80038ee:	af00      	add	r7, sp, #0
 80038f0:	6078      	str	r0, [r7, #4]
 80038f2:	6039      	str	r1, [r7, #0]
            return static_cast<uint8_t> (fsr1) <= static_cast<uint8_t> (fsr2);
 80038f4:	687b      	ldr	r3, [r7, #4]
 80038f6:	b2da      	uxtb	r2, r3
 80038f8:	683b      	ldr	r3, [r7, #0]
 80038fa:	b2db      	uxtb	r3, r3
 80038fc:	429a      	cmp	r2, r3
 80038fe:	bf94      	ite	ls
 8003900:	2301      	movls	r3, #1
 8003902:	2300      	movhi	r3, #0
 8003904:	b2db      	uxtb	r3, r3
        }
 8003906:	4618      	mov	r0, r3
 8003908:	370c      	adds	r7, #12
 800390a:	46bd      	mov	sp, r7
 800390c:	f85d 7b04 	ldr.w	r7, [sp], #4
 8003910:	4770      	bx	lr

08003912 <_ZN8ICM426889ACCEL_CNFleENS0_3ODRES1_>:

    /////////////////////////// ACCEL_CNF /////////////////////////////////////
    namespace ACCEL_CNF {

        bool operator<=(ODR odr1, ODR odr2) 
        {
 8003912:	b480      	push	{r7}
 8003914:	b083      	sub	sp, #12
 8003916:	af00      	add	r7, sp, #0
 8003918:	6078      	str	r0, [r7, #4]
 800391a:	6039      	str	r1, [r7, #0]
            return static_cast<uint8_t> (odr1) <= static_cast<uint8_t> (odr2);
 800391c:	687b      	ldr	r3, [r7, #4]
 800391e:	b2da      	uxtb	r2, r3
 8003920:	683b      	ldr	r3, [r7, #0]
 8003922:	b2db      	uxtb	r3, r3
 8003924:	429a      	cmp	r2, r3
 8003926:	bf94      	ite	ls
 8003928:	2301      	movls	r3, #1
 800392a:	2300      	movhi	r3, #0
 800392c:	b2db      	uxtb	r3, r3
        }
 800392e:	4618      	mov	r0, r3
 8003930:	370c      	adds	r7, #12
 8003932:	46bd      	mov	sp, r7
 8003934:	f85d 7b04 	ldr.w	r7, [sp], #4
 8003938:	4770      	bx	lr

0800393a <_ZN8ICM426889ACCEL_CNFgeENS0_3ODRES1_>:
        bool operator>=(ODR odr1, ODR odr2) 
        {
 800393a:	b480      	push	{r7}
 800393c:	b083      	sub	sp, #12
 800393e:	af00      	add	r7, sp, #0
 8003940:	6078      	str	r0, [r7, #4]
 8003942:	6039      	str	r1, [r7, #0]
            return static_cast<uint8_t> (odr1) >= static_cast<uint8_t> (odr2);
 8003944:	687b      	ldr	r3, [r7, #4]
 8003946:	b2da      	uxtb	r2, r3
 8003948:	683b      	ldr	r3, [r7, #0]
 800394a:	b2db      	uxtb	r3, r3
 800394c:	429a      	cmp	r2, r3
 800394e:	bf2c      	ite	cs
 8003950:	2301      	movcs	r3, #1
 8003952:	2300      	movcc	r3, #0
 8003954:	b2db      	uxtb	r3, r3
        }
 8003956:	4618      	mov	r0, r3
 8003958:	370c      	adds	r7, #12
 800395a:	46bd      	mov	sp, r7
 800395c:	f85d 7b04 	ldr.w	r7, [sp], #4
 8003960:	4770      	bx	lr

08003962 <_ZN8ICM426889ACCEL_CNFmiENS0_3ODRES1_>:
        uint8_t operator-(ODR odr1, ODR odr2)
        {
 8003962:	b480      	push	{r7}
 8003964:	b083      	sub	sp, #12
 8003966:	af00      	add	r7, sp, #0
 8003968:	6078      	str	r0, [r7, #4]
 800396a:	6039      	str	r1, [r7, #0]
            return static_cast<uint8_t> (odr1) - static_cast<uint8_t> (odr2);
 800396c:	687b      	ldr	r3, [r7, #4]
 800396e:	b2da      	uxtb	r2, r3
 8003970:	683b      	ldr	r3, [r7, #0]
 8003972:	b2db      	uxtb	r3, r3
 8003974:	1ad3      	subs	r3, r2, r3
 8003976:	b2db      	uxtb	r3, r3
        }
 8003978:	4618      	mov	r0, r3
 800397a:	370c      	adds	r7, #12
 800397c:	46bd      	mov	sp, r7
 800397e:	f85d 7b04 	ldr.w	r7, [sp], #4
 8003982:	4770      	bx	lr

08003984 <_ZN8ICM426889ACCEL_CNFleENS0_3FSRES1_>:

        bool operator<=(FSR fsr1, FSR fsr2)
        {
 8003984:	b480      	push	{r7}
 8003986:	b083      	sub	sp, #12
 8003988:	af00      	add	r7, sp, #0
 800398a:	6078      	str	r0, [r7, #4]
 800398c:	6039      	str	r1, [r7, #0]
            return static_cast<uint8_t> (fsr1) <= static_cast<uint8_t> (fsr2);
 800398e:	687b      	ldr	r3, [r7, #4]
 8003990:	b2da      	uxtb	r2, r3
 8003992:	683b      	ldr	r3, [r7, #0]
 8003994:	b2db      	uxtb	r3, r3
 8003996:	429a      	cmp	r2, r3
 8003998:	bf94      	ite	ls
 800399a:	2301      	movls	r3, #1
 800399c:	2300      	movhi	r3, #0
 800399e:	b2db      	uxtb	r3, r3
        }  
 80039a0:	4618      	mov	r0, r3
 80039a2:	370c      	adds	r7, #12
 80039a4:	46bd      	mov	sp, r7
 80039a6:	f85d 7b04 	ldr.w	r7, [sp], #4
 80039aa:	4770      	bx	lr

080039ac <main>:
/**
  * @brief  The application entry point.
  * @retval int
  */
int main(void)
{
 80039ac:	b580      	push	{r7, lr}
 80039ae:	af00      	add	r7, sp, #0
  /* USER CODE END 1 */

  /* MCU Configuration--------------------------------------------------------*/

  /* Reset of all peripherals, Initializes the Flash interface and the Systick. */
  HAL_Init();
 80039b0:	f001 f8c7 	bl	8004b42 <HAL_Init>
  /* USER CODE BEGIN Init */

  /* USER CODE END Init */

  /* Configure the system clock */
  SystemClock_Config();
 80039b4:	f000 f810 	bl	80039d8 <_Z18SystemClock_Configv>
  /* USER CODE BEGIN SysInit */

  /* USER CODE END SysInit */

  /* Initialize all configured peripherals */
  MX_GPIO_Init();
 80039b8:	f7fc ff9a 	bl	80008f0 <MX_GPIO_Init>
  MX_USART3_UART_Init();
 80039bc:	f001 f800 	bl	80049c0 <MX_USART3_UART_Init>
  MX_TIM5_Init();
 80039c0:	f000 fe3e 	bl	8004640 <MX_TIM5_Init>
  MX_CAN1_Init();
 80039c4:	f7fc ff18 	bl	80007f8 <MX_CAN1_Init>
  MX_SPI2_Init();
 80039c8:	f000 fb66 	bl	8004098 <MX_SPI2_Init>
  /* USER CODE BEGIN 2 */

  system_init();
 80039cc:	f000 fcc6 	bl	800435c <_Z11system_initv>
  while (1)
  {
    /* USER CODE END WHILE */

    /* USER CODE BEGIN 3 */
	  system_run_active_mode();
 80039d0:	f000 fce8 	bl	80043a4 <_Z22system_run_active_modev>
 80039d4:	e7fc      	b.n	80039d0 <main+0x24>
	...

080039d8 <_Z18SystemClock_Configv>:
/**
  * @brief System Clock Configuration
  * @retval None
  */
void SystemClock_Config(void)
{
 80039d8:	b580      	push	{r7, lr}
 80039da:	b094      	sub	sp, #80	; 0x50
 80039dc:	af00      	add	r7, sp, #0
  RCC_OscInitTypeDef RCC_OscInitStruct = {0};
 80039de:	f107 0320 	add.w	r3, r7, #32
 80039e2:	2230      	movs	r2, #48	; 0x30
 80039e4:	2100      	movs	r1, #0
 80039e6:	4618      	mov	r0, r3
 80039e8:	f005 fdfc 	bl	80095e4 <memset>
  RCC_ClkInitTypeDef RCC_ClkInitStruct = {0};
 80039ec:	f107 030c 	add.w	r3, r7, #12
 80039f0:	2200      	movs	r2, #0
 80039f2:	601a      	str	r2, [r3, #0]
 80039f4:	605a      	str	r2, [r3, #4]
 80039f6:	609a      	str	r2, [r3, #8]
 80039f8:	60da      	str	r2, [r3, #12]
 80039fa:	611a      	str	r2, [r3, #16]

  /** Configure LSE Drive Capability
  */
  HAL_PWR_EnableBkUpAccess();
 80039fc:	f002 f864 	bl	8005ac8 <HAL_PWR_EnableBkUpAccess>

  /** Configure the main internal regulator output voltage
  */
  __HAL_RCC_PWR_CLK_ENABLE();
 8003a00:	4b2d      	ldr	r3, [pc, #180]	; (8003ab8 <_Z18SystemClock_Configv+0xe0>)
 8003a02:	6c1b      	ldr	r3, [r3, #64]	; 0x40
 8003a04:	4a2c      	ldr	r2, [pc, #176]	; (8003ab8 <_Z18SystemClock_Configv+0xe0>)
 8003a06:	f043 5380 	orr.w	r3, r3, #268435456	; 0x10000000
 8003a0a:	6413      	str	r3, [r2, #64]	; 0x40
 8003a0c:	4b2a      	ldr	r3, [pc, #168]	; (8003ab8 <_Z18SystemClock_Configv+0xe0>)
 8003a0e:	6c1b      	ldr	r3, [r3, #64]	; 0x40
 8003a10:	f003 5380 	and.w	r3, r3, #268435456	; 0x10000000
 8003a14:	60bb      	str	r3, [r7, #8]
 8003a16:	68bb      	ldr	r3, [r7, #8]
  __HAL_PWR_VOLTAGESCALING_CONFIG(PWR_REGULATOR_VOLTAGE_SCALE3);
 8003a18:	4b28      	ldr	r3, [pc, #160]	; (8003abc <_Z18SystemClock_Configv+0xe4>)
 8003a1a:	681b      	ldr	r3, [r3, #0]
 8003a1c:	f423 4340 	bic.w	r3, r3, #49152	; 0xc000
 8003a20:	4a26      	ldr	r2, [pc, #152]	; (8003abc <_Z18SystemClock_Configv+0xe4>)
 8003a22:	f443 4380 	orr.w	r3, r3, #16384	; 0x4000
 8003a26:	6013      	str	r3, [r2, #0]
 8003a28:	4b24      	ldr	r3, [pc, #144]	; (8003abc <_Z18SystemClock_Configv+0xe4>)
 8003a2a:	681b      	ldr	r3, [r3, #0]
 8003a2c:	f403 4340 	and.w	r3, r3, #49152	; 0xc000
 8003a30:	607b      	str	r3, [r7, #4]
 8003a32:	687b      	ldr	r3, [r7, #4]

  /** Initializes the RCC Oscillators according to the specified parameters
  * in the RCC_OscInitTypeDef structure.
  */
  RCC_OscInitStruct.OscillatorType = RCC_OSCILLATORTYPE_LSI|RCC_OSCILLATORTYPE_HSE;
 8003a34:	2309      	movs	r3, #9
 8003a36:	623b      	str	r3, [r7, #32]
  RCC_OscInitStruct.HSEState = RCC_HSE_BYPASS;
 8003a38:	f44f 23a0 	mov.w	r3, #327680	; 0x50000
 8003a3c:	627b      	str	r3, [r7, #36]	; 0x24
  RCC_OscInitStruct.LSIState = RCC_LSI_ON;
 8003a3e:	2301      	movs	r3, #1
 8003a40:	637b      	str	r3, [r7, #52]	; 0x34
  RCC_OscInitStruct.PLL.PLLState = RCC_PLL_ON;
 8003a42:	2302      	movs	r3, #2
 8003a44:	63bb      	str	r3, [r7, #56]	; 0x38
  RCC_OscInitStruct.PLL.PLLSource = RCC_PLLSOURCE_HSE;
 8003a46:	f44f 0380 	mov.w	r3, #4194304	; 0x400000
 8003a4a:	63fb      	str	r3, [r7, #60]	; 0x3c
  RCC_OscInitStruct.PLL.PLLM = 4;
 8003a4c:	2304      	movs	r3, #4
 8003a4e:	643b      	str	r3, [r7, #64]	; 0x40
  RCC_OscInitStruct.PLL.PLLN = 72;
 8003a50:	2348      	movs	r3, #72	; 0x48
 8003a52:	647b      	str	r3, [r7, #68]	; 0x44
  RCC_OscInitStruct.PLL.PLLP = RCC_PLLP_DIV2;
 8003a54:	2302      	movs	r3, #2
 8003a56:	64bb      	str	r3, [r7, #72]	; 0x48
  RCC_OscInitStruct.PLL.PLLQ = 3;
 8003a58:	2303      	movs	r3, #3
 8003a5a:	64fb      	str	r3, [r7, #76]	; 0x4c
  if (HAL_RCC_OscConfig(&RCC_OscInitStruct) != HAL_OK)
 8003a5c:	f107 0320 	add.w	r3, r7, #32
 8003a60:	4618      	mov	r0, r3
 8003a62:	f002 f841 	bl	8005ae8 <HAL_RCC_OscConfig>
 8003a66:	4603      	mov	r3, r0
 8003a68:	2b00      	cmp	r3, #0
 8003a6a:	bf14      	ite	ne
 8003a6c:	2301      	movne	r3, #1
 8003a6e:	2300      	moveq	r3, #0
 8003a70:	b2db      	uxtb	r3, r3
 8003a72:	2b00      	cmp	r3, #0
 8003a74:	d001      	beq.n	8003a7a <_Z18SystemClock_Configv+0xa2>
  {
    Error_Handler();
 8003a76:	f000 f823 	bl	8003ac0 <Error_Handler>
  }

  /** Initializes the CPU, AHB and APB buses clocks
  */
  RCC_ClkInitStruct.ClockType = RCC_CLOCKTYPE_HCLK|RCC_CLOCKTYPE_SYSCLK
 8003a7a:	230f      	movs	r3, #15
 8003a7c:	60fb      	str	r3, [r7, #12]
                              |RCC_CLOCKTYPE_PCLK1|RCC_CLOCKTYPE_PCLK2;
  RCC_ClkInitStruct.SYSCLKSource = RCC_SYSCLKSOURCE_PLLCLK;
 8003a7e:	2302      	movs	r3, #2
 8003a80:	613b      	str	r3, [r7, #16]
  RCC_ClkInitStruct.AHBCLKDivider = RCC_SYSCLK_DIV1;
 8003a82:	2300      	movs	r3, #0
 8003a84:	617b      	str	r3, [r7, #20]
  RCC_ClkInitStruct.APB1CLKDivider = RCC_HCLK_DIV2;
 8003a86:	f44f 5380 	mov.w	r3, #4096	; 0x1000
 8003a8a:	61bb      	str	r3, [r7, #24]
  RCC_ClkInitStruct.APB2CLKDivider = RCC_HCLK_DIV1;
 8003a8c:	2300      	movs	r3, #0
 8003a8e:	61fb      	str	r3, [r7, #28]

  if (HAL_RCC_ClockConfig(&RCC_ClkInitStruct, FLASH_LATENCY_2) != HAL_OK)
 8003a90:	f107 030c 	add.w	r3, r7, #12
 8003a94:	2102      	movs	r1, #2
 8003a96:	4618      	mov	r0, r3
 8003a98:	f002 faca 	bl	8006030 <HAL_RCC_ClockConfig>
 8003a9c:	4603      	mov	r3, r0
 8003a9e:	2b00      	cmp	r3, #0
 8003aa0:	bf14      	ite	ne
 8003aa2:	2301      	movne	r3, #1
 8003aa4:	2300      	moveq	r3, #0
 8003aa6:	b2db      	uxtb	r3, r3
 8003aa8:	2b00      	cmp	r3, #0
 8003aaa:	d001      	beq.n	8003ab0 <_Z18SystemClock_Configv+0xd8>
  {
    Error_Handler();
 8003aac:	f000 f808 	bl	8003ac0 <Error_Handler>
  }
}
 8003ab0:	bf00      	nop
 8003ab2:	3750      	adds	r7, #80	; 0x50
 8003ab4:	46bd      	mov	sp, r7
 8003ab6:	bd80      	pop	{r7, pc}
 8003ab8:	40023800 	.word	0x40023800
 8003abc:	40007000 	.word	0x40007000

08003ac0 <Error_Handler>:
/**
  * @brief  This function is executed in case of error occurrence.
  * @retval None
  */
void Error_Handler(void)
{
 8003ac0:	b480      	push	{r7}
 8003ac2:	af00      	add	r7, sp, #0
  \details Disables IRQ interrupts by setting the I-bit in the CPSR.
           Can only be executed in Privileged modes.
 */
__STATIC_FORCEINLINE void __disable_irq(void)
{
  __ASM volatile ("cpsid i" : : : "memory");
 8003ac4:	b672      	cpsid	i
}
 8003ac6:	bf00      	nop
  /* USER CODE BEGIN Error_Handler_Debug */
  /* User can add his own implementation to report the HAL error return state */
  __disable_irq();
  while (1)
 8003ac8:	e7fe      	b.n	8003ac8 <Error_Handler+0x8>
	...

08003acc <_Z20fail_silent_mode_runv>:

#define LED_FAIL_SILENT_GPIO_Port LD3_GPIO_Port
#define LED_FAIL_SILENT_GPIO_Pin  LD3_Pin

void fail_silent_mode_run(void)
{
 8003acc:	b580      	push	{r7, lr}
 8003ace:	b086      	sub	sp, #24
 8003ad0:	af00      	add	r7, sp, #0
	STM32::gpio ledFailSilent(LED_FAIL_SILENT_GPIO_Port, LED_FAIL_SILENT_GPIO_Pin);
 8003ad2:	463b      	mov	r3, r7
 8003ad4:	f44f 4280 	mov.w	r2, #16384	; 0x4000
 8003ad8:	4904      	ldr	r1, [pc, #16]	; (8003aec <_Z20fail_silent_mode_runv+0x20>)
 8003ada:	4618      	mov	r0, r3
 8003adc:	f7fd f836 	bl	8000b4c <_ZN5STM324gpioC1EP12GPIO_TypeDeft>


	ledFailSilent.write(GPIO_ST::HIGH);
 8003ae0:	463b      	mov	r3, r7
 8003ae2:	2101      	movs	r1, #1
 8003ae4:	4618      	mov	r0, r3
 8003ae6:	f7fd f857 	bl	8000b98 <_ZN5STM324gpio5writeE7GPIO_ST>

	while(1)
 8003aea:	e7fe      	b.n	8003aea <_Z20fail_silent_mode_runv+0x1e>
 8003aec:	40020400 	.word	0x40020400

08003af0 <_ZN9iPHandler12add_read_bitEhbb>:
    static uint8_t add_read_bit(uint8_t reg, bool normalMode = true, bool rwBitInFront = true)
 8003af0:	b480      	push	{r7}
 8003af2:	b083      	sub	sp, #12
 8003af4:	af00      	add	r7, sp, #0
 8003af6:	4603      	mov	r3, r0
 8003af8:	71fb      	strb	r3, [r7, #7]
 8003afa:	460b      	mov	r3, r1
 8003afc:	71bb      	strb	r3, [r7, #6]
 8003afe:	4613      	mov	r3, r2
 8003b00:	717b      	strb	r3, [r7, #5]
    	if(rwBitInFront){
 8003b02:	797b      	ldrb	r3, [r7, #5]
 8003b04:	2b00      	cmp	r3, #0
 8003b06:	d009      	beq.n	8003b1c <_ZN9iPHandler12add_read_bitEhbb+0x2c>
    		return normalMode ? (reg | (1 << 7)) : reg;
 8003b08:	79bb      	ldrb	r3, [r7, #6]
 8003b0a:	2b00      	cmp	r3, #0
 8003b0c:	d004      	beq.n	8003b18 <_ZN9iPHandler12add_read_bitEhbb+0x28>
 8003b0e:	79fb      	ldrb	r3, [r7, #7]
 8003b10:	f063 037f 	orn	r3, r3, #127	; 0x7f
 8003b14:	b2db      	uxtb	r3, r3
 8003b16:	e00f      	b.n	8003b38 <_ZN9iPHandler12add_read_bitEhbb+0x48>
 8003b18:	79fb      	ldrb	r3, [r7, #7]
 8003b1a:	e00d      	b.n	8003b38 <_ZN9iPHandler12add_read_bitEhbb+0x48>
    		return normalMode ? (reg << 1) | 0x01 : reg << 1;
 8003b1c:	79bb      	ldrb	r3, [r7, #6]
 8003b1e:	2b00      	cmp	r3, #0
 8003b20:	d007      	beq.n	8003b32 <_ZN9iPHandler12add_read_bitEhbb+0x42>
 8003b22:	79fb      	ldrb	r3, [r7, #7]
 8003b24:	005b      	lsls	r3, r3, #1
 8003b26:	b25b      	sxtb	r3, r3
 8003b28:	f043 0301 	orr.w	r3, r3, #1
 8003b2c:	b25b      	sxtb	r3, r3
 8003b2e:	b2db      	uxtb	r3, r3
 8003b30:	e002      	b.n	8003b38 <_ZN9iPHandler12add_read_bitEhbb+0x48>
 8003b32:	79fb      	ldrb	r3, [r7, #7]
 8003b34:	005b      	lsls	r3, r3, #1
 8003b36:	b2db      	uxtb	r3, r3
    }
 8003b38:	4618      	mov	r0, r3
 8003b3a:	370c      	adds	r7, #12
 8003b3c:	46bd      	mov	sp, r7
 8003b3e:	f85d 7b04 	ldr.w	r7, [sp], #4
 8003b42:	4770      	bx	lr

08003b44 <_ZN9iPHandler13add_write_bitEhbb>:
    static uint8_t add_write_bit(uint8_t reg, bool normalMode = true, bool rwBitInFront = true)
 8003b44:	b480      	push	{r7}
 8003b46:	b083      	sub	sp, #12
 8003b48:	af00      	add	r7, sp, #0
 8003b4a:	4603      	mov	r3, r0
 8003b4c:	71fb      	strb	r3, [r7, #7]
 8003b4e:	460b      	mov	r3, r1
 8003b50:	71bb      	strb	r3, [r7, #6]
 8003b52:	4613      	mov	r3, r2
 8003b54:	717b      	strb	r3, [r7, #5]
    	if(rwBitInFront){
 8003b56:	797b      	ldrb	r3, [r7, #5]
 8003b58:	2b00      	cmp	r3, #0
 8003b5a:	d009      	beq.n	8003b70 <_ZN9iPHandler13add_write_bitEhbb+0x2c>
    		return normalMode ? reg : (reg | (1 << 7));
 8003b5c:	79bb      	ldrb	r3, [r7, #6]
 8003b5e:	2b00      	cmp	r3, #0
 8003b60:	d001      	beq.n	8003b66 <_ZN9iPHandler13add_write_bitEhbb+0x22>
 8003b62:	79fb      	ldrb	r3, [r7, #7]
 8003b64:	e012      	b.n	8003b8c <_ZN9iPHandler13add_write_bitEhbb+0x48>
 8003b66:	79fb      	ldrb	r3, [r7, #7]
 8003b68:	f063 037f 	orn	r3, r3, #127	; 0x7f
 8003b6c:	b2db      	uxtb	r3, r3
 8003b6e:	e00d      	b.n	8003b8c <_ZN9iPHandler13add_write_bitEhbb+0x48>
    		return normalMode ? reg << 1 : (reg  << 0x01 | 1);
 8003b70:	79bb      	ldrb	r3, [r7, #6]
 8003b72:	2b00      	cmp	r3, #0
 8003b74:	d003      	beq.n	8003b7e <_ZN9iPHandler13add_write_bitEhbb+0x3a>
 8003b76:	79fb      	ldrb	r3, [r7, #7]
 8003b78:	005b      	lsls	r3, r3, #1
 8003b7a:	b2db      	uxtb	r3, r3
 8003b7c:	e006      	b.n	8003b8c <_ZN9iPHandler13add_write_bitEhbb+0x48>
 8003b7e:	79fb      	ldrb	r3, [r7, #7]
 8003b80:	005b      	lsls	r3, r3, #1
 8003b82:	b25b      	sxtb	r3, r3
 8003b84:	f043 0301 	orr.w	r3, r3, #1
 8003b88:	b25b      	sxtb	r3, r3
 8003b8a:	b2db      	uxtb	r3, r3
    }
 8003b8c:	4618      	mov	r0, r3
 8003b8e:	370c      	adds	r7, #12
 8003b90:	46bd      	mov	sp, r7
 8003b92:	f85d 7b04 	ldr.w	r7, [sp], #4
 8003b96:	4770      	bx	lr

08003b98 <_Z15normal_mode_runv>:
#define LED_HEARTBEAT_GPIO_Pin  LD1_Pin

static bool run = false;

void normal_mode_run(void)
{
 8003b98:	b590      	push	{r4, r7, lr}
 8003b9a:	f5ad 7d7d 	sub.w	sp, sp, #1012	; 0x3f4
 8003b9e:	af04      	add	r7, sp, #16
	taskIMUgetData_t taskIMUgetData;
	taskCNIsendData_t taskCNIsendIMUdata;
	taskTimeTriggeredSync_t taskPeriodicSync;

	// Inicialización de la IMU =====================================
	gpio imuCS(ICM42688_CS_GPIO_Port, ICM42688_CS_Pin);
 8003ba0:	f507 734a 	add.w	r3, r7, #808	; 0x328
 8003ba4:	f44f 6280 	mov.w	r2, #1024	; 0x400
 8003ba8:	497f      	ldr	r1, [pc, #508]	; (8003da8 <_Z15normal_mode_runv+0x210>)
 8003baa:	4618      	mov	r0, r3
 8003bac:	f7fc ffce 	bl	8000b4c <_ZN5STM324gpioC1EP12GPIO_TypeDeft>

	phandler_spi<> spi2(&hspi2, &imuCS, COMM_MODE::BLCK);
 8003bb0:	f507 724a 	add.w	r2, r7, #808	; 0x328
 8003bb4:	f507 7032 	add.w	r0, r7, #712	; 0x2c8
 8003bb8:	2300      	movs	r3, #0
 8003bba:	497c      	ldr	r1, [pc, #496]	; (8003dac <_Z15normal_mode_runv+0x214>)
 8003bbc:	f000 f928 	bl	8003e10 <_ZN5STM3211PHandlerSPIILh32EEC1EP19__SPI_HandleTypeDefPNS_4gpioE9COMM_MODE>

	ICM42688::config_FIFO icmFifoCnf =
 8003bc0:	f507 7378 	add.w	r3, r7, #992	; 0x3e0
 8003bc4:	f5a3 7390 	sub.w	r3, r3, #288	; 0x120
 8003bc8:	2201      	movs	r2, #1
 8003bca:	801a      	strh	r2, [r3, #0]
 8003bcc:	f507 7378 	add.w	r3, r7, #992	; 0x3e0
 8003bd0:	f5a3 7390 	sub.w	r3, r3, #288	; 0x120
 8003bd4:	2200      	movs	r2, #0
 8003bd6:	605a      	str	r2, [r3, #4]
	{
		  .watermark = 1,
		  .mode = ICM42688::FIFO_MODE::BYPASS,
	};

	ICM42688::config_INT icmIntCnf =
 8003bd8:	f507 7378 	add.w	r3, r7, #992	; 0x3e0
 8003bdc:	f5a3 7398 	sub.w	r3, r3, #304	; 0x130
 8003be0:	4a73      	ldr	r2, [pc, #460]	; (8003db0 <_Z15normal_mode_runv+0x218>)
 8003be2:	461c      	mov	r4, r3
 8003be4:	4613      	mov	r3, r2
 8003be6:	cb0f      	ldmia	r3, {r0, r1, r2, r3}
 8003be8:	e884 000f 	stmia.w	r4, {r0, r1, r2, r3}
			//.int1Mode = ICM42688::INT_MODE::PULSED_PP_HIGH,
			.int2Source = ICM42688::INT_SOURCE::DISABLED,
			.int2Mode = ICM42688::INT_MODE::DISABLED,
	};

	ICM42688::Config icmCnf =
 8003bec:	f507 7378 	add.w	r3, r7, #992	; 0x3e0
 8003bf0:	f5a3 73ac 	sub.w	r3, r3, #344	; 0x158
 8003bf4:	4618      	mov	r0, r3
 8003bf6:	2328      	movs	r3, #40	; 0x28
 8003bf8:	461a      	mov	r2, r3
 8003bfa:	2100      	movs	r1, #0
 8003bfc:	f005 fcf2 	bl	80095e4 <memset>
 8003c00:	f507 7378 	add.w	r3, r7, #992	; 0x3e0
 8003c04:	f5a3 73ac 	sub.w	r3, r3, #344	; 0x158
 8003c08:	2203      	movs	r2, #3
 8003c0a:	601a      	str	r2, [r3, #0]
 8003c0c:	f507 7378 	add.w	r3, r7, #992	; 0x3e0
 8003c10:	f5a3 73ac 	sub.w	r3, r3, #344	; 0x158
 8003c14:	2206      	movs	r2, #6
 8003c16:	605a      	str	r2, [r3, #4]
 8003c18:	f507 7378 	add.w	r3, r7, #992	; 0x3e0
 8003c1c:	f5a3 73ac 	sub.w	r3, r3, #344	; 0x158
 8003c20:	2202      	movs	r2, #2
 8003c22:	609a      	str	r2, [r3, #8]
 8003c24:	f507 7378 	add.w	r3, r7, #992	; 0x3e0
 8003c28:	f5a3 73ac 	sub.w	r3, r3, #344	; 0x158
 8003c2c:	2206      	movs	r2, #6
 8003c2e:	60da      	str	r2, [r3, #12]
		.gyroODR 					= ICM42688::GYRO_CNF::ODR::ODR_1000,
		.accelFSR 					= ICM42688::ACCEL_CNF::FSR::FSR_4,
		.accelODR 					= ICM42688::ACCEL_CNF::ODR::ODR_1000,
		.fifoCnf					= icmFifoCnf,
		.intCnf						= icmIntCnf,
	};
 8003c30:	f507 7378 	add.w	r3, r7, #992	; 0x3e0
 8003c34:	f5a3 73ac 	sub.w	r3, r3, #344	; 0x158
 8003c38:	f507 7278 	add.w	r2, r7, #992	; 0x3e0
 8003c3c:	f5a2 7290 	sub.w	r2, r2, #288	; 0x120
 8003c40:	3310      	adds	r3, #16
 8003c42:	e892 0003 	ldmia.w	r2, {r0, r1}
 8003c46:	e883 0003 	stmia.w	r3, {r0, r1}
 8003c4a:	f507 7378 	add.w	r3, r7, #992	; 0x3e0
 8003c4e:	f5a3 73ac 	sub.w	r3, r3, #344	; 0x158
 8003c52:	f507 7278 	add.w	r2, r7, #992	; 0x3e0
 8003c56:	f5a2 7298 	sub.w	r2, r2, #304	; 0x130
 8003c5a:	f103 0418 	add.w	r4, r3, #24
 8003c5e:	4613      	mov	r3, r2
 8003c60:	cb0f      	ldmia	r3, {r0, r1, r2, r3}
 8003c62:	e884 000f 	stmia.w	r4, {r0, r1, r2, r3}

	ICM42688::icm42688 imu(icmCnf, &spi2, &imuCS);
 8003c66:	f507 734a 	add.w	r3, r7, #808	; 0x328
 8003c6a:	f507 7232 	add.w	r2, r7, #712	; 0x2c8
 8003c6e:	f507 7122 	add.w	r1, r7, #648	; 0x288
 8003c72:	f107 001c 	add.w	r0, r7, #28
 8003c76:	f7fd f987 	bl	8000f88 <_ZN8ICM426888icm42688C1ERNS_6ConfigEP9iPHandlerPN5STM324gpioE>

	// Inicialización del LED heartbeat==============================
	STM32::gpio ledHeartbeat(LED_HEARTBEAT_GPIO_Port, LED_HEARTBEAT_GPIO_Pin);
 8003c7a:	1d3b      	adds	r3, r7, #4
 8003c7c:	2201      	movs	r2, #1
 8003c7e:	494d      	ldr	r1, [pc, #308]	; (8003db4 <_Z15normal_mode_runv+0x21c>)
 8003c80:	4618      	mov	r0, r3
 8003c82:	f7fc ff63 	bl	8000b4c <_ZN5STM324gpioC1EP12GPIO_TypeDeft>

	// Inicialización de la CNI ==============================
	CNI_constructor(&hcan1);
 8003c86:	484c      	ldr	r0, [pc, #304]	; (8003db8 <_Z15normal_mode_runv+0x220>)
 8003c88:	f7fc fc3c 	bl	8000504 <_Z15CNI_constructorP19__CAN_HandleTypeDef>

	// Creación de las tareas========================================
	taskWatchdog_constructor(&taskWatchdog,
 8003c8c:	f507 706c 	add.w	r0, r7, #944	; 0x3b0
 8003c90:	4b4a      	ldr	r3, [pc, #296]	; (8003dbc <_Z15normal_mode_runv+0x224>)
 8003c92:	9301      	str	r3, [sp, #4]
 8003c94:	2300      	movs	r3, #0
 8003c96:	9300      	str	r3, [sp, #0]
 8003c98:	2364      	movs	r3, #100	; 0x64
 8003c9a:	2201      	movs	r2, #1
 8003c9c:	2100      	movs	r1, #0
 8003c9e:	f000 fc87 	bl	80045b0 <_Z24taskWatchdog_constructorP14taskWatchdog_tmmmmP18IWDG_HandleTypeDef>
			PERIOD_TASK_WATCHDOG_TICKS_NORMAL,
			WCET_TASK_WATCHDOG_US,
			BCET_TASK_WATCHDOG_US,
			&hiwdg);

	taskHeartbeat_constructor(&taskHeartbeat,
 8003ca2:	f507 7072 	add.w	r0, r7, #968	; 0x3c8
 8003ca6:	1d3b      	adds	r3, r7, #4
 8003ca8:	9301      	str	r3, [sp, #4]
 8003caa:	2300      	movs	r3, #0
 8003cac:	9300      	str	r3, [sp, #0]
 8003cae:	2364      	movs	r3, #100	; 0x64
 8003cb0:	f44f 727a 	mov.w	r2, #1000	; 0x3e8
 8003cb4:	2100      	movs	r1, #0
 8003cb6:	f000 fbc9 	bl	800444c <_Z25taskHeartbeat_constructorP15taskHeartbeat_tmmmmPN5STM324gpioE>
		  PERIOD_TASK_HEARTBEAT_TICKS_NORMAL,
		  WCET_TASK_HEARTBEAT_US,
		  BCET_TASK_HEARTBEAT_US,
		  &ledHeartbeat);

	taskIMUgetData_constructor(&taskIMUgetData,
 8003cba:	f507 705e 	add.w	r0, r7, #888	; 0x378
 8003cbe:	2301      	movs	r3, #1
 8003cc0:	9302      	str	r3, [sp, #8]
 8003cc2:	f107 031c 	add.w	r3, r7, #28
 8003cc6:	9301      	str	r3, [sp, #4]
 8003cc8:	2300      	movs	r3, #0
 8003cca:	9300      	str	r3, [sp, #0]
 8003ccc:	2364      	movs	r3, #100	; 0x64
 8003cce:	f44f 727a 	mov.w	r2, #1000	; 0x3e8
 8003cd2:	2101      	movs	r1, #1
 8003cd4:	f000 fbf0 	bl	80044b8 <_Z26taskIMUgetData_constructorP16taskIMUgetData_tmmmmPN8ICM426888icm42688Em>
		  PERIOD_TASK_IMU_TICKS_NORMAL,
		  WCET_TASK_IMU_US,
		  BCET_TASK_IMU_US,
		  &imu, HANDLE_MSG_CNI_SEND_IMU_DATA);

	taskCNIsendData_constructor(&taskCNIsendIMUdata,
 8003cd8:	f507 7058 	add.w	r0, r7, #864	; 0x360
 8003cdc:	2301      	movs	r3, #1
 8003cde:	9301      	str	r3, [sp, #4]
 8003ce0:	2300      	movs	r3, #0
 8003ce2:	9300      	str	r3, [sp, #0]
 8003ce4:	2364      	movs	r3, #100	; 0x64
 8003ce6:	f44f 727a 	mov.w	r2, #1000	; 0x3e8
 8003cea:	2102      	movs	r1, #2
 8003cec:	f000 fb7c 	bl	80043e8 <_Z27taskCNIsendData_constructorP17taskCNIsendData_tmmmmm>
		  PERIOD_TASK_CNI_SEND_IMU_TICKS_NORMAL,
		  WCET_TASK_CNI_SEND_IMU_US,
		  BCET_TASK_CNI_SEND_IMU_US,
		  HANDLE_MSG_CNI_SEND_IMU_DATA);

	taskTimeTriggeredSync_constructor(&taskPeriodicSync,
 8003cf0:	f507 7050 	add.w	r0, r7, #832	; 0x340
 8003cf4:	f44f 7396 	mov.w	r3, #300	; 0x12c
 8003cf8:	9303      	str	r3, [sp, #12]
 8003cfa:	f44f 7396 	mov.w	r3, #300	; 0x12c
 8003cfe:	9302      	str	r3, [sp, #8]
 8003d00:	2300      	movs	r3, #0
 8003d02:	9301      	str	r3, [sp, #4]
 8003d04:	2300      	movs	r3, #0
 8003d06:	9300      	str	r3, [sp, #0]
 8003d08:	2364      	movs	r3, #100	; 0x64
 8003d0a:	f44f 727a 	mov.w	r2, #1000	; 0x3e8
 8003d0e:	f44f 71fa 	mov.w	r1, #500	; 0x1f4
 8003d12:	f000 fdf9 	bl	8004908 <_Z33taskTimeTriggeredSync_constructorP23taskTimeTriggeredSync_tmmmmmmm>
		  HANDLE_MSG_CNI_SYNC,
		  EXPECTED_SYNC_TIMESTAMP_TICKS,
		  DELAY_SYNC_TICKS);

	// Inicialización del scheduler =================================
	timeTriggeredScheduler_constructor(&htim5, MICROTICKS_IN_MACROTICK);
 8003d16:	f240 31e7 	movw	r1, #999	; 0x3e7
 8003d1a:	4829      	ldr	r0, [pc, #164]	; (8003dc0 <_Z15normal_mode_runv+0x228>)
 8003d1c:	f000 fd16 	bl	800474c <_Z34timeTriggeredScheduler_constructorP19__TIM_HandleTypeDefm>
	timeTriggeredScheduler_init();
 8003d20:	f000 fd3e 	bl	80047a0 <_Z27timeTriggeredScheduler_initv>

	CNI_init();
 8003d24:	f7fc fc0a 	bl	800053c <_Z8CNI_initv>

	taskHeartbeat_start(&taskHeartbeat);
 8003d28:	f507 7372 	add.w	r3, r7, #968	; 0x3c8
 8003d2c:	4618      	mov	r0, r3
 8003d2e:	f000 fba7 	bl	8004480 <_Z19taskHeartbeat_startP15taskHeartbeat_t>
	taskIMUgetData_start(&taskIMUgetData);
 8003d32:	f507 735e 	add.w	r3, r7, #888	; 0x378
 8003d36:	4618      	mov	r0, r3
 8003d38:	f000 fbdc 	bl	80044f4 <_Z20taskIMUgetData_startP16taskIMUgetData_t>
	taskCNIsendData_start(&taskCNIsendIMUdata);
 8003d3c:	f507 7358 	add.w	r3, r7, #864	; 0x360
 8003d40:	4618      	mov	r0, r3
 8003d42:	f000 fb6b 	bl	800441c <_Z21taskCNIsendData_startP17taskCNIsendData_t>

	timeTriggeredScheduler_add_task((timeTriggeredTask_t*)&taskHeartbeat);
 8003d46:	f507 7372 	add.w	r3, r7, #968	; 0x3c8
 8003d4a:	4618      	mov	r0, r3
 8003d4c:	f000 fdb4 	bl	80048b8 <_Z31timeTriggeredScheduler_add_taskP19timeTriggeredTask_t>
	timeTriggeredScheduler_add_task((timeTriggeredTask_t*)&taskWatchdog);
 8003d50:	f507 736c 	add.w	r3, r7, #944	; 0x3b0
 8003d54:	4618      	mov	r0, r3
 8003d56:	f000 fdaf 	bl	80048b8 <_Z31timeTriggeredScheduler_add_taskP19timeTriggeredTask_t>
	timeTriggeredScheduler_add_task((timeTriggeredTask_t*)&taskPeriodicSync);
 8003d5a:	f507 7350 	add.w	r3, r7, #832	; 0x340
 8003d5e:	4618      	mov	r0, r3
 8003d60:	f000 fdaa 	bl	80048b8 <_Z31timeTriggeredScheduler_add_taskP19timeTriggeredTask_t>
	timeTriggeredScheduler_add_task((timeTriggeredTask_t*)&taskIMUgetData);
 8003d64:	f507 735e 	add.w	r3, r7, #888	; 0x378
 8003d68:	4618      	mov	r0, r3
 8003d6a:	f000 fda5 	bl	80048b8 <_Z31timeTriggeredScheduler_add_taskP19timeTriggeredTask_t>
	timeTriggeredScheduler_add_task((timeTriggeredTask_t*)&taskCNIsendIMUdata);
 8003d6e:	f507 7358 	add.w	r3, r7, #864	; 0x360
 8003d72:	4618      	mov	r0, r3
 8003d74:	f000 fda0 	bl	80048b8 <_Z31timeTriggeredScheduler_add_taskP19timeTriggeredTask_t>

	CNI_start();
 8003d78:	f7fc fc06 	bl	8000588 <_Z9CNI_startv>

	// Se queda acá esperando hasta que se cumpla la condición para comenzar
	while(!run)
 8003d7c:	bf00      	nop
 8003d7e:	4b11      	ldr	r3, [pc, #68]	; (8003dc4 <_Z15normal_mode_runv+0x22c>)
 8003d80:	781b      	ldrb	r3, [r3, #0]
 8003d82:	f083 0301 	eor.w	r3, r3, #1
 8003d86:	b2db      	uxtb	r3, r3
 8003d88:	2b00      	cmp	r3, #0
 8003d8a:	d1f8      	bne.n	8003d7e <_Z15normal_mode_runv+0x1e6>
	{
		//__asm__("wfi");
	}

#if IS_MASTER
	CNI_send_msg(HANDLE_MSG_CNI_SYNC);
 8003d8c:	2000      	movs	r0, #0
 8003d8e:	f7fc fc07 	bl	80005a0 <_Z12CNI_send_msgm>
#endif
	taskWatchdog_start(&taskWatchdog);
 8003d92:	f507 736c 	add.w	r3, r7, #944	; 0x3b0
 8003d96:	4618      	mov	r0, r3
 8003d98:	f000 fc38 	bl	800460c <_Z18taskWatchdog_startP14taskWatchdog_t>

	timeTriggeredScheduler_start();
 8003d9c:	f000 fd18 	bl	80047d0 <_Z28timeTriggeredScheduler_startv>

	while(1)
	{
		timeTriggeredScheduler_dispatch();
 8003da0:	f000 fd22 	bl	80047e8 <_Z31timeTriggeredScheduler_dispatchv>
 8003da4:	e7fc      	b.n	8003da0 <_Z15normal_mode_runv+0x208>
 8003da6:	bf00      	nop
 8003da8:	40021000 	.word	0x40021000
 8003dac:	20000208 	.word	0x20000208
 8003db0:	080097c8 	.word	0x080097c8
 8003db4:	40020400 	.word	0x40020400
 8003db8:	200001cc 	.word	0x200001cc
 8003dbc:	200001f4 	.word	0x200001f4
 8003dc0:	20000274 	.word	0x20000274
 8003dc4:	20000204 	.word	0x20000204

08003dc8 <HAL_GPIO_EXTI_Callback>:
	}
}

#if IS_MASTER
void HAL_GPIO_EXTI_Callback(uint16_t GPIO_Pin)
{
 8003dc8:	b480      	push	{r7}
 8003dca:	b083      	sub	sp, #12
 8003dcc:	af00      	add	r7, sp, #0
 8003dce:	4603      	mov	r3, r0
 8003dd0:	80fb      	strh	r3, [r7, #6]
    if(GPIO_Pin == USER_Btn_Pin)
 8003dd2:	88fb      	ldrh	r3, [r7, #6]
 8003dd4:	f5b3 5f00 	cmp.w	r3, #8192	; 0x2000
 8003dd8:	d102      	bne.n	8003de0 <HAL_GPIO_EXTI_Callback+0x18>
    {
    	run = true;
 8003dda:	4b04      	ldr	r3, [pc, #16]	; (8003dec <HAL_GPIO_EXTI_Callback+0x24>)
 8003ddc:	2201      	movs	r2, #1
 8003dde:	701a      	strb	r2, [r3, #0]
    }
}
 8003de0:	bf00      	nop
 8003de2:	370c      	adds	r7, #12
 8003de4:	46bd      	mov	sp, r7
 8003de6:	f85d 7b04 	ldr.w	r7, [sp], #4
 8003dea:	4770      	bx	lr
 8003dec:	20000204 	.word	0x20000204

08003df0 <_ZN9iPHandlerC1Ev>:
class iPHandler {
 8003df0:	b480      	push	{r7}
 8003df2:	b083      	sub	sp, #12
 8003df4:	af00      	add	r7, sp, #0
 8003df6:	6078      	str	r0, [r7, #4]
 8003df8:	4a04      	ldr	r2, [pc, #16]	; (8003e0c <_ZN9iPHandlerC1Ev+0x1c>)
 8003dfa:	687b      	ldr	r3, [r7, #4]
 8003dfc:	601a      	str	r2, [r3, #0]
 8003dfe:	687b      	ldr	r3, [r7, #4]
 8003e00:	4618      	mov	r0, r3
 8003e02:	370c      	adds	r7, #12
 8003e04:	46bd      	mov	sp, r7
 8003e06:	f85d 7b04 	ldr.w	r7, [sp], #4
 8003e0a:	4770      	bx	lr
 8003e0c:	08009894 	.word	0x08009894

08003e10 <_ZN5STM3211PHandlerSPIILh32EEC1EP19__SPI_HandleTypeDefPNS_4gpioE9COMM_MODE>:

template <uint8_t BufferSize = 32>
class PHandlerSPI : public iPHandler {
public:

	PHandlerSPI(SPI_HandleTypeDef* spiHandler, gpio *cs, COMM_MODE mode)
 8003e10:	b580      	push	{r7, lr}
 8003e12:	b084      	sub	sp, #16
 8003e14:	af00      	add	r7, sp, #0
 8003e16:	60f8      	str	r0, [r7, #12]
 8003e18:	60b9      	str	r1, [r7, #8]
 8003e1a:	607a      	str	r2, [r7, #4]
 8003e1c:	603b      	str	r3, [r7, #0]
		: m_handler(spiHandler)
		, m_cs(cs)
		, m_mode(mode)
		, m_size(0)
 8003e1e:	68fb      	ldr	r3, [r7, #12]
 8003e20:	4618      	mov	r0, r3
 8003e22:	f7ff ffe5 	bl	8003df0 <_ZN9iPHandlerC1Ev>
 8003e26:	4a13      	ldr	r2, [pc, #76]	; (8003e74 <_ZN5STM3211PHandlerSPIILh32EEC1EP19__SPI_HandleTypeDefPNS_4gpioE9COMM_MODE+0x64>)
 8003e28:	68fb      	ldr	r3, [r7, #12]
 8003e2a:	601a      	str	r2, [r3, #0]
		: m_handler(spiHandler)
 8003e2c:	68fb      	ldr	r3, [r7, #12]
 8003e2e:	68ba      	ldr	r2, [r7, #8]
 8003e30:	60da      	str	r2, [r3, #12]
		, m_cs(cs)
 8003e32:	68fb      	ldr	r3, [r7, #12]
 8003e34:	687a      	ldr	r2, [r7, #4]
 8003e36:	611a      	str	r2, [r3, #16]
		, m_mode(mode)
 8003e38:	68fb      	ldr	r3, [r7, #12]
 8003e3a:	683a      	ldr	r2, [r7, #0]
 8003e3c:	615a      	str	r2, [r3, #20]
		, m_size(0)
 8003e3e:	68fb      	ldr	r3, [r7, #12]
 8003e40:	2200      	movs	r2, #0
 8003e42:	f883 2058 	strb.w	r2, [r3, #88]	; 0x58
		{

			m_mutex = false;
 8003e46:	68fb      	ldr	r3, [r7, #12]
 8003e48:	2200      	movs	r2, #0
 8003e4a:	721a      	strb	r2, [r3, #8]
			m_cs->write(GPIO_ST::HIGH);
 8003e4c:	68fb      	ldr	r3, [r7, #12]
 8003e4e:	691b      	ldr	r3, [r3, #16]
 8003e50:	2101      	movs	r1, #1
 8003e52:	4618      	mov	r0, r3
 8003e54:	f7fc fea0 	bl	8000b98 <_ZN5STM324gpio5writeE7GPIO_ST>
			m_recvBuffer = &m_rxBuffer[1];
 8003e58:	68fb      	ldr	r3, [r7, #12]
 8003e5a:	f103 0219 	add.w	r2, r3, #25
 8003e5e:	68fb      	ldr	r3, [r7, #12]
 8003e60:	605a      	str	r2, [r3, #4]
			//m_blockDelay = delay == 0 ? HAL_MAX_DELAY : delay;
			m_blockDelay = 5000;
 8003e62:	68fb      	ldr	r3, [r7, #12]
 8003e64:	f241 3288 	movw	r2, #5000	; 0x1388
 8003e68:	65da      	str	r2, [r3, #92]	; 0x5c
		}
 8003e6a:	68fb      	ldr	r3, [r7, #12]
 8003e6c:	4618      	mov	r0, r3
 8003e6e:	3710      	adds	r7, #16
 8003e70:	46bd      	mov	sp, r7
 8003e72:	bd80      	pop	{r7, pc}
 8003e74:	08009884 	.word	0x08009884

08003e78 <_ZN5STM3211PHandlerSPIILh32EE14read_registersERK11PHandlerOpt>:
		: PHandlerSPI(spiHandler, cs, COMM_MODE::BLCK)
		{}


	//iHANDLER_ST read_registers(uint8_t add, uint8_t size, void *cs, COMM_MODE mode)
	iPHANDLER_ST read_registers(const PHandlerOpt &opt) override
 8003e78:	b580      	push	{r7, lr}
 8003e7a:	b082      	sub	sp, #8
 8003e7c:	af00      	add	r7, sp, #0
 8003e7e:	6078      	str	r0, [r7, #4]
 8003e80:	6039      	str	r1, [r7, #0]
	{
		//SPI_ST ret = SPI_ST::OK;

		if(opt.size > BufferSize-1){
 8003e82:	683b      	ldr	r3, [r7, #0]
 8003e84:	785b      	ldrb	r3, [r3, #1]
 8003e86:	2b1f      	cmp	r3, #31
 8003e88:	d901      	bls.n	8003e8e <_ZN5STM3211PHandlerSPIILh32EE14read_registersERK11PHandlerOpt+0x16>
				return iPHANDLER_ST::ERROR;
 8003e8a:	2301      	movs	r3, #1
 8003e8c:	e029      	b.n	8003ee2 <_ZN5STM3211PHandlerSPIILh32EE14read_registersERK11PHandlerOpt+0x6a>
		//if(m_mutex == true){
		//	return iHANDLER_ST::UNAVAILABLE;
		//}
		//m_mutex = true;

		m_txBuffer[0] = add_read_bit(opt.add, opt.rw, opt.rwFront);
 8003e8e:	683b      	ldr	r3, [r7, #0]
 8003e90:	7818      	ldrb	r0, [r3, #0]
 8003e92:	683b      	ldr	r3, [r7, #0]
 8003e94:	7b19      	ldrb	r1, [r3, #12]
 8003e96:	683b      	ldr	r3, [r7, #0]
 8003e98:	7b5b      	ldrb	r3, [r3, #13]
 8003e9a:	461a      	mov	r2, r3
 8003e9c:	f7ff fe28 	bl	8003af0 <_ZN9iPHandler12add_read_bitEhbb>
 8003ea0:	4603      	mov	r3, r0
 8003ea2:	461a      	mov	r2, r3
 8003ea4:	687b      	ldr	r3, [r7, #4]
 8003ea6:	f883 2038 	strb.w	r2, [r3, #56]	; 0x38
		m_mode = opt.mode;
 8003eaa:	683b      	ldr	r3, [r7, #0]
 8003eac:	689a      	ldr	r2, [r3, #8]
 8003eae:	687b      	ldr	r3, [r7, #4]
 8003eb0:	615a      	str	r2, [r3, #20]
		m_size = opt.size + 1;
 8003eb2:	683b      	ldr	r3, [r7, #0]
 8003eb4:	785b      	ldrb	r3, [r3, #1]
 8003eb6:	3301      	adds	r3, #1
 8003eb8:	b2da      	uxtb	r2, r3
 8003eba:	687b      	ldr	r3, [r7, #4]
 8003ebc:	f883 2058 	strb.w	r2, [r3, #88]	; 0x58
		m_cs = static_cast<gpio*>(opt.slave);
 8003ec0:	683b      	ldr	r3, [r7, #0]
 8003ec2:	685a      	ldr	r2, [r3, #4]
 8003ec4:	687b      	ldr	r3, [r7, #4]
 8003ec6:	611a      	str	r2, [r3, #16]
		m_recvBuffer = &m_rxBuffer[opt.addSize]; // recvBuffer apunta a donde comienza la recepción de SPI según el largo del address (en bytes)
 8003ec8:	683b      	ldr	r3, [r7, #0]
 8003eca:	7b9b      	ldrb	r3, [r3, #14]
 8003ecc:	3318      	adds	r3, #24
 8003ece:	687a      	ldr	r2, [r7, #4]
 8003ed0:	441a      	add	r2, r3
 8003ed2:	687b      	ldr	r3, [r7, #4]
 8003ed4:	605a      	str	r2, [r3, #4]

		return start_transmition();
 8003ed6:	2100      	movs	r1, #0
 8003ed8:	6878      	ldr	r0, [r7, #4]
 8003eda:	f000 f842 	bl	8003f62 <_ZN5STM3211PHandlerSPIILh32EE17start_transmitionEPv>
 8003ede:	4603      	mov	r3, r0
 8003ee0:	bf00      	nop
	}
 8003ee2:	4618      	mov	r0, r3
 8003ee4:	3708      	adds	r7, #8
 8003ee6:	46bd      	mov	sp, r7
 8003ee8:	bd80      	pop	{r7, pc}

08003eea <_ZN5STM3211PHandlerSPIILh32EE15write_registersEPhRK11PHandlerOpt>:

	//iHANDLER_ST write_registers(uint8_t add, uint8_t *data, uint8_t size, void *cs, COMM_MODE mode)
	iPHANDLER_ST write_registers(uint8_t *data, const PHandlerOpt &opt) override
 8003eea:	b580      	push	{r7, lr}
 8003eec:	b084      	sub	sp, #16
 8003eee:	af00      	add	r7, sp, #0
 8003ef0:	60f8      	str	r0, [r7, #12]
 8003ef2:	60b9      	str	r1, [r7, #8]
 8003ef4:	607a      	str	r2, [r7, #4]
	{
		//SPI_ST ret = SPI_ST::OK;

		if(opt.size > BufferSize-1){
 8003ef6:	687b      	ldr	r3, [r7, #4]
 8003ef8:	785b      	ldrb	r3, [r3, #1]
 8003efa:	2b1f      	cmp	r3, #31
 8003efc:	d901      	bls.n	8003f02 <_ZN5STM3211PHandlerSPIILh32EE15write_registersEPhRK11PHandlerOpt+0x18>
				return iPHANDLER_ST::ERROR;
 8003efe:	2301      	movs	r3, #1
 8003f00:	e02b      	b.n	8003f5a <_ZN5STM3211PHandlerSPIILh32EE15write_registersEPhRK11PHandlerOpt+0x70>
		//if(m_mutex == true){
		//	return iHANDLER_ST::UNAVAILABLE;
		//}
		//m_mutex = true;

		m_txBuffer[0] = add_write_bit(opt.add, opt.rw, opt.rwFront);
 8003f02:	687b      	ldr	r3, [r7, #4]
 8003f04:	7818      	ldrb	r0, [r3, #0]
 8003f06:	687b      	ldr	r3, [r7, #4]
 8003f08:	7b19      	ldrb	r1, [r3, #12]
 8003f0a:	687b      	ldr	r3, [r7, #4]
 8003f0c:	7b5b      	ldrb	r3, [r3, #13]
 8003f0e:	461a      	mov	r2, r3
 8003f10:	f7ff fe18 	bl	8003b44 <_ZN9iPHandler13add_write_bitEhbb>
 8003f14:	4603      	mov	r3, r0
 8003f16:	461a      	mov	r2, r3
 8003f18:	68fb      	ldr	r3, [r7, #12]
 8003f1a:	f883 2038 	strb.w	r2, [r3, #56]	; 0x38
		memcpy(m_txBuffer + 1, data, opt.size);
 8003f1e:	68fb      	ldr	r3, [r7, #12]
 8003f20:	3338      	adds	r3, #56	; 0x38
 8003f22:	1c58      	adds	r0, r3, #1
 8003f24:	687b      	ldr	r3, [r7, #4]
 8003f26:	785b      	ldrb	r3, [r3, #1]
 8003f28:	461a      	mov	r2, r3
 8003f2a:	68b9      	ldr	r1, [r7, #8]
 8003f2c:	f005 fbe2 	bl	80096f4 <memcpy>
		m_mode = opt.mode;
 8003f30:	687b      	ldr	r3, [r7, #4]
 8003f32:	689a      	ldr	r2, [r3, #8]
 8003f34:	68fb      	ldr	r3, [r7, #12]
 8003f36:	615a      	str	r2, [r3, #20]
		m_size = opt.size + 1;
 8003f38:	687b      	ldr	r3, [r7, #4]
 8003f3a:	785b      	ldrb	r3, [r3, #1]
 8003f3c:	3301      	adds	r3, #1
 8003f3e:	b2da      	uxtb	r2, r3
 8003f40:	68fb      	ldr	r3, [r7, #12]
 8003f42:	f883 2058 	strb.w	r2, [r3, #88]	; 0x58
		m_cs = static_cast<gpio*>(opt.slave);
 8003f46:	687b      	ldr	r3, [r7, #4]
 8003f48:	685a      	ldr	r2, [r3, #4]
 8003f4a:	68fb      	ldr	r3, [r7, #12]
 8003f4c:	611a      	str	r2, [r3, #16]

		return start_transmition();
 8003f4e:	2100      	movs	r1, #0
 8003f50:	68f8      	ldr	r0, [r7, #12]
 8003f52:	f000 f806 	bl	8003f62 <_ZN5STM3211PHandlerSPIILh32EE17start_transmitionEPv>
 8003f56:	4603      	mov	r3, r0
 8003f58:	bf00      	nop
	}
 8003f5a:	4618      	mov	r0, r3
 8003f5c:	3710      	adds	r7, #16
 8003f5e:	46bd      	mov	sp, r7
 8003f60:	bd80      	pop	{r7, pc}

08003f62 <_ZN5STM3211PHandlerSPIILh32EE17start_transmitionEPv>:




	iPHANDLER_ST start_transmition(void *fn_pointer = nullptr ) // arreglar cuando se use la DMA
 8003f62:	b580      	push	{r7, lr}
 8003f64:	b084      	sub	sp, #16
 8003f66:	af00      	add	r7, sp, #0
 8003f68:	6078      	str	r0, [r7, #4]
 8003f6a:	6039      	str	r1, [r7, #0]
	{
		iPHANDLER_ST ret = iPHANDLER_ST::OK;
 8003f6c:	2300      	movs	r3, #0
 8003f6e:	60fb      	str	r3, [r7, #12]
		//m_spiHandler.m_csPin = m_cs;

		m_cs->write(GPIO_ST::LOW);
 8003f70:	687b      	ldr	r3, [r7, #4]
 8003f72:	691b      	ldr	r3, [r3, #16]
 8003f74:	2100      	movs	r1, #0
 8003f76:	4618      	mov	r0, r3
 8003f78:	f7fc fe0e 	bl	8000b98 <_ZN5STM324gpio5writeE7GPIO_ST>
		switch (m_mode)
 8003f7c:	687b      	ldr	r3, [r7, #4]
 8003f7e:	695b      	ldr	r3, [r3, #20]
 8003f80:	2b02      	cmp	r3, #2
 8003f82:	d021      	beq.n	8003fc8 <_ZN5STM3211PHandlerSPIILh32EE17start_transmitionEPv+0x66>
 8003f84:	2b02      	cmp	r3, #2
 8003f86:	dc21      	bgt.n	8003fcc <_ZN5STM3211PHandlerSPIILh32EE17start_transmitionEPv+0x6a>
 8003f88:	2b00      	cmp	r3, #0
 8003f8a:	d002      	beq.n	8003f92 <_ZN5STM3211PHandlerSPIILh32EE17start_transmitionEPv+0x30>
 8003f8c:	2b01      	cmp	r3, #1
 8003f8e:	d019      	beq.n	8003fc4 <_ZN5STM3211PHandlerSPIILh32EE17start_transmitionEPv+0x62>
 8003f90:	e01c      	b.n	8003fcc <_ZN5STM3211PHandlerSPIILh32EE17start_transmitionEPv+0x6a>
		{
		case COMM_MODE::BLCK:

			ret = transmit(m_txBuffer, m_rxBuffer, m_size);
 8003f92:	687b      	ldr	r3, [r7, #4]
 8003f94:	f103 0138 	add.w	r1, r3, #56	; 0x38
 8003f98:	687b      	ldr	r3, [r7, #4]
 8003f9a:	f103 0218 	add.w	r2, r3, #24
 8003f9e:	687b      	ldr	r3, [r7, #4]
 8003fa0:	f893 3058 	ldrb.w	r3, [r3, #88]	; 0x58
 8003fa4:	b29b      	uxth	r3, r3
 8003fa6:	6878      	ldr	r0, [r7, #4]
 8003fa8:	f000 f81e 	bl	8003fe8 <_ZN5STM3211PHandlerSPIILh32EE8transmitEPhS2_t>
 8003fac:	60f8      	str	r0, [r7, #12]
			m_cs->write(GPIO_ST::HIGH);
 8003fae:	687b      	ldr	r3, [r7, #4]
 8003fb0:	691b      	ldr	r3, [r3, #16]
 8003fb2:	2101      	movs	r1, #1
 8003fb4:	4618      	mov	r0, r3
 8003fb6:	f7fc fdef 	bl	8000b98 <_ZN5STM324gpio5writeE7GPIO_ST>
			if(ret != iPHANDLER_ST::OK){
 8003fba:	68fb      	ldr	r3, [r7, #12]
 8003fbc:	2b00      	cmp	r3, #0
 8003fbe:	d00d      	beq.n	8003fdc <_ZN5STM3211PHandlerSPIILh32EE17start_transmitionEPv+0x7a>
				return iPHANDLER_ST::ERROR;
 8003fc0:	2301      	movs	r3, #1
 8003fc2:	e00d      	b.n	8003fe0 <_ZN5STM3211PHandlerSPIILh32EE17start_transmitionEPv+0x7e>
			}
			break;

		case COMM_MODE::IT:
			 return iPHANDLER_ST::INVALID;
 8003fc4:	2303      	movs	r3, #3
 8003fc6:	e00b      	b.n	8003fe0 <_ZN5STM3211PHandlerSPIILh32EE17start_transmitionEPv+0x7e>
			break;

		case COMM_MODE::DMA:
			return iPHANDLER_ST::INVALID;
 8003fc8:	2303      	movs	r3, #3
 8003fca:	e009      	b.n	8003fe0 <_ZN5STM3211PHandlerSPIILh32EE17start_transmitionEPv+0x7e>
			break;


		default:
			m_cs->write(GPIO_ST::HIGH);
 8003fcc:	687b      	ldr	r3, [r7, #4]
 8003fce:	691b      	ldr	r3, [r3, #16]
 8003fd0:	2101      	movs	r1, #1
 8003fd2:	4618      	mov	r0, r3
 8003fd4:	f7fc fde0 	bl	8000b98 <_ZN5STM324gpio5writeE7GPIO_ST>
			return iPHANDLER_ST::INVALID;
 8003fd8:	2303      	movs	r3, #3
 8003fda:	e001      	b.n	8003fe0 <_ZN5STM3211PHandlerSPIILh32EE17start_transmitionEPv+0x7e>
			break;
 8003fdc:	bf00      	nop
			break;
		}

		return iPHANDLER_ST::OK;
 8003fde:	2300      	movs	r3, #0
	}
 8003fe0:	4618      	mov	r0, r3
 8003fe2:	3710      	adds	r7, #16
 8003fe4:	46bd      	mov	sp, r7
 8003fe6:	bd80      	pop	{r7, pc}

08003fe8 <_ZN5STM3211PHandlerSPIILh32EE8transmitEPhS2_t>:


	   return map_hal_st_to_handler_st(retHal);
   }

   iPHANDLER_ST transmit(uint8_t *pTxData, uint8_t *pRxData, uint16_t size)
 8003fe8:	b580      	push	{r7, lr}
 8003fea:	b088      	sub	sp, #32
 8003fec:	af02      	add	r7, sp, #8
 8003fee:	60f8      	str	r0, [r7, #12]
 8003ff0:	60b9      	str	r1, [r7, #8]
 8003ff2:	607a      	str	r2, [r7, #4]
 8003ff4:	807b      	strh	r3, [r7, #2]
   {

	   HAL_StatusTypeDef retHal = HAL_OK;
 8003ff6:	2300      	movs	r3, #0
 8003ff8:	75fb      	strb	r3, [r7, #23]
	   if(m_cs == nullptr)
 8003ffa:	68fb      	ldr	r3, [r7, #12]
 8003ffc:	691b      	ldr	r3, [r3, #16]
 8003ffe:	2b00      	cmp	r3, #0
 8004000:	d101      	bne.n	8004006 <_ZN5STM3211PHandlerSPIILh32EE8transmitEPhS2_t+0x1e>
		   return iPHANDLER_ST::ERROR;
 8004002:	2301      	movs	r3, #1
 8004004:	e013      	b.n	800402e <_ZN5STM3211PHandlerSPIILh32EE8transmitEPhS2_t+0x46>

	   //m_csPin->write(GPIO_ST::LOW);

	   retHal = HAL_SPI_TransmitReceive(
 8004006:	68fb      	ldr	r3, [r7, #12]
 8004008:	68d8      	ldr	r0, [r3, #12]
 800400a:	68fb      	ldr	r3, [r7, #12]
 800400c:	6ddb      	ldr	r3, [r3, #92]	; 0x5c
 800400e:	887a      	ldrh	r2, [r7, #2]
 8004010:	9300      	str	r3, [sp, #0]
 8004012:	4613      	mov	r3, r2
 8004014:	687a      	ldr	r2, [r7, #4]
 8004016:	68b9      	ldr	r1, [r7, #8]
 8004018:	f002 fecb 	bl	8006db2 <HAL_SPI_TransmitReceive>
 800401c:	4603      	mov	r3, r0
 800401e:	75fb      	strb	r3, [r7, #23]
				   size,
				m_blockDelay
			   );
	   //m_csPin->write(GPIO_ST::HIGH);

	   return map_hal_st_to_handler_st(retHal);
 8004020:	7dfb      	ldrb	r3, [r7, #23]
 8004022:	4619      	mov	r1, r3
 8004024:	68f8      	ldr	r0, [r7, #12]
 8004026:	f000 f806 	bl	8004036 <_ZN5STM3211PHandlerSPIILh32EE24map_hal_st_to_handler_stE17HAL_StatusTypeDef>
 800402a:	4603      	mov	r3, r0
 800402c:	bf00      	nop

   }
 800402e:	4618      	mov	r0, r3
 8004030:	3718      	adds	r7, #24
 8004032:	46bd      	mov	sp, r7
 8004034:	bd80      	pop	{r7, pc}

08004036 <_ZN5STM3211PHandlerSPIILh32EE24map_hal_st_to_handler_stE17HAL_StatusTypeDef>:
   {
	   return iPHANDLER_ST::INVALID;
   }


   iPHANDLER_ST map_hal_st_to_handler_st(HAL_StatusTypeDef st)
 8004036:	b480      	push	{r7}
 8004038:	b083      	sub	sp, #12
 800403a:	af00      	add	r7, sp, #0
 800403c:	6078      	str	r0, [r7, #4]
 800403e:	460b      	mov	r3, r1
 8004040:	70fb      	strb	r3, [r7, #3]
   {
	   switch (st){
 8004042:	78fb      	ldrb	r3, [r7, #3]
 8004044:	2b00      	cmp	r3, #0
 8004046:	d101      	bne.n	800404c <_ZN5STM3211PHandlerSPIILh32EE24map_hal_st_to_handler_stE17HAL_StatusTypeDef+0x16>
	   case HAL_OK:
		   return iPHANDLER_ST::OK;
 8004048:	2300      	movs	r3, #0
 800404a:	e000      	b.n	800404e <_ZN5STM3211PHandlerSPIILh32EE24map_hal_st_to_handler_stE17HAL_StatusTypeDef+0x18>
		   break;
	   case HAL_TIMEOUT:
	   case HAL_ERROR:
	   default:
		   return iPHANDLER_ST::ERROR;
 800404c:	2301      	movs	r3, #1
		   break;
	   }
   }
 800404e:	4618      	mov	r0, r3
 8004050:	370c      	adds	r7, #12
 8004052:	46bd      	mov	sp, r7
 8004054:	f85d 7b04 	ldr.w	r7, [sp], #4
 8004058:	4770      	bx	lr

0800405a <_Z22my_copy_array_of_uint8PhPKhm>:
 */

#include "myUtils.h"

void my_copy_array_of_uint8(uint8_t *dest, const uint8_t *src, uint32_t n)
{
 800405a:	b480      	push	{r7}
 800405c:	b087      	sub	sp, #28
 800405e:	af00      	add	r7, sp, #0
 8004060:	60f8      	str	r0, [r7, #12]
 8004062:	60b9      	str	r1, [r7, #8]
 8004064:	607a      	str	r2, [r7, #4]
	uint32_t i;

	for(i = 0; i < n; i++)
 8004066:	2300      	movs	r3, #0
 8004068:	617b      	str	r3, [r7, #20]
 800406a:	e00a      	b.n	8004082 <_Z22my_copy_array_of_uint8PhPKhm+0x28>
	{
		dest[i] = src[i];
 800406c:	68ba      	ldr	r2, [r7, #8]
 800406e:	697b      	ldr	r3, [r7, #20]
 8004070:	441a      	add	r2, r3
 8004072:	68f9      	ldr	r1, [r7, #12]
 8004074:	697b      	ldr	r3, [r7, #20]
 8004076:	440b      	add	r3, r1
 8004078:	7812      	ldrb	r2, [r2, #0]
 800407a:	701a      	strb	r2, [r3, #0]
	for(i = 0; i < n; i++)
 800407c:	697b      	ldr	r3, [r7, #20]
 800407e:	3301      	adds	r3, #1
 8004080:	617b      	str	r3, [r7, #20]
 8004082:	697a      	ldr	r2, [r7, #20]
 8004084:	687b      	ldr	r3, [r7, #4]
 8004086:	429a      	cmp	r2, r3
 8004088:	d3f0      	bcc.n	800406c <_Z22my_copy_array_of_uint8PhPKhm+0x12>
	}
}
 800408a:	bf00      	nop
 800408c:	bf00      	nop
 800408e:	371c      	adds	r7, #28
 8004090:	46bd      	mov	sp, r7
 8004092:	f85d 7b04 	ldr.w	r7, [sp], #4
 8004096:	4770      	bx	lr

08004098 <MX_SPI2_Init>:

SPI_HandleTypeDef hspi2;

/* SPI2 init function */
void MX_SPI2_Init(void)
{
 8004098:	b580      	push	{r7, lr}
 800409a:	af00      	add	r7, sp, #0
  /* USER CODE END SPI2_Init 0 */

  /* USER CODE BEGIN SPI2_Init 1 */

  /* USER CODE END SPI2_Init 1 */
  hspi2.Instance = SPI2;
 800409c:	4b1b      	ldr	r3, [pc, #108]	; (800410c <MX_SPI2_Init+0x74>)
 800409e:	4a1c      	ldr	r2, [pc, #112]	; (8004110 <MX_SPI2_Init+0x78>)
 80040a0:	601a      	str	r2, [r3, #0]
  hspi2.Init.Mode = SPI_MODE_MASTER;
 80040a2:	4b1a      	ldr	r3, [pc, #104]	; (800410c <MX_SPI2_Init+0x74>)
 80040a4:	f44f 7282 	mov.w	r2, #260	; 0x104
 80040a8:	605a      	str	r2, [r3, #4]
  hspi2.Init.Direction = SPI_DIRECTION_2LINES;
 80040aa:	4b18      	ldr	r3, [pc, #96]	; (800410c <MX_SPI2_Init+0x74>)
 80040ac:	2200      	movs	r2, #0
 80040ae:	609a      	str	r2, [r3, #8]
  hspi2.Init.DataSize = SPI_DATASIZE_8BIT;
 80040b0:	4b16      	ldr	r3, [pc, #88]	; (800410c <MX_SPI2_Init+0x74>)
 80040b2:	f44f 62e0 	mov.w	r2, #1792	; 0x700
 80040b6:	60da      	str	r2, [r3, #12]
  hspi2.Init.CLKPolarity = SPI_POLARITY_LOW;
 80040b8:	4b14      	ldr	r3, [pc, #80]	; (800410c <MX_SPI2_Init+0x74>)
 80040ba:	2200      	movs	r2, #0
 80040bc:	611a      	str	r2, [r3, #16]
  hspi2.Init.CLKPhase = SPI_PHASE_2EDGE;
 80040be:	4b13      	ldr	r3, [pc, #76]	; (800410c <MX_SPI2_Init+0x74>)
 80040c0:	2201      	movs	r2, #1
 80040c2:	615a      	str	r2, [r3, #20]
  hspi2.Init.NSS = SPI_NSS_SOFT;
 80040c4:	4b11      	ldr	r3, [pc, #68]	; (800410c <MX_SPI2_Init+0x74>)
 80040c6:	f44f 7200 	mov.w	r2, #512	; 0x200
 80040ca:	619a      	str	r2, [r3, #24]
  hspi2.Init.BaudRatePrescaler = SPI_BAUDRATEPRESCALER_32;
 80040cc:	4b0f      	ldr	r3, [pc, #60]	; (800410c <MX_SPI2_Init+0x74>)
 80040ce:	2220      	movs	r2, #32
 80040d0:	61da      	str	r2, [r3, #28]
  hspi2.Init.FirstBit = SPI_FIRSTBIT_MSB;
 80040d2:	4b0e      	ldr	r3, [pc, #56]	; (800410c <MX_SPI2_Init+0x74>)
 80040d4:	2200      	movs	r2, #0
 80040d6:	621a      	str	r2, [r3, #32]
  hspi2.Init.TIMode = SPI_TIMODE_DISABLE;
 80040d8:	4b0c      	ldr	r3, [pc, #48]	; (800410c <MX_SPI2_Init+0x74>)
 80040da:	2200      	movs	r2, #0
 80040dc:	625a      	str	r2, [r3, #36]	; 0x24
  hspi2.Init.CRCCalculation = SPI_CRCCALCULATION_DISABLE;
 80040de:	4b0b      	ldr	r3, [pc, #44]	; (800410c <MX_SPI2_Init+0x74>)
 80040e0:	2200      	movs	r2, #0
 80040e2:	629a      	str	r2, [r3, #40]	; 0x28
  hspi2.Init.CRCPolynomial = 7;
 80040e4:	4b09      	ldr	r3, [pc, #36]	; (800410c <MX_SPI2_Init+0x74>)
 80040e6:	2207      	movs	r2, #7
 80040e8:	62da      	str	r2, [r3, #44]	; 0x2c
  hspi2.Init.CRCLength = SPI_CRC_LENGTH_DATASIZE;
 80040ea:	4b08      	ldr	r3, [pc, #32]	; (800410c <MX_SPI2_Init+0x74>)
 80040ec:	2200      	movs	r2, #0
 80040ee:	631a      	str	r2, [r3, #48]	; 0x30
  hspi2.Init.NSSPMode = SPI_NSS_PULSE_DISABLE;
 80040f0:	4b06      	ldr	r3, [pc, #24]	; (800410c <MX_SPI2_Init+0x74>)
 80040f2:	2200      	movs	r2, #0
 80040f4:	635a      	str	r2, [r3, #52]	; 0x34
  if (HAL_SPI_Init(&hspi2) != HAL_OK)
 80040f6:	4805      	ldr	r0, [pc, #20]	; (800410c <MX_SPI2_Init+0x74>)
 80040f8:	f002 fdb0 	bl	8006c5c <HAL_SPI_Init>
 80040fc:	4603      	mov	r3, r0
 80040fe:	2b00      	cmp	r3, #0
 8004100:	d001      	beq.n	8004106 <MX_SPI2_Init+0x6e>
  {
    Error_Handler();
 8004102:	f7ff fcdd 	bl	8003ac0 <Error_Handler>
  }
  /* USER CODE BEGIN SPI2_Init 2 */

  /* USER CODE END SPI2_Init 2 */

}
 8004106:	bf00      	nop
 8004108:	bd80      	pop	{r7, pc}
 800410a:	bf00      	nop
 800410c:	20000208 	.word	0x20000208
 8004110:	40003800 	.word	0x40003800

08004114 <HAL_SPI_MspInit>:

void HAL_SPI_MspInit(SPI_HandleTypeDef* spiHandle)
{
 8004114:	b580      	push	{r7, lr}
 8004116:	b08a      	sub	sp, #40	; 0x28
 8004118:	af00      	add	r7, sp, #0
 800411a:	6078      	str	r0, [r7, #4]

  GPIO_InitTypeDef GPIO_InitStruct = {0};
 800411c:	f107 0314 	add.w	r3, r7, #20
 8004120:	2200      	movs	r2, #0
 8004122:	601a      	str	r2, [r3, #0]
 8004124:	605a      	str	r2, [r3, #4]
 8004126:	609a      	str	r2, [r3, #8]
 8004128:	60da      	str	r2, [r3, #12]
 800412a:	611a      	str	r2, [r3, #16]
  if(spiHandle->Instance==SPI2)
 800412c:	687b      	ldr	r3, [r7, #4]
 800412e:	681b      	ldr	r3, [r3, #0]
 8004130:	4a25      	ldr	r2, [pc, #148]	; (80041c8 <HAL_SPI_MspInit+0xb4>)
 8004132:	4293      	cmp	r3, r2
 8004134:	d144      	bne.n	80041c0 <HAL_SPI_MspInit+0xac>
  {
  /* USER CODE BEGIN SPI2_MspInit 0 */

  /* USER CODE END SPI2_MspInit 0 */
    /* SPI2 clock enable */
    __HAL_RCC_SPI2_CLK_ENABLE();
 8004136:	4b25      	ldr	r3, [pc, #148]	; (80041cc <HAL_SPI_MspInit+0xb8>)
 8004138:	6c1b      	ldr	r3, [r3, #64]	; 0x40
 800413a:	4a24      	ldr	r2, [pc, #144]	; (80041cc <HAL_SPI_MspInit+0xb8>)
 800413c:	f443 4380 	orr.w	r3, r3, #16384	; 0x4000
 8004140:	6413      	str	r3, [r2, #64]	; 0x40
 8004142:	4b22      	ldr	r3, [pc, #136]	; (80041cc <HAL_SPI_MspInit+0xb8>)
 8004144:	6c1b      	ldr	r3, [r3, #64]	; 0x40
 8004146:	f403 4380 	and.w	r3, r3, #16384	; 0x4000
 800414a:	613b      	str	r3, [r7, #16]
 800414c:	693b      	ldr	r3, [r7, #16]

    __HAL_RCC_GPIOC_CLK_ENABLE();
 800414e:	4b1f      	ldr	r3, [pc, #124]	; (80041cc <HAL_SPI_MspInit+0xb8>)
 8004150:	6b1b      	ldr	r3, [r3, #48]	; 0x30
 8004152:	4a1e      	ldr	r2, [pc, #120]	; (80041cc <HAL_SPI_MspInit+0xb8>)
 8004154:	f043 0304 	orr.w	r3, r3, #4
 8004158:	6313      	str	r3, [r2, #48]	; 0x30
 800415a:	4b1c      	ldr	r3, [pc, #112]	; (80041cc <HAL_SPI_MspInit+0xb8>)
 800415c:	6b1b      	ldr	r3, [r3, #48]	; 0x30
 800415e:	f003 0304 	and.w	r3, r3, #4
 8004162:	60fb      	str	r3, [r7, #12]
 8004164:	68fb      	ldr	r3, [r7, #12]
    __HAL_RCC_GPIOB_CLK_ENABLE();
 8004166:	4b19      	ldr	r3, [pc, #100]	; (80041cc <HAL_SPI_MspInit+0xb8>)
 8004168:	6b1b      	ldr	r3, [r3, #48]	; 0x30
 800416a:	4a18      	ldr	r2, [pc, #96]	; (80041cc <HAL_SPI_MspInit+0xb8>)
 800416c:	f043 0302 	orr.w	r3, r3, #2
 8004170:	6313      	str	r3, [r2, #48]	; 0x30
 8004172:	4b16      	ldr	r3, [pc, #88]	; (80041cc <HAL_SPI_MspInit+0xb8>)
 8004174:	6b1b      	ldr	r3, [r3, #48]	; 0x30
 8004176:	f003 0302 	and.w	r3, r3, #2
 800417a:	60bb      	str	r3, [r7, #8]
 800417c:	68bb      	ldr	r3, [r7, #8]
    /**SPI2 GPIO Configuration
    PC2     ------> SPI2_MISO
    PC3     ------> SPI2_MOSI
    PB10     ------> SPI2_SCK
    */
    GPIO_InitStruct.Pin = GPIO_PIN_2|GPIO_PIN_3;
 800417e:	230c      	movs	r3, #12
 8004180:	617b      	str	r3, [r7, #20]
    GPIO_InitStruct.Mode = GPIO_MODE_AF_PP;
 8004182:	2302      	movs	r3, #2
 8004184:	61bb      	str	r3, [r7, #24]
    GPIO_InitStruct.Pull = GPIO_NOPULL;
 8004186:	2300      	movs	r3, #0
 8004188:	61fb      	str	r3, [r7, #28]
    GPIO_InitStruct.Speed = GPIO_SPEED_FREQ_VERY_HIGH;
 800418a:	2303      	movs	r3, #3
 800418c:	623b      	str	r3, [r7, #32]
    GPIO_InitStruct.Alternate = GPIO_AF5_SPI2;
 800418e:	2305      	movs	r3, #5
 8004190:	627b      	str	r3, [r7, #36]	; 0x24
    HAL_GPIO_Init(GPIOC, &GPIO_InitStruct);
 8004192:	f107 0314 	add.w	r3, r7, #20
 8004196:	4619      	mov	r1, r3
 8004198:	480d      	ldr	r0, [pc, #52]	; (80041d0 <HAL_SPI_MspInit+0xbc>)
 800419a:	f001 fa3d 	bl	8005618 <HAL_GPIO_Init>

    GPIO_InitStruct.Pin = GPIO_PIN_10;
 800419e:	f44f 6380 	mov.w	r3, #1024	; 0x400
 80041a2:	617b      	str	r3, [r7, #20]
    GPIO_InitStruct.Mode = GPIO_MODE_AF_PP;
 80041a4:	2302      	movs	r3, #2
 80041a6:	61bb      	str	r3, [r7, #24]
    GPIO_InitStruct.Pull = GPIO_NOPULL;
 80041a8:	2300      	movs	r3, #0
 80041aa:	61fb      	str	r3, [r7, #28]
    GPIO_InitStruct.Speed = GPIO_SPEED_FREQ_VERY_HIGH;
 80041ac:	2303      	movs	r3, #3
 80041ae:	623b      	str	r3, [r7, #32]
    GPIO_InitStruct.Alternate = GPIO_AF5_SPI2;
 80041b0:	2305      	movs	r3, #5
 80041b2:	627b      	str	r3, [r7, #36]	; 0x24
    HAL_GPIO_Init(GPIOB, &GPIO_InitStruct);
 80041b4:	f107 0314 	add.w	r3, r7, #20
 80041b8:	4619      	mov	r1, r3
 80041ba:	4806      	ldr	r0, [pc, #24]	; (80041d4 <HAL_SPI_MspInit+0xc0>)
 80041bc:	f001 fa2c 	bl	8005618 <HAL_GPIO_Init>

  /* USER CODE BEGIN SPI2_MspInit 1 */

  /* USER CODE END SPI2_MspInit 1 */
  }
}
 80041c0:	bf00      	nop
 80041c2:	3728      	adds	r7, #40	; 0x28
 80041c4:	46bd      	mov	sp, r7
 80041c6:	bd80      	pop	{r7, pc}
 80041c8:	40003800 	.word	0x40003800
 80041cc:	40023800 	.word	0x40023800
 80041d0:	40020800 	.word	0x40020800
 80041d4:	40020400 	.word	0x40020400

080041d8 <HAL_MspInit>:
/* USER CODE END 0 */
/**
  * Initializes the Global MSP.
  */
void HAL_MspInit(void)
{
 80041d8:	b480      	push	{r7}
 80041da:	b083      	sub	sp, #12
 80041dc:	af00      	add	r7, sp, #0
  /* USER CODE BEGIN MspInit 0 */

  /* USER CODE END MspInit 0 */

  __HAL_RCC_PWR_CLK_ENABLE();
 80041de:	4b0f      	ldr	r3, [pc, #60]	; (800421c <HAL_MspInit+0x44>)
 80041e0:	6c1b      	ldr	r3, [r3, #64]	; 0x40
 80041e2:	4a0e      	ldr	r2, [pc, #56]	; (800421c <HAL_MspInit+0x44>)
 80041e4:	f043 5380 	orr.w	r3, r3, #268435456	; 0x10000000
 80041e8:	6413      	str	r3, [r2, #64]	; 0x40
 80041ea:	4b0c      	ldr	r3, [pc, #48]	; (800421c <HAL_MspInit+0x44>)
 80041ec:	6c1b      	ldr	r3, [r3, #64]	; 0x40
 80041ee:	f003 5380 	and.w	r3, r3, #268435456	; 0x10000000
 80041f2:	607b      	str	r3, [r7, #4]
 80041f4:	687b      	ldr	r3, [r7, #4]
  __HAL_RCC_SYSCFG_CLK_ENABLE();
 80041f6:	4b09      	ldr	r3, [pc, #36]	; (800421c <HAL_MspInit+0x44>)
 80041f8:	6c5b      	ldr	r3, [r3, #68]	; 0x44
 80041fa:	4a08      	ldr	r2, [pc, #32]	; (800421c <HAL_MspInit+0x44>)
 80041fc:	f443 4380 	orr.w	r3, r3, #16384	; 0x4000
 8004200:	6453      	str	r3, [r2, #68]	; 0x44
 8004202:	4b06      	ldr	r3, [pc, #24]	; (800421c <HAL_MspInit+0x44>)
 8004204:	6c5b      	ldr	r3, [r3, #68]	; 0x44
 8004206:	f403 4380 	and.w	r3, r3, #16384	; 0x4000
 800420a:	603b      	str	r3, [r7, #0]
 800420c:	683b      	ldr	r3, [r7, #0]
  /* System interrupt init*/

  /* USER CODE BEGIN MspInit 1 */

  /* USER CODE END MspInit 1 */
}
 800420e:	bf00      	nop
 8004210:	370c      	adds	r7, #12
 8004212:	46bd      	mov	sp, r7
 8004214:	f85d 7b04 	ldr.w	r7, [sp], #4
 8004218:	4770      	bx	lr
 800421a:	bf00      	nop
 800421c:	40023800 	.word	0x40023800

08004220 <NMI_Handler>:
/******************************************************************************/
/**
  * @brief This function handles Non maskable interrupt.
  */
void NMI_Handler(void)
{
 8004220:	b480      	push	{r7}
 8004222:	af00      	add	r7, sp, #0
  /* USER CODE BEGIN NonMaskableInt_IRQn 0 */

  /* USER CODE END NonMaskableInt_IRQn 0 */
  /* USER CODE BEGIN NonMaskableInt_IRQn 1 */
   while (1)
 8004224:	e7fe      	b.n	8004224 <NMI_Handler+0x4>

08004226 <HardFault_Handler>:

/**
  * @brief This function handles Hard fault interrupt.
  */
void HardFault_Handler(void)
{
 8004226:	b480      	push	{r7}
 8004228:	af00      	add	r7, sp, #0
  /* USER CODE BEGIN HardFault_IRQn 0 */

  /* USER CODE END HardFault_IRQn 0 */
  while (1)
 800422a:	e7fe      	b.n	800422a <HardFault_Handler+0x4>

0800422c <MemManage_Handler>:

/**
  * @brief This function handles Memory management fault.
  */
void MemManage_Handler(void)
{
 800422c:	b480      	push	{r7}
 800422e:	af00      	add	r7, sp, #0
  /* USER CODE BEGIN MemoryManagement_IRQn 0 */

  /* USER CODE END MemoryManagement_IRQn 0 */
  while (1)
 8004230:	e7fe      	b.n	8004230 <MemManage_Handler+0x4>

08004232 <BusFault_Handler>:

/**
  * @brief This function handles Pre-fetch fault, memory access fault.
  */
void BusFault_Handler(void)
{
 8004232:	b480      	push	{r7}
 8004234:	af00      	add	r7, sp, #0
  /* USER CODE BEGIN BusFault_IRQn 0 */

  /* USER CODE END BusFault_IRQn 0 */
  while (1)
 8004236:	e7fe      	b.n	8004236 <BusFault_Handler+0x4>

08004238 <UsageFault_Handler>:

/**
  * @brief This function handles Undefined instruction or illegal state.
  */
void UsageFault_Handler(void)
{
 8004238:	b480      	push	{r7}
 800423a:	af00      	add	r7, sp, #0
  /* USER CODE BEGIN UsageFault_IRQn 0 */

  /* USER CODE END UsageFault_IRQn 0 */
  while (1)
 800423c:	e7fe      	b.n	800423c <UsageFault_Handler+0x4>

0800423e <SVC_Handler>:

/**
  * @brief This function handles System service call via SWI instruction.
  */
void SVC_Handler(void)
{
 800423e:	b480      	push	{r7}
 8004240:	af00      	add	r7, sp, #0

  /* USER CODE END SVCall_IRQn 0 */
  /* USER CODE BEGIN SVCall_IRQn 1 */

  /* USER CODE END SVCall_IRQn 1 */
}
 8004242:	bf00      	nop
 8004244:	46bd      	mov	sp, r7
 8004246:	f85d 7b04 	ldr.w	r7, [sp], #4
 800424a:	4770      	bx	lr

0800424c <DebugMon_Handler>:

/**
  * @brief This function handles Debug monitor.
  */
void DebugMon_Handler(void)
{
 800424c:	b480      	push	{r7}
 800424e:	af00      	add	r7, sp, #0

  /* USER CODE END DebugMonitor_IRQn 0 */
  /* USER CODE BEGIN DebugMonitor_IRQn 1 */

  /* USER CODE END DebugMonitor_IRQn 1 */
}
 8004250:	bf00      	nop
 8004252:	46bd      	mov	sp, r7
 8004254:	f85d 7b04 	ldr.w	r7, [sp], #4
 8004258:	4770      	bx	lr

0800425a <PendSV_Handler>:

/**
  * @brief This function handles Pendable request for system service.
  */
void PendSV_Handler(void)
{
 800425a:	b480      	push	{r7}
 800425c:	af00      	add	r7, sp, #0

  /* USER CODE END PendSV_IRQn 0 */
  /* USER CODE BEGIN PendSV_IRQn 1 */

  /* USER CODE END PendSV_IRQn 1 */
}
 800425e:	bf00      	nop
 8004260:	46bd      	mov	sp, r7
 8004262:	f85d 7b04 	ldr.w	r7, [sp], #4
 8004266:	4770      	bx	lr

08004268 <SysTick_Handler>:

/**
  * @brief This function handles System tick timer.
  */
void SysTick_Handler(void)
{
 8004268:	b580      	push	{r7, lr}
 800426a:	af00      	add	r7, sp, #0
  /* USER CODE BEGIN SysTick_IRQn 0 */

  /* USER CODE END SysTick_IRQn 0 */
  HAL_IncTick();
 800426c:	f000 fca6 	bl	8004bbc <HAL_IncTick>
  /* USER CODE BEGIN SysTick_IRQn 1 */

  /* USER CODE END SysTick_IRQn 1 */
}
 8004270:	bf00      	nop
 8004272:	bd80      	pop	{r7, pc}

08004274 <USART3_IRQHandler>:

/**
  * @brief This function handles USART3 global interrupt.
  */
void USART3_IRQHandler(void)
{
 8004274:	b580      	push	{r7, lr}
 8004276:	af00      	add	r7, sp, #0
  /* USER CODE BEGIN USART3_IRQn 0 */

  /* USER CODE END USART3_IRQn 0 */
  HAL_UART_IRQHandler(&huart3);
 8004278:	4802      	ldr	r0, [pc, #8]	; (8004284 <USART3_IRQHandler+0x10>)
 800427a:	f004 f8af 	bl	80083dc <HAL_UART_IRQHandler>
  /* USER CODE BEGIN USART3_IRQn 1 */

  /* USER CODE END USART3_IRQn 1 */
}
 800427e:	bf00      	nop
 8004280:	bd80      	pop	{r7, pc}
 8004282:	bf00      	nop
 8004284:	20000368 	.word	0x20000368

08004288 <EXTI15_10_IRQHandler>:

/**
  * @brief This function handles EXTI line[15:10] interrupts.
  */
void EXTI15_10_IRQHandler(void)
{
 8004288:	b580      	push	{r7, lr}
 800428a:	af00      	add	r7, sp, #0
  /* USER CODE BEGIN EXTI15_10_IRQn 0 */

  /* USER CODE END EXTI15_10_IRQn 0 */
  HAL_GPIO_EXTI_IRQHandler(USER_Btn_Pin);
 800428c:	f44f 5000 	mov.w	r0, #8192	; 0x2000
 8004290:	f001 fba2 	bl	80059d8 <HAL_GPIO_EXTI_IRQHandler>
  /* USER CODE BEGIN EXTI15_10_IRQn 1 */

  /* USER CODE END EXTI15_10_IRQn 1 */
}
 8004294:	bf00      	nop
 8004296:	bd80      	pop	{r7, pc}

08004298 <TIM5_IRQHandler>:

/**
  * @brief This function handles TIM5 global interrupt.
  */
void TIM5_IRQHandler(void)
{
 8004298:	b580      	push	{r7, lr}
 800429a:	af00      	add	r7, sp, #0
  /* USER CODE BEGIN TIM5_IRQn 0 */

  /* USER CODE END TIM5_IRQn 0 */
  HAL_TIM_IRQHandler(&htim5);
 800429c:	4802      	ldr	r0, [pc, #8]	; (80042a8 <TIM5_IRQHandler+0x10>)
 800429e:	f003 fa2e 	bl	80076fe <HAL_TIM_IRQHandler>
  /* USER CODE BEGIN TIM5_IRQn 1 */

  /* USER CODE END TIM5_IRQn 1 */
}
 80042a2:	bf00      	nop
 80042a4:	bd80      	pop	{r7, pc}
 80042a6:	bf00      	nop
 80042a8:	20000274 	.word	0x20000274

080042ac <_getpid>:
void initialise_monitor_handles()
{
}

int _getpid(void)
{
 80042ac:	b480      	push	{r7}
 80042ae:	af00      	add	r7, sp, #0
  return 1;
 80042b0:	2301      	movs	r3, #1
}
 80042b2:	4618      	mov	r0, r3
 80042b4:	46bd      	mov	sp, r7
 80042b6:	f85d 7b04 	ldr.w	r7, [sp], #4
 80042ba:	4770      	bx	lr

080042bc <_kill>:

int _kill(int pid, int sig)
{
 80042bc:	b580      	push	{r7, lr}
 80042be:	b082      	sub	sp, #8
 80042c0:	af00      	add	r7, sp, #0
 80042c2:	6078      	str	r0, [r7, #4]
 80042c4:	6039      	str	r1, [r7, #0]
  (void)pid;
  (void)sig;
  errno = EINVAL;
 80042c6:	f005 f9e9 	bl	800969c <__errno>
 80042ca:	4603      	mov	r3, r0
 80042cc:	2216      	movs	r2, #22
 80042ce:	601a      	str	r2, [r3, #0]
  return -1;
 80042d0:	f04f 33ff 	mov.w	r3, #4294967295	; 0xffffffff
}
 80042d4:	4618      	mov	r0, r3
 80042d6:	3708      	adds	r7, #8
 80042d8:	46bd      	mov	sp, r7
 80042da:	bd80      	pop	{r7, pc}

080042dc <_exit>:

void _exit (int status)
{
 80042dc:	b580      	push	{r7, lr}
 80042de:	b082      	sub	sp, #8
 80042e0:	af00      	add	r7, sp, #0
 80042e2:	6078      	str	r0, [r7, #4]
  _kill(status, -1);
 80042e4:	f04f 31ff 	mov.w	r1, #4294967295	; 0xffffffff
 80042e8:	6878      	ldr	r0, [r7, #4]
 80042ea:	f7ff ffe7 	bl	80042bc <_kill>
  while (1) {}    /* Make sure we hang here */
 80042ee:	e7fe      	b.n	80042ee <_exit+0x12>

080042f0 <_sbrk>:
 *
 * @param incr Memory size
 * @return Pointer to allocated memory
 */
void *_sbrk(ptrdiff_t incr)
{
 80042f0:	b580      	push	{r7, lr}
 80042f2:	b086      	sub	sp, #24
 80042f4:	af00      	add	r7, sp, #0
 80042f6:	6078      	str	r0, [r7, #4]
  extern uint8_t _end; /* Symbol defined in the linker script */
  extern uint8_t _estack; /* Symbol defined in the linker script */
  extern uint32_t _Min_Stack_Size; /* Symbol defined in the linker script */
  const uint32_t stack_limit = (uint32_t)&_estack - (uint32_t)&_Min_Stack_Size;
 80042f8:	4a14      	ldr	r2, [pc, #80]	; (800434c <_sbrk+0x5c>)
 80042fa:	4b15      	ldr	r3, [pc, #84]	; (8004350 <_sbrk+0x60>)
 80042fc:	1ad3      	subs	r3, r2, r3
 80042fe:	617b      	str	r3, [r7, #20]
  const uint8_t *max_heap = (uint8_t *)stack_limit;
 8004300:	697b      	ldr	r3, [r7, #20]
 8004302:	613b      	str	r3, [r7, #16]
  uint8_t *prev_heap_end;

  /* Initialize heap end at first call */
  if (NULL == __sbrk_heap_end)
 8004304:	4b13      	ldr	r3, [pc, #76]	; (8004354 <_sbrk+0x64>)
 8004306:	681b      	ldr	r3, [r3, #0]
 8004308:	2b00      	cmp	r3, #0
 800430a:	d102      	bne.n	8004312 <_sbrk+0x22>
  {
    __sbrk_heap_end = &_end;
 800430c:	4b11      	ldr	r3, [pc, #68]	; (8004354 <_sbrk+0x64>)
 800430e:	4a12      	ldr	r2, [pc, #72]	; (8004358 <_sbrk+0x68>)
 8004310:	601a      	str	r2, [r3, #0]
  }

  /* Protect heap from growing into the reserved MSP stack */
  if (__sbrk_heap_end + incr > max_heap)
 8004312:	4b10      	ldr	r3, [pc, #64]	; (8004354 <_sbrk+0x64>)
 8004314:	681a      	ldr	r2, [r3, #0]
 8004316:	687b      	ldr	r3, [r7, #4]
 8004318:	4413      	add	r3, r2
 800431a:	693a      	ldr	r2, [r7, #16]
 800431c:	429a      	cmp	r2, r3
 800431e:	d207      	bcs.n	8004330 <_sbrk+0x40>
  {
    errno = ENOMEM;
 8004320:	f005 f9bc 	bl	800969c <__errno>
 8004324:	4603      	mov	r3, r0
 8004326:	220c      	movs	r2, #12
 8004328:	601a      	str	r2, [r3, #0]
    return (void *)-1;
 800432a:	f04f 33ff 	mov.w	r3, #4294967295	; 0xffffffff
 800432e:	e009      	b.n	8004344 <_sbrk+0x54>
  }

  prev_heap_end = __sbrk_heap_end;
 8004330:	4b08      	ldr	r3, [pc, #32]	; (8004354 <_sbrk+0x64>)
 8004332:	681b      	ldr	r3, [r3, #0]
 8004334:	60fb      	str	r3, [r7, #12]
  __sbrk_heap_end += incr;
 8004336:	4b07      	ldr	r3, [pc, #28]	; (8004354 <_sbrk+0x64>)
 8004338:	681a      	ldr	r2, [r3, #0]
 800433a:	687b      	ldr	r3, [r7, #4]
 800433c:	4413      	add	r3, r2
 800433e:	4a05      	ldr	r2, [pc, #20]	; (8004354 <_sbrk+0x64>)
 8004340:	6013      	str	r3, [r2, #0]

  return (void *)prev_heap_end;
 8004342:	68fb      	ldr	r3, [r7, #12]
}
 8004344:	4618      	mov	r0, r3
 8004346:	3718      	adds	r7, #24
 8004348:	46bd      	mov	sp, r7
 800434a:	bd80      	pop	{r7, pc}
 800434c:	20050000 	.word	0x20050000
 8004350:	00000400 	.word	0x00000400
 8004354:	2000026c 	.word	0x2000026c
 8004358:	20000570 	.word	0x20000570

0800435c <_Z11system_initv>:
};

static systemMode theSystemMode = FAIL_SILENT;

void system_init(void)
{
 800435c:	b480      	push	{r7}
 800435e:	af00      	add	r7, sp, #0
	if(__HAL_RCC_GET_FLAG(RCC_FLAG_IWDGRST))
 8004360:	4b0e      	ldr	r3, [pc, #56]	; (800439c <_Z11system_initv+0x40>)
 8004362:	6f5b      	ldr	r3, [r3, #116]	; 0x74
 8004364:	f003 5300 	and.w	r3, r3, #536870912	; 0x20000000
 8004368:	2b00      	cmp	r3, #0
 800436a:	bf14      	ite	ne
 800436c:	2301      	movne	r3, #1
 800436e:	2300      	moveq	r3, #0
 8004370:	b2db      	uxtb	r3, r3
 8004372:	2b00      	cmp	r3, #0
 8004374:	d009      	beq.n	800438a <_Z11system_initv+0x2e>
	{
		__HAL_RCC_CLEAR_RESET_FLAGS();
 8004376:	4b09      	ldr	r3, [pc, #36]	; (800439c <_Z11system_initv+0x40>)
 8004378:	6f5b      	ldr	r3, [r3, #116]	; 0x74
 800437a:	4a08      	ldr	r2, [pc, #32]	; (800439c <_Z11system_initv+0x40>)
 800437c:	f043 7380 	orr.w	r3, r3, #16777216	; 0x1000000
 8004380:	6753      	str	r3, [r2, #116]	; 0x74

		theSystemMode = FAIL_SILENT;
 8004382:	4b07      	ldr	r3, [pc, #28]	; (80043a0 <_Z11system_initv+0x44>)
 8004384:	2200      	movs	r2, #0
 8004386:	601a      	str	r2, [r3, #0]
	}
	else
	{
		theSystemMode = NORMAL;
	}
}
 8004388:	e002      	b.n	8004390 <_Z11system_initv+0x34>
		theSystemMode = NORMAL;
 800438a:	4b05      	ldr	r3, [pc, #20]	; (80043a0 <_Z11system_initv+0x44>)
 800438c:	2201      	movs	r2, #1
 800438e:	601a      	str	r2, [r3, #0]
}
 8004390:	bf00      	nop
 8004392:	46bd      	mov	sp, r7
 8004394:	f85d 7b04 	ldr.w	r7, [sp], #4
 8004398:	4770      	bx	lr
 800439a:	bf00      	nop
 800439c:	40023800 	.word	0x40023800
 80043a0:	20000270 	.word	0x20000270

080043a4 <_Z22system_run_active_modev>:

void system_run_active_mode(void)
{
 80043a4:	b580      	push	{r7, lr}
 80043a6:	af00      	add	r7, sp, #0
	switch(theSystemMode)
 80043a8:	4b05      	ldr	r3, [pc, #20]	; (80043c0 <_Z22system_run_active_modev+0x1c>)
 80043aa:	681b      	ldr	r3, [r3, #0]
 80043ac:	2b01      	cmp	r3, #1
 80043ae:	d102      	bne.n	80043b6 <_Z22system_run_active_modev+0x12>
	{
		case NORMAL:
			normal_mode_run();
 80043b0:	f7ff fbf2 	bl	8003b98 <_Z15normal_mode_runv>
			break;
 80043b4:	e002      	b.n	80043bc <_Z22system_run_active_modev+0x18>

		default:
		case FAIL_SILENT:
			fail_silent_mode_run();
 80043b6:	f7ff fb89 	bl	8003acc <_Z20fail_silent_mode_runv>
			break;
 80043ba:	bf00      	nop
	}
}
 80043bc:	bf00      	nop
 80043be:	bd80      	pop	{r7, pc}
 80043c0:	20000270 	.word	0x20000270

080043c4 <SystemInit>:
  *         SystemFrequency variable.
  * @param  None
  * @retval None
  */
void SystemInit(void)
{
 80043c4:	b480      	push	{r7}
 80043c6:	af00      	add	r7, sp, #0
  /* FPU settings ------------------------------------------------------------*/
#if (__FPU_PRESENT == 1) && (__FPU_USED == 1)
  SCB->CPACR |= ((3UL << 10*2)|(3UL << 11*2));  /* set CP10 and CP11 Full Access */
 80043c8:	4b06      	ldr	r3, [pc, #24]	; (80043e4 <SystemInit+0x20>)
 80043ca:	f8d3 3088 	ldr.w	r3, [r3, #136]	; 0x88
 80043ce:	4a05      	ldr	r2, [pc, #20]	; (80043e4 <SystemInit+0x20>)
 80043d0:	f443 0370 	orr.w	r3, r3, #15728640	; 0xf00000
 80043d4:	f8c2 3088 	str.w	r3, [r2, #136]	; 0x88

  /* Configure the Vector Table location -------------------------------------*/
#if defined(USER_VECT_TAB_ADDRESS)
  SCB->VTOR = VECT_TAB_BASE_ADDRESS | VECT_TAB_OFFSET; /* Vector Table Relocation in Internal SRAM */
#endif /* USER_VECT_TAB_ADDRESS */
}
 80043d8:	bf00      	nop
 80043da:	46bd      	mov	sp, r7
 80043dc:	f85d 7b04 	ldr.w	r7, [sp], #4
 80043e0:	4770      	bx	lr
 80043e2:	bf00      	nop
 80043e4:	e000ed00 	.word	0xe000ed00

080043e8 <_Z27taskCNIsendData_constructorP17taskCNIsendData_tmmmmm>:

#include "taskCNIsendData.h"
#include "CNI.h"

void taskCNIsendData_constructor(taskCNIsendData_t *me, uint32_t delayTicks, uint32_t periodTicks, uint32_t wcetMicroSeconds, uint32_t bcetMicroSeconds, uint32_t handleMsg)
{
 80043e8:	b580      	push	{r7, lr}
 80043ea:	b086      	sub	sp, #24
 80043ec:	af02      	add	r7, sp, #8
 80043ee:	60f8      	str	r0, [r7, #12]
 80043f0:	60b9      	str	r1, [r7, #8]
 80043f2:	607a      	str	r2, [r7, #4]
 80043f4:	603b      	str	r3, [r7, #0]
	timeTriggeredTask_constructor(&me->super, (taskHandler_t)&taskCNIsendData_update, delayTicks, periodTicks, wcetMicroSeconds, bcetMicroSeconds);
 80043f6:	68f8      	ldr	r0, [r7, #12]
 80043f8:	69bb      	ldr	r3, [r7, #24]
 80043fa:	9301      	str	r3, [sp, #4]
 80043fc:	683b      	ldr	r3, [r7, #0]
 80043fe:	9300      	str	r3, [sp, #0]
 8004400:	687b      	ldr	r3, [r7, #4]
 8004402:	68ba      	ldr	r2, [r7, #8]
 8004404:	4904      	ldr	r1, [pc, #16]	; (8004418 <_Z27taskCNIsendData_constructorP17taskCNIsendData_tmmmmm+0x30>)
 8004406:	f000 fabd 	bl	8004984 <_Z29timeTriggeredTask_constructorP19timeTriggeredTask_tPFvPvEmmmm>

	me->mHandleMsg_ = handleMsg;
 800440a:	68fb      	ldr	r3, [r7, #12]
 800440c:	69fa      	ldr	r2, [r7, #28]
 800440e:	615a      	str	r2, [r3, #20]
}
 8004410:	bf00      	nop
 8004412:	3710      	adds	r7, #16
 8004414:	46bd      	mov	sp, r7
 8004416:	bd80      	pop	{r7, pc}
 8004418:	08004431 	.word	0x08004431

0800441c <_Z21taskCNIsendData_startP17taskCNIsendData_t>:
	//TODO: hay que hacer que si uno llama a la tarea nuevamente, la tarea simplemente no haga nada.
	timeTriggeredTask_destructor(&me->super);
}

void taskCNIsendData_start(taskCNIsendData_t *me)
{
 800441c:	b480      	push	{r7}
 800441e:	b083      	sub	sp, #12
 8004420:	af00      	add	r7, sp, #0
 8004422:	6078      	str	r0, [r7, #4]
	//TODO: acá podría uno decirle a la CNI que se va a encargar de enviar el mensaje
	// asociado al handleMsg.
}
 8004424:	bf00      	nop
 8004426:	370c      	adds	r7, #12
 8004428:	46bd      	mov	sp, r7
 800442a:	f85d 7b04 	ldr.w	r7, [sp], #4
 800442e:	4770      	bx	lr

08004430 <_Z22taskCNIsendData_updateP17taskCNIsendData_t>:

void taskCNIsendData_update(taskCNIsendData_t *me)
{
 8004430:	b580      	push	{r7, lr}
 8004432:	b082      	sub	sp, #8
 8004434:	af00      	add	r7, sp, #0
 8004436:	6078      	str	r0, [r7, #4]
	CNI_send_msg(me->mHandleMsg_);
 8004438:	687b      	ldr	r3, [r7, #4]
 800443a:	695b      	ldr	r3, [r3, #20]
 800443c:	4618      	mov	r0, r3
 800443e:	f7fc f8af 	bl	80005a0 <_Z12CNI_send_msgm>
}
 8004442:	bf00      	nop
 8004444:	3708      	adds	r7, #8
 8004446:	46bd      	mov	sp, r7
 8004448:	bd80      	pop	{r7, pc}
	...

0800444c <_Z25taskHeartbeat_constructorP15taskHeartbeat_tmmmmPN5STM324gpioE>:
 */

#include "taskHeartbeat.h"

void taskHeartbeat_constructor(taskHeartbeat_t *me , uint32_t delayTicks, uint32_t periodTicks, uint32_t wcetMicroSeconds, uint32_t bcetMicroSeconds, STM32::gpio *led)
{
 800444c:	b580      	push	{r7, lr}
 800444e:	b086      	sub	sp, #24
 8004450:	af02      	add	r7, sp, #8
 8004452:	60f8      	str	r0, [r7, #12]
 8004454:	60b9      	str	r1, [r7, #8]
 8004456:	607a      	str	r2, [r7, #4]
 8004458:	603b      	str	r3, [r7, #0]
	timeTriggeredTask_constructor(&me->super, (taskHandler_t)&taskHeartbeat_update, delayTicks, periodTicks, wcetMicroSeconds, bcetMicroSeconds);
 800445a:	68f8      	ldr	r0, [r7, #12]
 800445c:	69bb      	ldr	r3, [r7, #24]
 800445e:	9301      	str	r3, [sp, #4]
 8004460:	683b      	ldr	r3, [r7, #0]
 8004462:	9300      	str	r3, [sp, #0]
 8004464:	687b      	ldr	r3, [r7, #4]
 8004466:	68ba      	ldr	r2, [r7, #8]
 8004468:	4904      	ldr	r1, [pc, #16]	; (800447c <_Z25taskHeartbeat_constructorP15taskHeartbeat_tmmmmPN5STM324gpioE+0x30>)
 800446a:	f000 fa8b 	bl	8004984 <_Z29timeTriggeredTask_constructorP19timeTriggeredTask_tPFvPvEmmmm>
	me->mLED_ = led;
 800446e:	68fb      	ldr	r3, [r7, #12]
 8004470:	69fa      	ldr	r2, [r7, #28]
 8004472:	615a      	str	r2, [r3, #20]
}
 8004474:	bf00      	nop
 8004476:	3710      	adds	r7, #16
 8004478:	46bd      	mov	sp, r7
 800447a:	bd80      	pop	{r7, pc}
 800447c:	0800449d 	.word	0x0800449d

08004480 <_Z19taskHeartbeat_startP15taskHeartbeat_t>:
	me->mLED_->write(GPIO_ST::LOW);
	timeTriggeredTask_destructor(&me->super);
}

void taskHeartbeat_start(taskHeartbeat_t *me)
{
 8004480:	b580      	push	{r7, lr}
 8004482:	b082      	sub	sp, #8
 8004484:	af00      	add	r7, sp, #0
 8004486:	6078      	str	r0, [r7, #4]
	me->mLED_->write(GPIO_ST::HIGH);
 8004488:	687b      	ldr	r3, [r7, #4]
 800448a:	695b      	ldr	r3, [r3, #20]
 800448c:	2101      	movs	r1, #1
 800448e:	4618      	mov	r0, r3
 8004490:	f7fc fb82 	bl	8000b98 <_ZN5STM324gpio5writeE7GPIO_ST>
}
 8004494:	bf00      	nop
 8004496:	3708      	adds	r7, #8
 8004498:	46bd      	mov	sp, r7
 800449a:	bd80      	pop	{r7, pc}

0800449c <_Z20taskHeartbeat_updateP15taskHeartbeat_t>:

void taskHeartbeat_update(taskHeartbeat_t *me)
{
 800449c:	b580      	push	{r7, lr}
 800449e:	b082      	sub	sp, #8
 80044a0:	af00      	add	r7, sp, #0
 80044a2:	6078      	str	r0, [r7, #4]
	me->mLED_->toggle();
 80044a4:	687b      	ldr	r3, [r7, #4]
 80044a6:	695b      	ldr	r3, [r3, #20]
 80044a8:	4618      	mov	r0, r3
 80044aa:	f7fc fb65 	bl	8000b78 <_ZN5STM324gpio6toggleEv>
}
 80044ae:	bf00      	nop
 80044b0:	3708      	adds	r7, #8
 80044b2:	46bd      	mov	sp, r7
 80044b4:	bd80      	pop	{r7, pc}
	...

080044b8 <_Z26taskIMUgetData_constructorP16taskIMUgetData_tmmmmPN8ICM426888icm42688Em>:
#define LEN_IMU_CNI_DATA 24

static void make_imu_data_for_cni(IMUData imuData, uint8_t *dataForCni);

void taskIMUgetData_constructor(taskIMUgetData_t *me, uint32_t delayTicks, uint32_t periodTicks, uint32_t wcetMicroSeconds, uint32_t bcetMicroSeconds, ICM42688::icm42688 *imu, uint32_t handleMsg)
{
 80044b8:	b580      	push	{r7, lr}
 80044ba:	b086      	sub	sp, #24
 80044bc:	af02      	add	r7, sp, #8
 80044be:	60f8      	str	r0, [r7, #12]
 80044c0:	60b9      	str	r1, [r7, #8]
 80044c2:	607a      	str	r2, [r7, #4]
 80044c4:	603b      	str	r3, [r7, #0]
	timeTriggeredTask_constructor(&me->super, (taskHandler_t)&taskIMUgetData_update, delayTicks, periodTicks, wcetMicroSeconds, bcetMicroSeconds);
 80044c6:	68f8      	ldr	r0, [r7, #12]
 80044c8:	69bb      	ldr	r3, [r7, #24]
 80044ca:	9301      	str	r3, [sp, #4]
 80044cc:	683b      	ldr	r3, [r7, #0]
 80044ce:	9300      	str	r3, [sp, #0]
 80044d0:	687b      	ldr	r3, [r7, #4]
 80044d2:	68ba      	ldr	r2, [r7, #8]
 80044d4:	4906      	ldr	r1, [pc, #24]	; (80044f0 <_Z26taskIMUgetData_constructorP16taskIMUgetData_tmmmmPN8ICM426888icm42688Em+0x38>)
 80044d6:	f000 fa55 	bl	8004984 <_Z29timeTriggeredTask_constructorP19timeTriggeredTask_tPFvPvEmmmm>

	me->mIMU_ = imu;
 80044da:	68fb      	ldr	r3, [r7, #12]
 80044dc:	69fa      	ldr	r2, [r7, #28]
 80044de:	615a      	str	r2, [r3, #20]
	me->mHandleMsg_ = handleMsg;
 80044e0:	68fb      	ldr	r3, [r7, #12]
 80044e2:	6a3a      	ldr	r2, [r7, #32]
 80044e4:	635a      	str	r2, [r3, #52]	; 0x34
}
 80044e6:	bf00      	nop
 80044e8:	3710      	adds	r7, #16
 80044ea:	46bd      	mov	sp, r7
 80044ec:	bd80      	pop	{r7, pc}
 80044ee:	bf00      	nop
 80044f0:	08004509 	.word	0x08004509

080044f4 <_Z20taskIMUgetData_startP16taskIMUgetData_t>:

	timeTriggeredTask_destructor(&me->super);
}

void taskIMUgetData_start(taskIMUgetData_t *me)
{
 80044f4:	b480      	push	{r7}
 80044f6:	b083      	sub	sp, #12
 80044f8:	af00      	add	r7, sp, #0
 80044fa:	6078      	str	r0, [r7, #4]
	// Por ahora no hace nada
}
 80044fc:	bf00      	nop
 80044fe:	370c      	adds	r7, #12
 8004500:	46bd      	mov	sp, r7
 8004502:	f85d 7b04 	ldr.w	r7, [sp], #4
 8004506:	4770      	bx	lr

08004508 <_Z21taskIMUgetData_updateP16taskIMUgetData_t>:

void taskIMUgetData_update(taskIMUgetData_t *me)
{
 8004508:	b590      	push	{r4, r7, lr}
 800450a:	b08d      	sub	sp, #52	; 0x34
 800450c:	af04      	add	r7, sp, #16
 800450e:	6078      	str	r0, [r7, #4]
	uint8_t dataForCni[LEN_IMU_CNI_DATA];

	me->mIMU_->save_data();
 8004510:	687b      	ldr	r3, [r7, #4]
 8004512:	695a      	ldr	r2, [r3, #20]
 8004514:	687b      	ldr	r3, [r7, #4]
 8004516:	695b      	ldr	r3, [r3, #20]
 8004518:	681b      	ldr	r3, [r3, #0]
 800451a:	681b      	ldr	r3, [r3, #0]
 800451c:	4610      	mov	r0, r2
 800451e:	4798      	blx	r3
	me->mIMU_->read_data(&(me->mIMUdata_));
 8004520:	687b      	ldr	r3, [r7, #4]
 8004522:	6958      	ldr	r0, [r3, #20]
 8004524:	687b      	ldr	r3, [r7, #4]
 8004526:	695b      	ldr	r3, [r3, #20]
 8004528:	681b      	ldr	r3, [r3, #0]
 800452a:	3310      	adds	r3, #16
 800452c:	681b      	ldr	r3, [r3, #0]
 800452e:	687a      	ldr	r2, [r7, #4]
 8004530:	3218      	adds	r2, #24
 8004532:	4611      	mov	r1, r2
 8004534:	4798      	blx	r3

	// Convertir los datos de la IMU en bytes
	make_imu_data_for_cni(me->mIMUdata_, dataForCni);
 8004536:	687b      	ldr	r3, [r7, #4]
 8004538:	f107 0208 	add.w	r2, r7, #8
 800453c:	9203      	str	r2, [sp, #12]
 800453e:	466c      	mov	r4, sp
 8004540:	f103 0228 	add.w	r2, r3, #40	; 0x28
 8004544:	ca07      	ldmia	r2, {r0, r1, r2}
 8004546:	e884 0007 	stmia.w	r4, {r0, r1, r2}
 800454a:	3318      	adds	r3, #24
 800454c:	cb0f      	ldmia	r3, {r0, r1, r2, r3}
 800454e:	f000 f80c 	bl	800456a <_ZL21make_imu_data_for_cni7IMUDataPh>

	// Actualizarlos en la CNI
	CNI_update_msg_content(me->mHandleMsg_, dataForCni, LEN_IMU_CNI_DATA);
 8004552:	687b      	ldr	r3, [r7, #4]
 8004554:	6b5b      	ldr	r3, [r3, #52]	; 0x34
 8004556:	f107 0108 	add.w	r1, r7, #8
 800455a:	2218      	movs	r2, #24
 800455c:	4618      	mov	r0, r3
 800455e:	f7fc f8af 	bl	80006c0 <_Z22CNI_update_msg_contentmPhm>
}
 8004562:	bf00      	nop
 8004564:	3724      	adds	r7, #36	; 0x24
 8004566:	46bd      	mov	sp, r7
 8004568:	bd90      	pop	{r4, r7, pc}

0800456a <_ZL21make_imu_data_for_cni7IMUDataPh>:

static void make_imu_data_for_cni(IMUData imuData, uint8_t *dataForCni)
{
 800456a:	b084      	sub	sp, #16
 800456c:	b490      	push	{r4, r7}
 800456e:	af00      	add	r7, sp, #0
 8004570:	f107 0408 	add.w	r4, r7, #8
 8004574:	e884 000f 	stmia.w	r4, {r0, r1, r2, r3}
 8004578:	69ba      	ldr	r2, [r7, #24]
	memcpy(dataForCni     , &imuData.accelX, 4);
 800457a:	6a7b      	ldr	r3, [r7, #36]	; 0x24
 800457c:	601a      	str	r2, [r3, #0]
	memcpy(&dataForCni[4] , &imuData.accelY, 4);
 800457e:	6a7b      	ldr	r3, [r7, #36]	; 0x24
 8004580:	3304      	adds	r3, #4
 8004582:	69fa      	ldr	r2, [r7, #28]
 8004584:	601a      	str	r2, [r3, #0]
	memcpy(&dataForCni[8] , &imuData.accelZ, 4);
 8004586:	6a7b      	ldr	r3, [r7, #36]	; 0x24
 8004588:	3308      	adds	r3, #8
 800458a:	6a3a      	ldr	r2, [r7, #32]
 800458c:	601a      	str	r2, [r3, #0]
	memcpy(&dataForCni[12], &imuData.gyroX , 4);
 800458e:	6a7b      	ldr	r3, [r7, #36]	; 0x24
 8004590:	330c      	adds	r3, #12
 8004592:	68fa      	ldr	r2, [r7, #12]
 8004594:	601a      	str	r2, [r3, #0]
	memcpy(&dataForCni[16], &imuData.gyroY , 4);
 8004596:	6a7b      	ldr	r3, [r7, #36]	; 0x24
 8004598:	3310      	adds	r3, #16
 800459a:	693a      	ldr	r2, [r7, #16]
 800459c:	601a      	str	r2, [r3, #0]
	memcpy(&dataForCni[20], &imuData.gyroZ , 4);
 800459e:	6a7b      	ldr	r3, [r7, #36]	; 0x24
 80045a0:	3314      	adds	r3, #20
 80045a2:	697a      	ldr	r2, [r7, #20]
 80045a4:	601a      	str	r2, [r3, #0]
}
 80045a6:	bf00      	nop
 80045a8:	46bd      	mov	sp, r7
 80045aa:	bc90      	pop	{r4, r7}
 80045ac:	b004      	add	sp, #16
 80045ae:	4770      	bx	lr

080045b0 <_Z24taskWatchdog_constructorP14taskWatchdog_tmmmmP18IWDG_HandleTypeDef>:
 */

#include "taskWatchdog.h"

void taskWatchdog_constructor(taskWatchdog_t *me, uint32_t delayTicks, uint32_t periodTicks, uint32_t wcetMicroSeconds, uint32_t bcetMicroSeconds, IWDG_HandleTypeDef *hiwdg)
{
 80045b0:	b580      	push	{r7, lr}
 80045b2:	b086      	sub	sp, #24
 80045b4:	af02      	add	r7, sp, #8
 80045b6:	60f8      	str	r0, [r7, #12]
 80045b8:	60b9      	str	r1, [r7, #8]
 80045ba:	607a      	str	r2, [r7, #4]
 80045bc:	603b      	str	r3, [r7, #0]
	timeTriggeredTask_constructor(&me->super, (taskHandler_t)&taskWatchdog_update, delayTicks, periodTicks, wcetMicroSeconds, bcetMicroSeconds);
 80045be:	68f8      	ldr	r0, [r7, #12]
 80045c0:	69bb      	ldr	r3, [r7, #24]
 80045c2:	9301      	str	r3, [sp, #4]
 80045c4:	683b      	ldr	r3, [r7, #0]
 80045c6:	9300      	str	r3, [sp, #0]
 80045c8:	687b      	ldr	r3, [r7, #4]
 80045ca:	68ba      	ldr	r2, [r7, #8]
 80045cc:	490d      	ldr	r1, [pc, #52]	; (8004604 <_Z24taskWatchdog_constructorP14taskWatchdog_tmmmmP18IWDG_HandleTypeDef+0x54>)
 80045ce:	f000 f9d9 	bl	8004984 <_Z29timeTriggeredTask_constructorP19timeTriggeredTask_tPFvPvEmmmm>
	me->mHiwdg_ = hiwdg;
 80045d2:	68fb      	ldr	r3, [r7, #12]
 80045d4:	69fa      	ldr	r2, [r7, #28]
 80045d6:	615a      	str	r2, [r3, #20]

	me->mHiwdg_->Instance = IWDG;
 80045d8:	68fb      	ldr	r3, [r7, #12]
 80045da:	695b      	ldr	r3, [r3, #20]
 80045dc:	4a0a      	ldr	r2, [pc, #40]	; (8004608 <_Z24taskWatchdog_constructorP14taskWatchdog_tmmmmP18IWDG_HandleTypeDef+0x58>)
 80045de:	601a      	str	r2, [r3, #0]
	me->mHiwdg_->Init.Prescaler = IWDG_PRESCALER_4;
 80045e0:	68fb      	ldr	r3, [r7, #12]
 80045e2:	695b      	ldr	r3, [r3, #20]
 80045e4:	2200      	movs	r2, #0
 80045e6:	605a      	str	r2, [r3, #4]
	me->mHiwdg_->Init.Window = 4095;
 80045e8:	68fb      	ldr	r3, [r7, #12]
 80045ea:	695b      	ldr	r3, [r3, #20]
 80045ec:	f640 72ff 	movw	r2, #4095	; 0xfff
 80045f0:	60da      	str	r2, [r3, #12]
	me->mHiwdg_->Init.Reload = 9;
 80045f2:	68fb      	ldr	r3, [r7, #12]
 80045f4:	695b      	ldr	r3, [r3, #20]
 80045f6:	2209      	movs	r2, #9
 80045f8:	609a      	str	r2, [r3, #8]
}
 80045fa:	bf00      	nop
 80045fc:	3710      	adds	r7, #16
 80045fe:	46bd      	mov	sp, r7
 8004600:	bd80      	pop	{r7, pc}
 8004602:	bf00      	nop
 8004604:	08004627 	.word	0x08004627
 8004608:	40003000 	.word	0x40003000

0800460c <_Z18taskWatchdog_startP14taskWatchdog_t>:
{
	timeTriggeredTask_destructor(&me->super);
}

void taskWatchdog_start(taskWatchdog_t *me)
{
 800460c:	b580      	push	{r7, lr}
 800460e:	b082      	sub	sp, #8
 8004610:	af00      	add	r7, sp, #0
 8004612:	6078      	str	r0, [r7, #4]
	HAL_IWDG_Init(me->mHiwdg_);
 8004614:	687b      	ldr	r3, [r7, #4]
 8004616:	695b      	ldr	r3, [r3, #20]
 8004618:	4618      	mov	r0, r3
 800461a:	f001 f9f5 	bl	8005a08 <HAL_IWDG_Init>
}
 800461e:	bf00      	nop
 8004620:	3708      	adds	r7, #8
 8004622:	46bd      	mov	sp, r7
 8004624:	bd80      	pop	{r7, pc}

08004626 <_Z19taskWatchdog_updateP14taskWatchdog_t>:

void taskWatchdog_update(taskWatchdog_t *me)
{
 8004626:	b580      	push	{r7, lr}
 8004628:	b082      	sub	sp, #8
 800462a:	af00      	add	r7, sp, #0
 800462c:	6078      	str	r0, [r7, #4]
	HAL_IWDG_Refresh(me->mHiwdg_);
 800462e:	687b      	ldr	r3, [r7, #4]
 8004630:	695b      	ldr	r3, [r3, #20]
 8004632:	4618      	mov	r0, r3
 8004634:	f001 fa37 	bl	8005aa6 <HAL_IWDG_Refresh>
}
 8004638:	bf00      	nop
 800463a:	3708      	adds	r7, #8
 800463c:	46bd      	mov	sp, r7
 800463e:	bd80      	pop	{r7, pc}

08004640 <MX_TIM5_Init>:

TIM_HandleTypeDef htim5;

/* TIM5 init function */
void MX_TIM5_Init(void)
{
 8004640:	b580      	push	{r7, lr}
 8004642:	b088      	sub	sp, #32
 8004644:	af00      	add	r7, sp, #0

  /* USER CODE BEGIN TIM5_Init 0 */

  /* USER CODE END TIM5_Init 0 */

  TIM_ClockConfigTypeDef sClockSourceConfig = {0};
 8004646:	f107 0310 	add.w	r3, r7, #16
 800464a:	2200      	movs	r2, #0
 800464c:	601a      	str	r2, [r3, #0]
 800464e:	605a      	str	r2, [r3, #4]
 8004650:	609a      	str	r2, [r3, #8]
 8004652:	60da      	str	r2, [r3, #12]
  TIM_MasterConfigTypeDef sMasterConfig = {0};
 8004654:	1d3b      	adds	r3, r7, #4
 8004656:	2200      	movs	r2, #0
 8004658:	601a      	str	r2, [r3, #0]
 800465a:	605a      	str	r2, [r3, #4]
 800465c:	609a      	str	r2, [r3, #8]

  /* USER CODE BEGIN TIM5_Init 1 */

  /* USER CODE END TIM5_Init 1 */
  htim5.Instance = TIM5;
 800465e:	4b1d      	ldr	r3, [pc, #116]	; (80046d4 <MX_TIM5_Init+0x94>)
 8004660:	4a1d      	ldr	r2, [pc, #116]	; (80046d8 <MX_TIM5_Init+0x98>)
 8004662:	601a      	str	r2, [r3, #0]
  htim5.Init.Prescaler = 72-1;
 8004664:	4b1b      	ldr	r3, [pc, #108]	; (80046d4 <MX_TIM5_Init+0x94>)
 8004666:	2247      	movs	r2, #71	; 0x47
 8004668:	605a      	str	r2, [r3, #4]
  htim5.Init.CounterMode = TIM_COUNTERMODE_UP;
 800466a:	4b1a      	ldr	r3, [pc, #104]	; (80046d4 <MX_TIM5_Init+0x94>)
 800466c:	2200      	movs	r2, #0
 800466e:	609a      	str	r2, [r3, #8]
  htim5.Init.Period = 1000-1;
 8004670:	4b18      	ldr	r3, [pc, #96]	; (80046d4 <MX_TIM5_Init+0x94>)
 8004672:	f240 32e7 	movw	r2, #999	; 0x3e7
 8004676:	60da      	str	r2, [r3, #12]
  htim5.Init.ClockDivision = TIM_CLOCKDIVISION_DIV1;
 8004678:	4b16      	ldr	r3, [pc, #88]	; (80046d4 <MX_TIM5_Init+0x94>)
 800467a:	2200      	movs	r2, #0
 800467c:	611a      	str	r2, [r3, #16]
  htim5.Init.AutoReloadPreload = TIM_AUTORELOAD_PRELOAD_DISABLE;
 800467e:	4b15      	ldr	r3, [pc, #84]	; (80046d4 <MX_TIM5_Init+0x94>)
 8004680:	2200      	movs	r2, #0
 8004682:	619a      	str	r2, [r3, #24]
  if (HAL_TIM_Base_Init(&htim5) != HAL_OK)
 8004684:	4813      	ldr	r0, [pc, #76]	; (80046d4 <MX_TIM5_Init+0x94>)
 8004686:	f002 ff2f 	bl	80074e8 <HAL_TIM_Base_Init>
 800468a:	4603      	mov	r3, r0
 800468c:	2b00      	cmp	r3, #0
 800468e:	d001      	beq.n	8004694 <MX_TIM5_Init+0x54>
  {
    Error_Handler();
 8004690:	f7ff fa16 	bl	8003ac0 <Error_Handler>
  }
  sClockSourceConfig.ClockSource = TIM_CLOCKSOURCE_INTERNAL;
 8004694:	f44f 5380 	mov.w	r3, #4096	; 0x1000
 8004698:	613b      	str	r3, [r7, #16]
  if (HAL_TIM_ConfigClockSource(&htim5, &sClockSourceConfig) != HAL_OK)
 800469a:	f107 0310 	add.w	r3, r7, #16
 800469e:	4619      	mov	r1, r3
 80046a0:	480c      	ldr	r0, [pc, #48]	; (80046d4 <MX_TIM5_Init+0x94>)
 80046a2:	f003 f96d 	bl	8007980 <HAL_TIM_ConfigClockSource>
 80046a6:	4603      	mov	r3, r0
 80046a8:	2b00      	cmp	r3, #0
 80046aa:	d001      	beq.n	80046b0 <MX_TIM5_Init+0x70>
  {
    Error_Handler();
 80046ac:	f7ff fa08 	bl	8003ac0 <Error_Handler>
  }
  sMasterConfig.MasterOutputTrigger = TIM_TRGO_RESET;
 80046b0:	2300      	movs	r3, #0
 80046b2:	607b      	str	r3, [r7, #4]
  sMasterConfig.MasterSlaveMode = TIM_MASTERSLAVEMODE_DISABLE;
 80046b4:	2300      	movs	r3, #0
 80046b6:	60fb      	str	r3, [r7, #12]
  if (HAL_TIMEx_MasterConfigSynchronization(&htim5, &sMasterConfig) != HAL_OK)
 80046b8:	1d3b      	adds	r3, r7, #4
 80046ba:	4619      	mov	r1, r3
 80046bc:	4805      	ldr	r0, [pc, #20]	; (80046d4 <MX_TIM5_Init+0x94>)
 80046be:	f003 fd79 	bl	80081b4 <HAL_TIMEx_MasterConfigSynchronization>
 80046c2:	4603      	mov	r3, r0
 80046c4:	2b00      	cmp	r3, #0
 80046c6:	d001      	beq.n	80046cc <MX_TIM5_Init+0x8c>
  {
    Error_Handler();
 80046c8:	f7ff f9fa 	bl	8003ac0 <Error_Handler>
  }
  /* USER CODE BEGIN TIM5_Init 2 */

  /* USER CODE END TIM5_Init 2 */

}
 80046cc:	bf00      	nop
 80046ce:	3720      	adds	r7, #32
 80046d0:	46bd      	mov	sp, r7
 80046d2:	bd80      	pop	{r7, pc}
 80046d4:	20000274 	.word	0x20000274
 80046d8:	40000c00 	.word	0x40000c00

080046dc <HAL_TIM_Base_MspInit>:

void HAL_TIM_Base_MspInit(TIM_HandleTypeDef* tim_baseHandle)
{
 80046dc:	b580      	push	{r7, lr}
 80046de:	b084      	sub	sp, #16
 80046e0:	af00      	add	r7, sp, #0
 80046e2:	6078      	str	r0, [r7, #4]

  if(tim_baseHandle->Instance==TIM5)
 80046e4:	687b      	ldr	r3, [r7, #4]
 80046e6:	681b      	ldr	r3, [r3, #0]
 80046e8:	4a0d      	ldr	r2, [pc, #52]	; (8004720 <HAL_TIM_Base_MspInit+0x44>)
 80046ea:	4293      	cmp	r3, r2
 80046ec:	d113      	bne.n	8004716 <HAL_TIM_Base_MspInit+0x3a>
  {
  /* USER CODE BEGIN TIM5_MspInit 0 */

  /* USER CODE END TIM5_MspInit 0 */
    /* TIM5 clock enable */
    __HAL_RCC_TIM5_CLK_ENABLE();
 80046ee:	4b0d      	ldr	r3, [pc, #52]	; (8004724 <HAL_TIM_Base_MspInit+0x48>)
 80046f0:	6c1b      	ldr	r3, [r3, #64]	; 0x40
 80046f2:	4a0c      	ldr	r2, [pc, #48]	; (8004724 <HAL_TIM_Base_MspInit+0x48>)
 80046f4:	f043 0308 	orr.w	r3, r3, #8
 80046f8:	6413      	str	r3, [r2, #64]	; 0x40
 80046fa:	4b0a      	ldr	r3, [pc, #40]	; (8004724 <HAL_TIM_Base_MspInit+0x48>)
 80046fc:	6c1b      	ldr	r3, [r3, #64]	; 0x40
 80046fe:	f003 0308 	and.w	r3, r3, #8
 8004702:	60fb      	str	r3, [r7, #12]
 8004704:	68fb      	ldr	r3, [r7, #12]

    /* TIM5 interrupt Init */
    HAL_NVIC_SetPriority(TIM5_IRQn, 0, 0);
 8004706:	2200      	movs	r2, #0
 8004708:	2100      	movs	r1, #0
 800470a:	2032      	movs	r0, #50	; 0x32
 800470c:	f000 febb 	bl	8005486 <HAL_NVIC_SetPriority>
    HAL_NVIC_EnableIRQ(TIM5_IRQn);
 8004710:	2032      	movs	r0, #50	; 0x32
 8004712:	f000 fed4 	bl	80054be <HAL_NVIC_EnableIRQ>
  /* USER CODE BEGIN TIM5_MspInit 1 */

  /* USER CODE END TIM5_MspInit 1 */
  }
}
 8004716:	bf00      	nop
 8004718:	3710      	adds	r7, #16
 800471a:	46bd      	mov	sp, r7
 800471c:	bd80      	pop	{r7, pc}
 800471e:	bf00      	nop
 8004720:	40000c00 	.word	0x40000c00
 8004724:	40023800 	.word	0x40023800

08004728 <_ZL27timeTriggeredScheduler_tickP19__TIM_HandleTypeDef>:
#include "CNI.h"

static timeTriggeredScheduler_t _instance;

static void timeTriggeredScheduler_tick(TIM_HandleTypeDef *htim)
{
 8004728:	b480      	push	{r7}
 800472a:	b083      	sub	sp, #12
 800472c:	af00      	add	r7, sp, #0
 800472e:	6078      	str	r0, [r7, #4]
	_instance.mTicks_++;
 8004730:	4b05      	ldr	r3, [pc, #20]	; (8004748 <_ZL27timeTriggeredScheduler_tickP19__TIM_HandleTypeDef+0x20>)
 8004732:	685b      	ldr	r3, [r3, #4]
 8004734:	3301      	adds	r3, #1
 8004736:	4a04      	ldr	r2, [pc, #16]	; (8004748 <_ZL27timeTriggeredScheduler_tickP19__TIM_HandleTypeDef+0x20>)
 8004738:	6053      	str	r3, [r2, #4]
}
 800473a:	bf00      	nop
 800473c:	370c      	adds	r7, #12
 800473e:	46bd      	mov	sp, r7
 8004740:	f85d 7b04 	ldr.w	r7, [sp], #4
 8004744:	4770      	bx	lr
 8004746:	bf00      	nop
 8004748:	20000330 	.word	0x20000330

0800474c <_Z34timeTriggeredScheduler_constructorP19__TIM_HandleTypeDefm>:

void timeTriggeredScheduler_constructor(TIM_HandleTypeDef *timer, uint32_t macroTick)
{
 800474c:	b480      	push	{r7}
 800474e:	b085      	sub	sp, #20
 8004750:	af00      	add	r7, sp, #0
 8004752:	6078      	str	r0, [r7, #4]
 8004754:	6039      	str	r1, [r7, #0]
	uint32_t i;

	_instance.mTimer_ = timer;
 8004756:	4a11      	ldr	r2, [pc, #68]	; (800479c <_Z34timeTriggeredScheduler_constructorP19__TIM_HandleTypeDefm+0x50>)
 8004758:	687b      	ldr	r3, [r7, #4]
 800475a:	6013      	str	r3, [r2, #0]

	for(i = 0; i < MAX_NUM_TASKS ; i++)
 800475c:	2300      	movs	r3, #0
 800475e:	60fb      	str	r3, [r7, #12]
 8004760:	e008      	b.n	8004774 <_Z34timeTriggeredScheduler_constructorP19__TIM_HandleTypeDefm+0x28>
	{
		_instance.mTaskList_[i] = 0;
 8004762:	4a0e      	ldr	r2, [pc, #56]	; (800479c <_Z34timeTriggeredScheduler_constructorP19__TIM_HandleTypeDefm+0x50>)
 8004764:	68fb      	ldr	r3, [r7, #12]
 8004766:	3302      	adds	r3, #2
 8004768:	2100      	movs	r1, #0
 800476a:	f842 1023 	str.w	r1, [r2, r3, lsl #2]
	for(i = 0; i < MAX_NUM_TASKS ; i++)
 800476e:	68fb      	ldr	r3, [r7, #12]
 8004770:	3301      	adds	r3, #1
 8004772:	60fb      	str	r3, [r7, #12]
 8004774:	68fb      	ldr	r3, [r7, #12]
 8004776:	2b09      	cmp	r3, #9
 8004778:	d9f3      	bls.n	8004762 <_Z34timeTriggeredScheduler_constructorP19__TIM_HandleTypeDefm+0x16>
	}

	_instance.mTicks_ = 0;
 800477a:	4b08      	ldr	r3, [pc, #32]	; (800479c <_Z34timeTriggeredScheduler_constructorP19__TIM_HandleTypeDefm+0x50>)
 800477c:	2200      	movs	r2, #0
 800477e:	605a      	str	r2, [r3, #4]
	_instance.mMacroTick_ = macroTick;
 8004780:	4a06      	ldr	r2, [pc, #24]	; (800479c <_Z34timeTriggeredScheduler_constructorP19__TIM_HandleTypeDefm+0x50>)
 8004782:	683b      	ldr	r3, [r7, #0]
 8004784:	6313      	str	r3, [r2, #48]	; 0x30
	_instance.mSyncExecuted_ = 0;
 8004786:	4b05      	ldr	r3, [pc, #20]	; (800479c <_Z34timeTriggeredScheduler_constructorP19__TIM_HandleTypeDefm+0x50>)
 8004788:	2200      	movs	r2, #0
 800478a:	f883 2034 	strb.w	r2, [r3, #52]	; 0x34
}
 800478e:	bf00      	nop
 8004790:	3714      	adds	r7, #20
 8004792:	46bd      	mov	sp, r7
 8004794:	f85d 7b04 	ldr.w	r7, [sp], #4
 8004798:	4770      	bx	lr
 800479a:	bf00      	nop
 800479c:	20000330 	.word	0x20000330

080047a0 <_Z27timeTriggeredScheduler_initv>:

void timeTriggeredScheduler_init(void)
{
 80047a0:	b580      	push	{r7, lr}
 80047a2:	af00      	add	r7, sp, #0
	HAL_TIM_Base_Stop_IT(_instance.mTimer_);
 80047a4:	4b08      	ldr	r3, [pc, #32]	; (80047c8 <_Z27timeTriggeredScheduler_initv+0x28>)
 80047a6:	681b      	ldr	r3, [r3, #0]
 80047a8:	4618      	mov	r0, r3
 80047aa:	f002 ff79 	bl	80076a0 <HAL_TIM_Base_Stop_IT>
	HAL_TIM_RegisterCallback(_instance.mTimer_, HAL_TIM_PERIOD_ELAPSED_CB_ID, timeTriggeredScheduler_tick);
 80047ae:	4b06      	ldr	r3, [pc, #24]	; (80047c8 <_Z27timeTriggeredScheduler_initv+0x28>)
 80047b0:	681b      	ldr	r3, [r3, #0]
 80047b2:	4a06      	ldr	r2, [pc, #24]	; (80047cc <_Z27timeTriggeredScheduler_initv+0x2c>)
 80047b4:	210e      	movs	r1, #14
 80047b6:	4618      	mov	r0, r3
 80047b8:	f003 fa10 	bl	8007bdc <HAL_TIM_RegisterCallback>

	_instance.mSyncExecuted_ = 0;
 80047bc:	4b02      	ldr	r3, [pc, #8]	; (80047c8 <_Z27timeTriggeredScheduler_initv+0x28>)
 80047be:	2200      	movs	r2, #0
 80047c0:	f883 2034 	strb.w	r2, [r3, #52]	; 0x34
}
 80047c4:	bf00      	nop
 80047c6:	bd80      	pop	{r7, pc}
 80047c8:	20000330 	.word	0x20000330
 80047cc:	08004729 	.word	0x08004729

080047d0 <_Z28timeTriggeredScheduler_startv>:

void timeTriggeredScheduler_start(void)
{
 80047d0:	b580      	push	{r7, lr}
 80047d2:	af00      	add	r7, sp, #0
	HAL_TIM_Base_Start_IT(_instance.mTimer_);
 80047d4:	4b03      	ldr	r3, [pc, #12]	; (80047e4 <_Z28timeTriggeredScheduler_startv+0x14>)
 80047d6:	681b      	ldr	r3, [r3, #0]
 80047d8:	4618      	mov	r0, r3
 80047da:	f002 fee9 	bl	80075b0 <HAL_TIM_Base_Start_IT>
}
 80047de:	bf00      	nop
 80047e0:	bd80      	pop	{r7, pc}
 80047e2:	bf00      	nop
 80047e4:	20000330 	.word	0x20000330

080047e8 <_Z31timeTriggeredScheduler_dispatchv>:
{
	HAL_TIM_Base_Stop_IT(_instance.mTimer_);
}

void timeTriggeredScheduler_dispatch(void)
{
 80047e8:	b580      	push	{r7, lr}
 80047ea:	b084      	sub	sp, #16
 80047ec:	af00      	add	r7, sp, #0
	uint8_t updateRequired = 0;
 80047ee:	2300      	movs	r3, #0
 80047f0:	73fb      	strb	r3, [r7, #15]
  __ASM volatile ("cpsid i" : : : "memory");
 80047f2:	b672      	cpsid	i
}
 80047f4:	bf00      	nop
	uint32_t i;
	timeTriggeredTask_t *task;

	__disable_irq();
	if(_instance.mTicks_ > 0)
 80047f6:	4b2f      	ldr	r3, [pc, #188]	; (80048b4 <_Z31timeTriggeredScheduler_dispatchv+0xcc>)
 80047f8:	685b      	ldr	r3, [r3, #4]
 80047fa:	2b00      	cmp	r3, #0
 80047fc:	bf14      	ite	ne
 80047fe:	2301      	movne	r3, #1
 8004800:	2300      	moveq	r3, #0
 8004802:	b2db      	uxtb	r3, r3
 8004804:	2b00      	cmp	r3, #0
 8004806:	d006      	beq.n	8004816 <_Z31timeTriggeredScheduler_dispatchv+0x2e>
	{
		_instance.mTicks_--;
 8004808:	4b2a      	ldr	r3, [pc, #168]	; (80048b4 <_Z31timeTriggeredScheduler_dispatchv+0xcc>)
 800480a:	685b      	ldr	r3, [r3, #4]
 800480c:	3b01      	subs	r3, #1
 800480e:	4a29      	ldr	r2, [pc, #164]	; (80048b4 <_Z31timeTriggeredScheduler_dispatchv+0xcc>)
 8004810:	6053      	str	r3, [r2, #4]
		updateRequired = 1;
 8004812:	2301      	movs	r3, #1
 8004814:	73fb      	strb	r3, [r7, #15]
  __ASM volatile ("cpsie i" : : : "memory");
 8004816:	b662      	cpsie	i
}
 8004818:	bf00      	nop
		__HAL_TIM_SET_AUTORELOAD(_instance.mTimer_, _instance.mMacroTick_);
	}
#endif
	__enable_irq();

	while(updateRequired)
 800481a:	e043      	b.n	80048a4 <_Z31timeTriggeredScheduler_dispatchv+0xbc>
	{
		for(i = 0; i < MAX_NUM_TASKS; i++)
 800481c:	2300      	movs	r3, #0
 800481e:	60bb      	str	r3, [r7, #8]
 8004820:	e026      	b.n	8004870 <_Z31timeTriggeredScheduler_dispatchv+0x88>
		{
			if((task = _instance.mTaskList_[i]))
 8004822:	4a24      	ldr	r2, [pc, #144]	; (80048b4 <_Z31timeTriggeredScheduler_dispatchv+0xcc>)
 8004824:	68bb      	ldr	r3, [r7, #8]
 8004826:	3302      	adds	r3, #2
 8004828:	f852 3023 	ldr.w	r3, [r2, r3, lsl #2]
 800482c:	607b      	str	r3, [r7, #4]
 800482e:	687b      	ldr	r3, [r7, #4]
 8004830:	2b00      	cmp	r3, #0
 8004832:	bf14      	ite	ne
 8004834:	2301      	movne	r3, #1
 8004836:	2300      	moveq	r3, #0
 8004838:	b2db      	uxtb	r3, r3
 800483a:	2b00      	cmp	r3, #0
 800483c:	d015      	beq.n	800486a <_Z31timeTriggeredScheduler_dispatchv+0x82>
			{
				//if( (--(me->mTaskList_[i]->mDelayTicks_)) == 0 )
				if( (--(task->mDelayTicks_)) == 0 )
 800483e:	687b      	ldr	r3, [r7, #4]
 8004840:	685b      	ldr	r3, [r3, #4]
 8004842:	1e5a      	subs	r2, r3, #1
 8004844:	687b      	ldr	r3, [r7, #4]
 8004846:	605a      	str	r2, [r3, #4]
 8004848:	687b      	ldr	r3, [r7, #4]
 800484a:	685b      	ldr	r3, [r3, #4]
 800484c:	2b00      	cmp	r3, #0
 800484e:	bf0c      	ite	eq
 8004850:	2301      	moveq	r3, #1
 8004852:	2300      	movne	r3, #0
 8004854:	b2db      	uxtb	r3, r3
 8004856:	2b00      	cmp	r3, #0
 8004858:	d007      	beq.n	800486a <_Z31timeTriggeredScheduler_dispatchv+0x82>
				{
					//timeTriggeredTask_update((timeTriggeredTask_t*)(me->mTaskList_[i]));
					(*(task->mTaskHandler_))(task);
 800485a:	687b      	ldr	r3, [r7, #4]
 800485c:	681b      	ldr	r3, [r3, #0]
 800485e:	6878      	ldr	r0, [r7, #4]
 8004860:	4798      	blx	r3
					//me->mTaskList_[i]->mDelayTicks_ = me->mTaskList_[i]->mPeriodTicks_;
					task->mDelayTicks_ = task->mPeriodTicks_;
 8004862:	687b      	ldr	r3, [r7, #4]
 8004864:	689a      	ldr	r2, [r3, #8]
 8004866:	687b      	ldr	r3, [r7, #4]
 8004868:	605a      	str	r2, [r3, #4]
		for(i = 0; i < MAX_NUM_TASKS; i++)
 800486a:	68bb      	ldr	r3, [r7, #8]
 800486c:	3301      	adds	r3, #1
 800486e:	60bb      	str	r3, [r7, #8]
 8004870:	68bb      	ldr	r3, [r7, #8]
 8004872:	2b09      	cmp	r3, #9
 8004874:	d9d5      	bls.n	8004822 <_Z31timeTriggeredScheduler_dispatchv+0x3a>
  __ASM volatile ("cpsid i" : : : "memory");
 8004876:	b672      	cpsid	i
}
 8004878:	bf00      	nop
			}
		}

		__disable_irq();

		if(_instance.mTicks_ > 0)
 800487a:	4b0e      	ldr	r3, [pc, #56]	; (80048b4 <_Z31timeTriggeredScheduler_dispatchv+0xcc>)
 800487c:	685b      	ldr	r3, [r3, #4]
 800487e:	2b00      	cmp	r3, #0
 8004880:	bf14      	ite	ne
 8004882:	2301      	movne	r3, #1
 8004884:	2300      	moveq	r3, #0
 8004886:	b2db      	uxtb	r3, r3
 8004888:	2b00      	cmp	r3, #0
 800488a:	d007      	beq.n	800489c <_Z31timeTriggeredScheduler_dispatchv+0xb4>
		{
			_instance.mTicks_--;
 800488c:	4b09      	ldr	r3, [pc, #36]	; (80048b4 <_Z31timeTriggeredScheduler_dispatchv+0xcc>)
 800488e:	685b      	ldr	r3, [r3, #4]
 8004890:	3b01      	subs	r3, #1
 8004892:	4a08      	ldr	r2, [pc, #32]	; (80048b4 <_Z31timeTriggeredScheduler_dispatchv+0xcc>)
 8004894:	6053      	str	r3, [r2, #4]
			updateRequired = 1;
 8004896:	2301      	movs	r3, #1
 8004898:	73fb      	strb	r3, [r7, #15]
 800489a:	e001      	b.n	80048a0 <_Z31timeTriggeredScheduler_dispatchv+0xb8>
		}
		else
		{
			updateRequired = 0;
 800489c:	2300      	movs	r3, #0
 800489e:	73fb      	strb	r3, [r7, #15]
  __ASM volatile ("cpsie i" : : : "memory");
 80048a0:	b662      	cpsie	i
}
 80048a2:	bf00      	nop
	while(updateRequired)
 80048a4:	7bfb      	ldrb	r3, [r7, #15]
 80048a6:	2b00      	cmp	r3, #0
 80048a8:	d1b8      	bne.n	800481c <_Z31timeTriggeredScheduler_dispatchv+0x34>
		}

		__enable_irq();
	}
	__asm__("wfi");
 80048aa:	bf30      	wfi
}
 80048ac:	bf00      	nop
 80048ae:	3710      	adds	r7, #16
 80048b0:	46bd      	mov	sp, r7
 80048b2:	bd80      	pop	{r7, pc}
 80048b4:	20000330 	.word	0x20000330

080048b8 <_Z31timeTriggeredScheduler_add_taskP19timeTriggeredTask_t>:

TTschStatus_t timeTriggeredScheduler_add_task(timeTriggeredTask_t *task)
{
 80048b8:	b480      	push	{r7}
 80048ba:	b085      	sub	sp, #20
 80048bc:	af00      	add	r7, sp, #0
 80048be:	6078      	str	r0, [r7, #4]
	uint32_t i = 0;
 80048c0:	2300      	movs	r3, #0
 80048c2:	60fb      	str	r3, [r7, #12]

	while( (_instance.mTaskList_[i] ) && (i < MAX_NUM_TASKS) )
 80048c4:	e002      	b.n	80048cc <_Z31timeTriggeredScheduler_add_taskP19timeTriggeredTask_t+0x14>
	{
		i++;
 80048c6:	68fb      	ldr	r3, [r7, #12]
 80048c8:	3301      	adds	r3, #1
 80048ca:	60fb      	str	r3, [r7, #12]
	while( (_instance.mTaskList_[i] ) && (i < MAX_NUM_TASKS) )
 80048cc:	4a0d      	ldr	r2, [pc, #52]	; (8004904 <_Z31timeTriggeredScheduler_add_taskP19timeTriggeredTask_t+0x4c>)
 80048ce:	68fb      	ldr	r3, [r7, #12]
 80048d0:	3302      	adds	r3, #2
 80048d2:	f852 3023 	ldr.w	r3, [r2, r3, lsl #2]
 80048d6:	2b00      	cmp	r3, #0
 80048d8:	d002      	beq.n	80048e0 <_Z31timeTriggeredScheduler_add_taskP19timeTriggeredTask_t+0x28>
 80048da:	68fb      	ldr	r3, [r7, #12]
 80048dc:	2b09      	cmp	r3, #9
 80048de:	d9f2      	bls.n	80048c6 <_Z31timeTriggeredScheduler_add_taskP19timeTriggeredTask_t+0xe>
	}

	if(i == MAX_NUM_TASKS)
 80048e0:	68fb      	ldr	r3, [r7, #12]
 80048e2:	2b0a      	cmp	r3, #10
 80048e4:	d101      	bne.n	80048ea <_Z31timeTriggeredScheduler_add_taskP19timeTriggeredTask_t+0x32>
	{
		return TTsch_ERROR_MAX_TASKS_REACHED;
 80048e6:	2301      	movs	r3, #1
 80048e8:	e006      	b.n	80048f8 <_Z31timeTriggeredScheduler_add_taskP19timeTriggeredTask_t+0x40>
	}

	_instance.mTaskList_[i] = task;
 80048ea:	4906      	ldr	r1, [pc, #24]	; (8004904 <_Z31timeTriggeredScheduler_add_taskP19timeTriggeredTask_t+0x4c>)
 80048ec:	68fb      	ldr	r3, [r7, #12]
 80048ee:	3302      	adds	r3, #2
 80048f0:	687a      	ldr	r2, [r7, #4]
 80048f2:	f841 2023 	str.w	r2, [r1, r3, lsl #2]

	return TTsch_OK;
 80048f6:	2300      	movs	r3, #0
}
 80048f8:	4618      	mov	r0, r3
 80048fa:	3714      	adds	r7, #20
 80048fc:	46bd      	mov	sp, r7
 80048fe:	f85d 7b04 	ldr.w	r7, [sp], #4
 8004902:	4770      	bx	lr
 8004904:	20000330 	.word	0x20000330

08004908 <_Z33taskTimeTriggeredSync_constructorP23taskTimeTriggeredSync_tmmmmmmm>:

void taskTimeTriggeredSync_constructor(taskTimeTriggeredSync_t *me, uint32_t delayTicks, uint32_t periodTicks, uint32_t wcetMicroSeconds, uint32_t bcetMicroSeconds, uint32_t handleMsg, uint32_t expectedTimestamp, uint32_t delaySync)
{
 8004908:	b580      	push	{r7, lr}
 800490a:	b086      	sub	sp, #24
 800490c:	af02      	add	r7, sp, #8
 800490e:	60f8      	str	r0, [r7, #12]
 8004910:	60b9      	str	r1, [r7, #8]
 8004912:	607a      	str	r2, [r7, #4]
 8004914:	603b      	str	r3, [r7, #0]
	timeTriggeredTask_constructor(&me->super, (taskHandler_t)&taskTimeTriggeredSync_update, delayTicks, periodTicks, wcetMicroSeconds, bcetMicroSeconds);
 8004916:	68f8      	ldr	r0, [r7, #12]
 8004918:	69bb      	ldr	r3, [r7, #24]
 800491a:	9301      	str	r3, [sp, #4]
 800491c:	683b      	ldr	r3, [r7, #0]
 800491e:	9300      	str	r3, [sp, #0]
 8004920:	687b      	ldr	r3, [r7, #4]
 8004922:	68ba      	ldr	r2, [r7, #8]
 8004924:	4907      	ldr	r1, [pc, #28]	; (8004944 <_Z33taskTimeTriggeredSync_constructorP23taskTimeTriggeredSync_tmmmmmmm+0x3c>)
 8004926:	f000 f82d 	bl	8004984 <_Z29timeTriggeredTask_constructorP19timeTriggeredTask_tPFvPvEmmmm>
	me->mHandleMsg_ = handleMsg;
 800492a:	68fb      	ldr	r3, [r7, #12]
 800492c:	69fa      	ldr	r2, [r7, #28]
 800492e:	615a      	str	r2, [r3, #20]
	me->mExpectedTimestamp_ = expectedTimestamp;
 8004930:	68fb      	ldr	r3, [r7, #12]
 8004932:	6a3a      	ldr	r2, [r7, #32]
 8004934:	619a      	str	r2, [r3, #24]
	me->mDelaySync_ = delaySync;
 8004936:	68fb      	ldr	r3, [r7, #12]
 8004938:	6a7a      	ldr	r2, [r7, #36]	; 0x24
 800493a:	61da      	str	r2, [r3, #28]
}
 800493c:	bf00      	nop
 800493e:	3710      	adds	r7, #16
 8004940:	46bd      	mov	sp, r7
 8004942:	bd80      	pop	{r7, pc}
 8004944:	08004949 	.word	0x08004949

08004948 <_Z28taskTimeTriggeredSync_updateP23taskTimeTriggeredSync_t>:
{
	// Por ahora no hace nada
}

void taskTimeTriggeredSync_update(taskTimeTriggeredSync_t *me)
{
 8004948:	b580      	push	{r7, lr}
 800494a:	b082      	sub	sp, #8
 800494c:	af00      	add	r7, sp, #0
 800494e:	6078      	str	r0, [r7, #4]
		// Le aviso al scheduler que en el próximo tick, vuelva a dejar el timer como estaba antes
		_instance.mSyncExecuted_ = 1;
	}
#else
	// Espero un rato
	while(__HAL_TIM_GET_COUNTER(_instance.mTimer_) < me->mDelaySync_);
 8004950:	bf00      	nop
 8004952:	4b0b      	ldr	r3, [pc, #44]	; (8004980 <_Z28taskTimeTriggeredSync_updateP23taskTimeTriggeredSync_t+0x38>)
 8004954:	681b      	ldr	r3, [r3, #0]
 8004956:	681b      	ldr	r3, [r3, #0]
 8004958:	6a5a      	ldr	r2, [r3, #36]	; 0x24
 800495a:	687b      	ldr	r3, [r7, #4]
 800495c:	69db      	ldr	r3, [r3, #28]
 800495e:	429a      	cmp	r2, r3
 8004960:	bf34      	ite	cc
 8004962:	2301      	movcc	r3, #1
 8004964:	2300      	movcs	r3, #0
 8004966:	b2db      	uxtb	r3, r3
 8004968:	2b00      	cmp	r3, #0
 800496a:	d1f2      	bne.n	8004952 <_Z28taskTimeTriggeredSync_updateP23taskTimeTriggeredSync_t+0xa>
	// Envío el mensaje de sync
	CNI_send_msg(me->mHandleMsg_);
 800496c:	687b      	ldr	r3, [r7, #4]
 800496e:	695b      	ldr	r3, [r3, #20]
 8004970:	4618      	mov	r0, r3
 8004972:	f7fb fe15 	bl	80005a0 <_Z12CNI_send_msgm>
#endif
}
 8004976:	bf00      	nop
 8004978:	3708      	adds	r7, #8
 800497a:	46bd      	mov	sp, r7
 800497c:	bd80      	pop	{r7, pc}
 800497e:	bf00      	nop
 8004980:	20000330 	.word	0x20000330

08004984 <_Z29timeTriggeredTask_constructorP19timeTriggeredTask_tPFvPvEmmmm>:
 */

#include "timeTriggeredTask.h"

void timeTriggeredTask_constructor(timeTriggeredTask_t *me, taskHandler_t taskHandler, uint32_t delayTicks, uint32_t periodTicks, uint32_t wcetMicroSeconds, uint32_t bcetMicroSeconds)
{
 8004984:	b480      	push	{r7}
 8004986:	b085      	sub	sp, #20
 8004988:	af00      	add	r7, sp, #0
 800498a:	60f8      	str	r0, [r7, #12]
 800498c:	60b9      	str	r1, [r7, #8]
 800498e:	607a      	str	r2, [r7, #4]
 8004990:	603b      	str	r3, [r7, #0]
	me->mTaskHandler_ = taskHandler;
 8004992:	68fb      	ldr	r3, [r7, #12]
 8004994:	68ba      	ldr	r2, [r7, #8]
 8004996:	601a      	str	r2, [r3, #0]

	me->mDelayTicks_ = delayTicks + 1;
 8004998:	687b      	ldr	r3, [r7, #4]
 800499a:	1c5a      	adds	r2, r3, #1
 800499c:	68fb      	ldr	r3, [r7, #12]
 800499e:	605a      	str	r2, [r3, #4]
	me->mPeriodTicks_ = periodTicks;
 80049a0:	68fb      	ldr	r3, [r7, #12]
 80049a2:	683a      	ldr	r2, [r7, #0]
 80049a4:	609a      	str	r2, [r3, #8]
	me->mWcetMicroSeconds_ = wcetMicroSeconds;
 80049a6:	68fb      	ldr	r3, [r7, #12]
 80049a8:	69ba      	ldr	r2, [r7, #24]
 80049aa:	60da      	str	r2, [r3, #12]
	me->mBcetMicroSeconds_ = bcetMicroSeconds;
 80049ac:	68fb      	ldr	r3, [r7, #12]
 80049ae:	69fa      	ldr	r2, [r7, #28]
 80049b0:	611a      	str	r2, [r3, #16]
}
 80049b2:	bf00      	nop
 80049b4:	3714      	adds	r7, #20
 80049b6:	46bd      	mov	sp, r7
 80049b8:	f85d 7b04 	ldr.w	r7, [sp], #4
 80049bc:	4770      	bx	lr
	...

080049c0 <MX_USART3_UART_Init>:
UART_HandleTypeDef huart3;

/* USART3 init function */

void MX_USART3_UART_Init(void)
{
 80049c0:	b580      	push	{r7, lr}
 80049c2:	af00      	add	r7, sp, #0
  /* USER CODE END USART3_Init 0 */

  /* USER CODE BEGIN USART3_Init 1 */

  /* USER CODE END USART3_Init 1 */
  huart3.Instance = USART3;
 80049c4:	4b14      	ldr	r3, [pc, #80]	; (8004a18 <MX_USART3_UART_Init+0x58>)
 80049c6:	4a15      	ldr	r2, [pc, #84]	; (8004a1c <MX_USART3_UART_Init+0x5c>)
 80049c8:	601a      	str	r2, [r3, #0]
  huart3.Init.BaudRate = 115200;
 80049ca:	4b13      	ldr	r3, [pc, #76]	; (8004a18 <MX_USART3_UART_Init+0x58>)
 80049cc:	f44f 32e1 	mov.w	r2, #115200	; 0x1c200
 80049d0:	605a      	str	r2, [r3, #4]
  huart3.Init.WordLength = UART_WORDLENGTH_8B;
 80049d2:	4b11      	ldr	r3, [pc, #68]	; (8004a18 <MX_USART3_UART_Init+0x58>)
 80049d4:	2200      	movs	r2, #0
 80049d6:	609a      	str	r2, [r3, #8]
  huart3.Init.StopBits = UART_STOPBITS_1;
 80049d8:	4b0f      	ldr	r3, [pc, #60]	; (8004a18 <MX_USART3_UART_Init+0x58>)
 80049da:	2200      	movs	r2, #0
 80049dc:	60da      	str	r2, [r3, #12]
  huart3.Init.Parity = UART_PARITY_NONE;
 80049de:	4b0e      	ldr	r3, [pc, #56]	; (8004a18 <MX_USART3_UART_Init+0x58>)
 80049e0:	2200      	movs	r2, #0
 80049e2:	611a      	str	r2, [r3, #16]
  huart3.Init.Mode = UART_MODE_TX_RX;
 80049e4:	4b0c      	ldr	r3, [pc, #48]	; (8004a18 <MX_USART3_UART_Init+0x58>)
 80049e6:	220c      	movs	r2, #12
 80049e8:	615a      	str	r2, [r3, #20]
  huart3.Init.HwFlowCtl = UART_HWCONTROL_NONE;
 80049ea:	4b0b      	ldr	r3, [pc, #44]	; (8004a18 <MX_USART3_UART_Init+0x58>)
 80049ec:	2200      	movs	r2, #0
 80049ee:	619a      	str	r2, [r3, #24]
  huart3.Init.OverSampling = UART_OVERSAMPLING_16;
 80049f0:	4b09      	ldr	r3, [pc, #36]	; (8004a18 <MX_USART3_UART_Init+0x58>)
 80049f2:	2200      	movs	r2, #0
 80049f4:	61da      	str	r2, [r3, #28]
  huart3.Init.OneBitSampling = UART_ONE_BIT_SAMPLE_DISABLE;
 80049f6:	4b08      	ldr	r3, [pc, #32]	; (8004a18 <MX_USART3_UART_Init+0x58>)
 80049f8:	2200      	movs	r2, #0
 80049fa:	621a      	str	r2, [r3, #32]
  huart3.AdvancedInit.AdvFeatureInit = UART_ADVFEATURE_NO_INIT;
 80049fc:	4b06      	ldr	r3, [pc, #24]	; (8004a18 <MX_USART3_UART_Init+0x58>)
 80049fe:	2200      	movs	r2, #0
 8004a00:	625a      	str	r2, [r3, #36]	; 0x24
  if (HAL_UART_Init(&huart3) != HAL_OK)
 8004a02:	4805      	ldr	r0, [pc, #20]	; (8004a18 <MX_USART3_UART_Init+0x58>)
 8004a04:	f003 fc8c 	bl	8008320 <HAL_UART_Init>
 8004a08:	4603      	mov	r3, r0
 8004a0a:	2b00      	cmp	r3, #0
 8004a0c:	d001      	beq.n	8004a12 <MX_USART3_UART_Init+0x52>
  {
    Error_Handler();
 8004a0e:	f7ff f857 	bl	8003ac0 <Error_Handler>
  }
  /* USER CODE BEGIN USART3_Init 2 */

  /* USER CODE END USART3_Init 2 */

}
 8004a12:	bf00      	nop
 8004a14:	bd80      	pop	{r7, pc}
 8004a16:	bf00      	nop
 8004a18:	20000368 	.word	0x20000368
 8004a1c:	40004800 	.word	0x40004800

08004a20 <HAL_UART_MspInit>:

void HAL_UART_MspInit(UART_HandleTypeDef* uartHandle)
{
 8004a20:	b580      	push	{r7, lr}
 8004a22:	b0aa      	sub	sp, #168	; 0xa8
 8004a24:	af00      	add	r7, sp, #0
 8004a26:	6078      	str	r0, [r7, #4]

  GPIO_InitTypeDef GPIO_InitStruct = {0};
 8004a28:	f107 0394 	add.w	r3, r7, #148	; 0x94
 8004a2c:	2200      	movs	r2, #0
 8004a2e:	601a      	str	r2, [r3, #0]
 8004a30:	605a      	str	r2, [r3, #4]
 8004a32:	609a      	str	r2, [r3, #8]
 8004a34:	60da      	str	r2, [r3, #12]
 8004a36:	611a      	str	r2, [r3, #16]
  RCC_PeriphCLKInitTypeDef PeriphClkInitStruct = {0};
 8004a38:	f107 0310 	add.w	r3, r7, #16
 8004a3c:	2284      	movs	r2, #132	; 0x84
 8004a3e:	2100      	movs	r1, #0
 8004a40:	4618      	mov	r0, r3
 8004a42:	f004 fdcf 	bl	80095e4 <memset>
  if(uartHandle->Instance==USART3)
 8004a46:	687b      	ldr	r3, [r7, #4]
 8004a48:	681b      	ldr	r3, [r3, #0]
 8004a4a:	4a26      	ldr	r2, [pc, #152]	; (8004ae4 <HAL_UART_MspInit+0xc4>)
 8004a4c:	4293      	cmp	r3, r2
 8004a4e:	d144      	bne.n	8004ada <HAL_UART_MspInit+0xba>

  /* USER CODE END USART3_MspInit 0 */

  /** Initializes the peripherals clock
  */
    PeriphClkInitStruct.PeriphClockSelection = RCC_PERIPHCLK_USART3;
 8004a50:	f44f 7380 	mov.w	r3, #256	; 0x100
 8004a54:	613b      	str	r3, [r7, #16]
    PeriphClkInitStruct.Usart3ClockSelection = RCC_USART3CLKSOURCE_PCLK1;
 8004a56:	2300      	movs	r3, #0
 8004a58:	65fb      	str	r3, [r7, #92]	; 0x5c
    if (HAL_RCCEx_PeriphCLKConfig(&PeriphClkInitStruct) != HAL_OK)
 8004a5a:	f107 0310 	add.w	r3, r7, #16
 8004a5e:	4618      	mov	r0, r3
 8004a60:	f001 fd0c 	bl	800647c <HAL_RCCEx_PeriphCLKConfig>
 8004a64:	4603      	mov	r3, r0
 8004a66:	2b00      	cmp	r3, #0
 8004a68:	d001      	beq.n	8004a6e <HAL_UART_MspInit+0x4e>
    {
      Error_Handler();
 8004a6a:	f7ff f829 	bl	8003ac0 <Error_Handler>
    }

    /* USART3 clock enable */
    __HAL_RCC_USART3_CLK_ENABLE();
 8004a6e:	4b1e      	ldr	r3, [pc, #120]	; (8004ae8 <HAL_UART_MspInit+0xc8>)
 8004a70:	6c1b      	ldr	r3, [r3, #64]	; 0x40
 8004a72:	4a1d      	ldr	r2, [pc, #116]	; (8004ae8 <HAL_UART_MspInit+0xc8>)
 8004a74:	f443 2380 	orr.w	r3, r3, #262144	; 0x40000
 8004a78:	6413      	str	r3, [r2, #64]	; 0x40
 8004a7a:	4b1b      	ldr	r3, [pc, #108]	; (8004ae8 <HAL_UART_MspInit+0xc8>)
 8004a7c:	6c1b      	ldr	r3, [r3, #64]	; 0x40
 8004a7e:	f403 2380 	and.w	r3, r3, #262144	; 0x40000
 8004a82:	60fb      	str	r3, [r7, #12]
 8004a84:	68fb      	ldr	r3, [r7, #12]

    __HAL_RCC_GPIOD_CLK_ENABLE();
 8004a86:	4b18      	ldr	r3, [pc, #96]	; (8004ae8 <HAL_UART_MspInit+0xc8>)
 8004a88:	6b1b      	ldr	r3, [r3, #48]	; 0x30
 8004a8a:	4a17      	ldr	r2, [pc, #92]	; (8004ae8 <HAL_UART_MspInit+0xc8>)
 8004a8c:	f043 0308 	orr.w	r3, r3, #8
 8004a90:	6313      	str	r3, [r2, #48]	; 0x30
 8004a92:	4b15      	ldr	r3, [pc, #84]	; (8004ae8 <HAL_UART_MspInit+0xc8>)
 8004a94:	6b1b      	ldr	r3, [r3, #48]	; 0x30
 8004a96:	f003 0308 	and.w	r3, r3, #8
 8004a9a:	60bb      	str	r3, [r7, #8]
 8004a9c:	68bb      	ldr	r3, [r7, #8]
    /**USART3 GPIO Configuration
    PD8     ------> USART3_TX
    PD9     ------> USART3_RX
    */
    GPIO_InitStruct.Pin = STLK_RX_Pin|STLK_TX_Pin;
 8004a9e:	f44f 7340 	mov.w	r3, #768	; 0x300
 8004aa2:	f8c7 3094 	str.w	r3, [r7, #148]	; 0x94
    GPIO_InitStruct.Mode = GPIO_MODE_AF_PP;
 8004aa6:	2302      	movs	r3, #2
 8004aa8:	f8c7 3098 	str.w	r3, [r7, #152]	; 0x98
    GPIO_InitStruct.Pull = GPIO_PULLUP;
 8004aac:	2301      	movs	r3, #1
 8004aae:	f8c7 309c 	str.w	r3, [r7, #156]	; 0x9c
    GPIO_InitStruct.Speed = GPIO_SPEED_FREQ_VERY_HIGH;
 8004ab2:	2303      	movs	r3, #3
 8004ab4:	f8c7 30a0 	str.w	r3, [r7, #160]	; 0xa0
    GPIO_InitStruct.Alternate = GPIO_AF7_USART3;
 8004ab8:	2307      	movs	r3, #7
 8004aba:	f8c7 30a4 	str.w	r3, [r7, #164]	; 0xa4
    HAL_GPIO_Init(GPIOD, &GPIO_InitStruct);
 8004abe:	f107 0394 	add.w	r3, r7, #148	; 0x94
 8004ac2:	4619      	mov	r1, r3
 8004ac4:	4809      	ldr	r0, [pc, #36]	; (8004aec <HAL_UART_MspInit+0xcc>)
 8004ac6:	f000 fda7 	bl	8005618 <HAL_GPIO_Init>

    /* USART3 interrupt Init */
    HAL_NVIC_SetPriority(USART3_IRQn, 0, 0);
 8004aca:	2200      	movs	r2, #0
 8004acc:	2100      	movs	r1, #0
 8004ace:	2027      	movs	r0, #39	; 0x27
 8004ad0:	f000 fcd9 	bl	8005486 <HAL_NVIC_SetPriority>
    HAL_NVIC_EnableIRQ(USART3_IRQn);
 8004ad4:	2027      	movs	r0, #39	; 0x27
 8004ad6:	f000 fcf2 	bl	80054be <HAL_NVIC_EnableIRQ>
  /* USER CODE BEGIN USART3_MspInit 1 */

  /* USER CODE END USART3_MspInit 1 */
  }
}
 8004ada:	bf00      	nop
 8004adc:	37a8      	adds	r7, #168	; 0xa8
 8004ade:	46bd      	mov	sp, r7
 8004ae0:	bd80      	pop	{r7, pc}
 8004ae2:	bf00      	nop
 8004ae4:	40004800 	.word	0x40004800
 8004ae8:	40023800 	.word	0x40023800
 8004aec:	40020c00 	.word	0x40020c00

08004af0 <Reset_Handler>:

    .section  .text.Reset_Handler
  .weak  Reset_Handler
  .type  Reset_Handler, %function
Reset_Handler:  
  ldr   sp, =_estack      /* set stack pointer */
 8004af0:	f8df d034 	ldr.w	sp, [pc, #52]	; 8004b28 <LoopFillZerobss+0x12>

/* Copy the data segment initializers from flash to SRAM */  
  ldr r0, =_sdata
 8004af4:	480d      	ldr	r0, [pc, #52]	; (8004b2c <LoopFillZerobss+0x16>)
  ldr r1, =_edata
 8004af6:	490e      	ldr	r1, [pc, #56]	; (8004b30 <LoopFillZerobss+0x1a>)
  ldr r2, =_sidata
 8004af8:	4a0e      	ldr	r2, [pc, #56]	; (8004b34 <LoopFillZerobss+0x1e>)
  movs r3, #0
 8004afa:	2300      	movs	r3, #0
  b LoopCopyDataInit
 8004afc:	e002      	b.n	8004b04 <LoopCopyDataInit>

08004afe <CopyDataInit>:

CopyDataInit:
  ldr r4, [r2, r3]
 8004afe:	58d4      	ldr	r4, [r2, r3]
  str r4, [r0, r3]
 8004b00:	50c4      	str	r4, [r0, r3]
  adds r3, r3, #4
 8004b02:	3304      	adds	r3, #4

08004b04 <LoopCopyDataInit>:

LoopCopyDataInit:
  adds r4, r0, r3
 8004b04:	18c4      	adds	r4, r0, r3
  cmp r4, r1
 8004b06:	428c      	cmp	r4, r1
  bcc CopyDataInit
 8004b08:	d3f9      	bcc.n	8004afe <CopyDataInit>
  
/* Zero fill the bss segment. */
  ldr r2, =_sbss
 8004b0a:	4a0b      	ldr	r2, [pc, #44]	; (8004b38 <LoopFillZerobss+0x22>)
  ldr r4, =_ebss
 8004b0c:	4c0b      	ldr	r4, [pc, #44]	; (8004b3c <LoopFillZerobss+0x26>)
  movs r3, #0
 8004b0e:	2300      	movs	r3, #0
  b LoopFillZerobss
 8004b10:	e001      	b.n	8004b16 <LoopFillZerobss>

08004b12 <FillZerobss>:

FillZerobss:
  str  r3, [r2]
 8004b12:	6013      	str	r3, [r2, #0]
  adds r2, r2, #4
 8004b14:	3204      	adds	r2, #4

08004b16 <LoopFillZerobss>:

LoopFillZerobss:
  cmp r2, r4
 8004b16:	42a2      	cmp	r2, r4
  bcc FillZerobss
 8004b18:	d3fb      	bcc.n	8004b12 <FillZerobss>

/* Call the clock system initialization function.*/
  bl  SystemInit   
 8004b1a:	f7ff fc53 	bl	80043c4 <SystemInit>
/* Call static constructors */
    bl __libc_init_array
 8004b1e:	f004 fdc3 	bl	80096a8 <__libc_init_array>
/* Call the application's entry point.*/
  bl  main
 8004b22:	f7fe ff43 	bl	80039ac <main>
  bx  lr    
 8004b26:	4770      	bx	lr
  ldr   sp, =_estack      /* set stack pointer */
 8004b28:	20050000 	.word	0x20050000
  ldr r0, =_sdata
 8004b2c:	20000000 	.word	0x20000000
  ldr r1, =_edata
 8004b30:	20000190 	.word	0x20000190
  ldr r2, =_sidata
 8004b34:	080098c4 	.word	0x080098c4
  ldr r2, =_sbss
 8004b38:	20000190 	.word	0x20000190
  ldr r4, =_ebss
 8004b3c:	2000056c 	.word	0x2000056c

08004b40 <ADC_IRQHandler>:
 * @retval None       
*/
    .section  .text.Default_Handler,"ax",%progbits
Default_Handler:
Infinite_Loop:
  b  Infinite_Loop
 8004b40:	e7fe      	b.n	8004b40 <ADC_IRQHandler>

08004b42 <HAL_Init>:
  *         need to ensure that the SysTick time base is always set to 1 millisecond
  *         to have correct HAL operation.
  * @retval HAL status
  */
HAL_StatusTypeDef HAL_Init(void)
{
 8004b42:	b580      	push	{r7, lr}
 8004b44:	af00      	add	r7, sp, #0
#if (PREFETCH_ENABLE != 0U)
  __HAL_FLASH_PREFETCH_BUFFER_ENABLE();
#endif /* PREFETCH_ENABLE */

  /* Set Interrupt Group Priority */
  HAL_NVIC_SetPriorityGrouping(NVIC_PRIORITYGROUP_4);
 8004b46:	2003      	movs	r0, #3
 8004b48:	f000 fc92 	bl	8005470 <HAL_NVIC_SetPriorityGrouping>

  /* Use systick as time base source and configure 1ms tick (default clock after Reset is HSI) */
  HAL_InitTick(TICK_INT_PRIORITY);
 8004b4c:	2000      	movs	r0, #0
 8004b4e:	f000 f805 	bl	8004b5c <HAL_InitTick>

  /* Init the low level hardware */
  HAL_MspInit();
 8004b52:	f7ff fb41 	bl	80041d8 <HAL_MspInit>

  /* Return function status */
  return HAL_OK;
 8004b56:	2300      	movs	r3, #0
}
 8004b58:	4618      	mov	r0, r3
 8004b5a:	bd80      	pop	{r7, pc}

08004b5c <HAL_InitTick>:
  *       implementation  in user file.
  * @param TickPriority Tick interrupt priority.
  * @retval HAL status
  */
__weak HAL_StatusTypeDef HAL_InitTick(uint32_t TickPriority)
{
 8004b5c:	b580      	push	{r7, lr}
 8004b5e:	b082      	sub	sp, #8
 8004b60:	af00      	add	r7, sp, #0
 8004b62:	6078      	str	r0, [r7, #4]
  /* Configure the SysTick to have interrupt in 1ms time basis*/
  if (HAL_SYSTICK_Config(SystemCoreClock / (1000U / uwTickFreq)) > 0U)
 8004b64:	4b12      	ldr	r3, [pc, #72]	; (8004bb0 <HAL_InitTick+0x54>)
 8004b66:	681a      	ldr	r2, [r3, #0]
 8004b68:	4b12      	ldr	r3, [pc, #72]	; (8004bb4 <HAL_InitTick+0x58>)
 8004b6a:	781b      	ldrb	r3, [r3, #0]
 8004b6c:	4619      	mov	r1, r3
 8004b6e:	f44f 737a 	mov.w	r3, #1000	; 0x3e8
 8004b72:	fbb3 f3f1 	udiv	r3, r3, r1
 8004b76:	fbb2 f3f3 	udiv	r3, r2, r3
 8004b7a:	4618      	mov	r0, r3
 8004b7c:	f000 fcad 	bl	80054da <HAL_SYSTICK_Config>
 8004b80:	4603      	mov	r3, r0
 8004b82:	2b00      	cmp	r3, #0
 8004b84:	d001      	beq.n	8004b8a <HAL_InitTick+0x2e>
  {
    return HAL_ERROR;
 8004b86:	2301      	movs	r3, #1
 8004b88:	e00e      	b.n	8004ba8 <HAL_InitTick+0x4c>
  }

  /* Configure the SysTick IRQ priority */
  if (TickPriority < (1UL << __NVIC_PRIO_BITS))
 8004b8a:	687b      	ldr	r3, [r7, #4]
 8004b8c:	2b0f      	cmp	r3, #15
 8004b8e:	d80a      	bhi.n	8004ba6 <HAL_InitTick+0x4a>
  {
    HAL_NVIC_SetPriority(SysTick_IRQn, TickPriority, 0U);
 8004b90:	2200      	movs	r2, #0
 8004b92:	6879      	ldr	r1, [r7, #4]
 8004b94:	f04f 30ff 	mov.w	r0, #4294967295	; 0xffffffff
 8004b98:	f000 fc75 	bl	8005486 <HAL_NVIC_SetPriority>
    uwTickPrio = TickPriority;
 8004b9c:	4a06      	ldr	r2, [pc, #24]	; (8004bb8 <HAL_InitTick+0x5c>)
 8004b9e:	687b      	ldr	r3, [r7, #4]
 8004ba0:	6013      	str	r3, [r2, #0]
  {
    return HAL_ERROR;
  }

  /* Return function status */
  return HAL_OK;
 8004ba2:	2300      	movs	r3, #0
 8004ba4:	e000      	b.n	8004ba8 <HAL_InitTick+0x4c>
    return HAL_ERROR;
 8004ba6:	2301      	movs	r3, #1
}
 8004ba8:	4618      	mov	r0, r3
 8004baa:	3708      	adds	r7, #8
 8004bac:	46bd      	mov	sp, r7
 8004bae:	bd80      	pop	{r7, pc}
 8004bb0:	20000134 	.word	0x20000134
 8004bb4:	2000013c 	.word	0x2000013c
 8004bb8:	20000138 	.word	0x20000138

08004bbc <HAL_IncTick>:
 * @note This function is declared as __weak to be overwritten in case of other 
  *      implementations in user file.
  * @retval None
  */
__weak void HAL_IncTick(void)
{
 8004bbc:	b480      	push	{r7}
 8004bbe:	af00      	add	r7, sp, #0
  uwTick += uwTickFreq;
 8004bc0:	4b06      	ldr	r3, [pc, #24]	; (8004bdc <HAL_IncTick+0x20>)
 8004bc2:	781b      	ldrb	r3, [r3, #0]
 8004bc4:	461a      	mov	r2, r3
 8004bc6:	4b06      	ldr	r3, [pc, #24]	; (8004be0 <HAL_IncTick+0x24>)
 8004bc8:	681b      	ldr	r3, [r3, #0]
 8004bca:	4413      	add	r3, r2
 8004bcc:	4a04      	ldr	r2, [pc, #16]	; (8004be0 <HAL_IncTick+0x24>)
 8004bce:	6013      	str	r3, [r2, #0]
}
 8004bd0:	bf00      	nop
 8004bd2:	46bd      	mov	sp, r7
 8004bd4:	f85d 7b04 	ldr.w	r7, [sp], #4
 8004bd8:	4770      	bx	lr
 8004bda:	bf00      	nop
 8004bdc:	2000013c 	.word	0x2000013c
 8004be0:	2000041c 	.word	0x2000041c

08004be4 <HAL_GetTick>:
  * @note This function is declared as __weak to be overwritten in case of other 
  *       implementations in user file.
  * @retval tick value
  */
__weak uint32_t HAL_GetTick(void)
{
 8004be4:	b480      	push	{r7}
 8004be6:	af00      	add	r7, sp, #0
  return uwTick;
 8004be8:	4b03      	ldr	r3, [pc, #12]	; (8004bf8 <HAL_GetTick+0x14>)
 8004bea:	681b      	ldr	r3, [r3, #0]
}
 8004bec:	4618      	mov	r0, r3
 8004bee:	46bd      	mov	sp, r7
 8004bf0:	f85d 7b04 	ldr.w	r7, [sp], #4
 8004bf4:	4770      	bx	lr
 8004bf6:	bf00      	nop
 8004bf8:	2000041c 	.word	0x2000041c

08004bfc <HAL_CAN_Init>:
  * @param  hcan pointer to a CAN_HandleTypeDef structure that contains
  *         the configuration information for the specified CAN.
  * @retval HAL status
  */
HAL_StatusTypeDef HAL_CAN_Init(CAN_HandleTypeDef *hcan)
{
 8004bfc:	b580      	push	{r7, lr}
 8004bfe:	b084      	sub	sp, #16
 8004c00:	af00      	add	r7, sp, #0
 8004c02:	6078      	str	r0, [r7, #4]
  uint32_t tickstart;

  /* Check CAN handle */
  if (hcan == NULL)
 8004c04:	687b      	ldr	r3, [r7, #4]
 8004c06:	2b00      	cmp	r3, #0
 8004c08:	d101      	bne.n	8004c0e <HAL_CAN_Init+0x12>
  {
    return HAL_ERROR;
 8004c0a:	2301      	movs	r3, #1
 8004c0c:	e0ed      	b.n	8004dea <HAL_CAN_Init+0x1ee>
    /* Init the low level hardware: CLOCK, NVIC */
    hcan->MspInitCallback(hcan);
  }

#else
  if (hcan->State == HAL_CAN_STATE_RESET)
 8004c0e:	687b      	ldr	r3, [r7, #4]
 8004c10:	f893 3020 	ldrb.w	r3, [r3, #32]
 8004c14:	b2db      	uxtb	r3, r3
 8004c16:	2b00      	cmp	r3, #0
 8004c18:	d102      	bne.n	8004c20 <HAL_CAN_Init+0x24>
  {
    /* Init the low level hardware: CLOCK, NVIC */
    HAL_CAN_MspInit(hcan);
 8004c1a:	6878      	ldr	r0, [r7, #4]
 8004c1c:	f7fb fe24 	bl	8000868 <HAL_CAN_MspInit>
  }
#endif /* (USE_HAL_CAN_REGISTER_CALLBACKS) */

  /* Request initialisation */
  SET_BIT(hcan->Instance->MCR, CAN_MCR_INRQ);
 8004c20:	687b      	ldr	r3, [r7, #4]
 8004c22:	681b      	ldr	r3, [r3, #0]
 8004c24:	681a      	ldr	r2, [r3, #0]
 8004c26:	687b      	ldr	r3, [r7, #4]
 8004c28:	681b      	ldr	r3, [r3, #0]
 8004c2a:	f042 0201 	orr.w	r2, r2, #1
 8004c2e:	601a      	str	r2, [r3, #0]

  /* Get tick */
  tickstart = HAL_GetTick();
 8004c30:	f7ff ffd8 	bl	8004be4 <HAL_GetTick>
 8004c34:	60f8      	str	r0, [r7, #12]

  /* Wait initialisation acknowledge */
  while ((hcan->Instance->MSR & CAN_MSR_INAK) == 0U)
 8004c36:	e012      	b.n	8004c5e <HAL_CAN_Init+0x62>
  {
    if ((HAL_GetTick() - tickstart) > CAN_TIMEOUT_VALUE)
 8004c38:	f7ff ffd4 	bl	8004be4 <HAL_GetTick>
 8004c3c:	4602      	mov	r2, r0
 8004c3e:	68fb      	ldr	r3, [r7, #12]
 8004c40:	1ad3      	subs	r3, r2, r3
 8004c42:	2b0a      	cmp	r3, #10
 8004c44:	d90b      	bls.n	8004c5e <HAL_CAN_Init+0x62>
    {
      /* Update error code */
      hcan->ErrorCode |= HAL_CAN_ERROR_TIMEOUT;
 8004c46:	687b      	ldr	r3, [r7, #4]
 8004c48:	6a5b      	ldr	r3, [r3, #36]	; 0x24
 8004c4a:	f443 3200 	orr.w	r2, r3, #131072	; 0x20000
 8004c4e:	687b      	ldr	r3, [r7, #4]
 8004c50:	625a      	str	r2, [r3, #36]	; 0x24

      /* Change CAN state */
      hcan->State = HAL_CAN_STATE_ERROR;
 8004c52:	687b      	ldr	r3, [r7, #4]
 8004c54:	2205      	movs	r2, #5
 8004c56:	f883 2020 	strb.w	r2, [r3, #32]

      return HAL_ERROR;
 8004c5a:	2301      	movs	r3, #1
 8004c5c:	e0c5      	b.n	8004dea <HAL_CAN_Init+0x1ee>
  while ((hcan->Instance->MSR & CAN_MSR_INAK) == 0U)
 8004c5e:	687b      	ldr	r3, [r7, #4]
 8004c60:	681b      	ldr	r3, [r3, #0]
 8004c62:	685b      	ldr	r3, [r3, #4]
 8004c64:	f003 0301 	and.w	r3, r3, #1
 8004c68:	2b00      	cmp	r3, #0
 8004c6a:	d0e5      	beq.n	8004c38 <HAL_CAN_Init+0x3c>
    }
  }

  /* Exit from sleep mode */
  CLEAR_BIT(hcan->Instance->MCR, CAN_MCR_SLEEP);
 8004c6c:	687b      	ldr	r3, [r7, #4]
 8004c6e:	681b      	ldr	r3, [r3, #0]
 8004c70:	681a      	ldr	r2, [r3, #0]
 8004c72:	687b      	ldr	r3, [r7, #4]
 8004c74:	681b      	ldr	r3, [r3, #0]
 8004c76:	f022 0202 	bic.w	r2, r2, #2
 8004c7a:	601a      	str	r2, [r3, #0]

  /* Get tick */
  tickstart = HAL_GetTick();
 8004c7c:	f7ff ffb2 	bl	8004be4 <HAL_GetTick>
 8004c80:	60f8      	str	r0, [r7, #12]

  /* Check Sleep mode leave acknowledge */
  while ((hcan->Instance->MSR & CAN_MSR_SLAK) != 0U)
 8004c82:	e012      	b.n	8004caa <HAL_CAN_Init+0xae>
  {
    if ((HAL_GetTick() - tickstart) > CAN_TIMEOUT_VALUE)
 8004c84:	f7ff ffae 	bl	8004be4 <HAL_GetTick>
 8004c88:	4602      	mov	r2, r0
 8004c8a:	68fb      	ldr	r3, [r7, #12]
 8004c8c:	1ad3      	subs	r3, r2, r3
 8004c8e:	2b0a      	cmp	r3, #10
 8004c90:	d90b      	bls.n	8004caa <HAL_CAN_Init+0xae>
    {
      /* Update error code */
      hcan->ErrorCode |= HAL_CAN_ERROR_TIMEOUT;
 8004c92:	687b      	ldr	r3, [r7, #4]
 8004c94:	6a5b      	ldr	r3, [r3, #36]	; 0x24
 8004c96:	f443 3200 	orr.w	r2, r3, #131072	; 0x20000
 8004c9a:	687b      	ldr	r3, [r7, #4]
 8004c9c:	625a      	str	r2, [r3, #36]	; 0x24

      /* Change CAN state */
      hcan->State = HAL_CAN_STATE_ERROR;
 8004c9e:	687b      	ldr	r3, [r7, #4]
 8004ca0:	2205      	movs	r2, #5
 8004ca2:	f883 2020 	strb.w	r2, [r3, #32]

      return HAL_ERROR;
 8004ca6:	2301      	movs	r3, #1
 8004ca8:	e09f      	b.n	8004dea <HAL_CAN_Init+0x1ee>
  while ((hcan->Instance->MSR & CAN_MSR_SLAK) != 0U)
 8004caa:	687b      	ldr	r3, [r7, #4]
 8004cac:	681b      	ldr	r3, [r3, #0]
 8004cae:	685b      	ldr	r3, [r3, #4]
 8004cb0:	f003 0302 	and.w	r3, r3, #2
 8004cb4:	2b00      	cmp	r3, #0
 8004cb6:	d1e5      	bne.n	8004c84 <HAL_CAN_Init+0x88>
    }
  }

  /* Set the time triggered communication mode */
  if (hcan->Init.TimeTriggeredMode == ENABLE)
 8004cb8:	687b      	ldr	r3, [r7, #4]
 8004cba:	7e1b      	ldrb	r3, [r3, #24]
 8004cbc:	2b01      	cmp	r3, #1
 8004cbe:	d108      	bne.n	8004cd2 <HAL_CAN_Init+0xd6>
  {
    SET_BIT(hcan->Instance->MCR, CAN_MCR_TTCM);
 8004cc0:	687b      	ldr	r3, [r7, #4]
 8004cc2:	681b      	ldr	r3, [r3, #0]
 8004cc4:	681a      	ldr	r2, [r3, #0]
 8004cc6:	687b      	ldr	r3, [r7, #4]
 8004cc8:	681b      	ldr	r3, [r3, #0]
 8004cca:	f042 0280 	orr.w	r2, r2, #128	; 0x80
 8004cce:	601a      	str	r2, [r3, #0]
 8004cd0:	e007      	b.n	8004ce2 <HAL_CAN_Init+0xe6>
  }
  else
  {
    CLEAR_BIT(hcan->Instance->MCR, CAN_MCR_TTCM);
 8004cd2:	687b      	ldr	r3, [r7, #4]
 8004cd4:	681b      	ldr	r3, [r3, #0]
 8004cd6:	681a      	ldr	r2, [r3, #0]
 8004cd8:	687b      	ldr	r3, [r7, #4]
 8004cda:	681b      	ldr	r3, [r3, #0]
 8004cdc:	f022 0280 	bic.w	r2, r2, #128	; 0x80
 8004ce0:	601a      	str	r2, [r3, #0]
  }

  /* Set the automatic bus-off management */
  if (hcan->Init.AutoBusOff == ENABLE)
 8004ce2:	687b      	ldr	r3, [r7, #4]
 8004ce4:	7e5b      	ldrb	r3, [r3, #25]
 8004ce6:	2b01      	cmp	r3, #1
 8004ce8:	d108      	bne.n	8004cfc <HAL_CAN_Init+0x100>
  {
    SET_BIT(hcan->Instance->MCR, CAN_MCR_ABOM);
 8004cea:	687b      	ldr	r3, [r7, #4]
 8004cec:	681b      	ldr	r3, [r3, #0]
 8004cee:	681a      	ldr	r2, [r3, #0]
 8004cf0:	687b      	ldr	r3, [r7, #4]
 8004cf2:	681b      	ldr	r3, [r3, #0]
 8004cf4:	f042 0240 	orr.w	r2, r2, #64	; 0x40
 8004cf8:	601a      	str	r2, [r3, #0]
 8004cfa:	e007      	b.n	8004d0c <HAL_CAN_Init+0x110>
  }
  else
  {
    CLEAR_BIT(hcan->Instance->MCR, CAN_MCR_ABOM);
 8004cfc:	687b      	ldr	r3, [r7, #4]
 8004cfe:	681b      	ldr	r3, [r3, #0]
 8004d00:	681a      	ldr	r2, [r3, #0]
 8004d02:	687b      	ldr	r3, [r7, #4]
 8004d04:	681b      	ldr	r3, [r3, #0]
 8004d06:	f022 0240 	bic.w	r2, r2, #64	; 0x40
 8004d0a:	601a      	str	r2, [r3, #0]
  }

  /* Set the automatic wake-up mode */
  if (hcan->Init.AutoWakeUp == ENABLE)
 8004d0c:	687b      	ldr	r3, [r7, #4]
 8004d0e:	7e9b      	ldrb	r3, [r3, #26]
 8004d10:	2b01      	cmp	r3, #1
 8004d12:	d108      	bne.n	8004d26 <HAL_CAN_Init+0x12a>
  {
    SET_BIT(hcan->Instance->MCR, CAN_MCR_AWUM);
 8004d14:	687b      	ldr	r3, [r7, #4]
 8004d16:	681b      	ldr	r3, [r3, #0]
 8004d18:	681a      	ldr	r2, [r3, #0]
 8004d1a:	687b      	ldr	r3, [r7, #4]
 8004d1c:	681b      	ldr	r3, [r3, #0]
 8004d1e:	f042 0220 	orr.w	r2, r2, #32
 8004d22:	601a      	str	r2, [r3, #0]
 8004d24:	e007      	b.n	8004d36 <HAL_CAN_Init+0x13a>
  }
  else
  {
    CLEAR_BIT(hcan->Instance->MCR, CAN_MCR_AWUM);
 8004d26:	687b      	ldr	r3, [r7, #4]
 8004d28:	681b      	ldr	r3, [r3, #0]
 8004d2a:	681a      	ldr	r2, [r3, #0]
 8004d2c:	687b      	ldr	r3, [r7, #4]
 8004d2e:	681b      	ldr	r3, [r3, #0]
 8004d30:	f022 0220 	bic.w	r2, r2, #32
 8004d34:	601a      	str	r2, [r3, #0]
  }

  /* Set the automatic retransmission */
  if (hcan->Init.AutoRetransmission == ENABLE)
 8004d36:	687b      	ldr	r3, [r7, #4]
 8004d38:	7edb      	ldrb	r3, [r3, #27]
 8004d3a:	2b01      	cmp	r3, #1
 8004d3c:	d108      	bne.n	8004d50 <HAL_CAN_Init+0x154>
  {
    CLEAR_BIT(hcan->Instance->MCR, CAN_MCR_NART);
 8004d3e:	687b      	ldr	r3, [r7, #4]
 8004d40:	681b      	ldr	r3, [r3, #0]
 8004d42:	681a      	ldr	r2, [r3, #0]
 8004d44:	687b      	ldr	r3, [r7, #4]
 8004d46:	681b      	ldr	r3, [r3, #0]
 8004d48:	f022 0210 	bic.w	r2, r2, #16
 8004d4c:	601a      	str	r2, [r3, #0]
 8004d4e:	e007      	b.n	8004d60 <HAL_CAN_Init+0x164>
  }
  else
  {
    SET_BIT(hcan->Instance->MCR, CAN_MCR_NART);
 8004d50:	687b      	ldr	r3, [r7, #4]
 8004d52:	681b      	ldr	r3, [r3, #0]
 8004d54:	681a      	ldr	r2, [r3, #0]
 8004d56:	687b      	ldr	r3, [r7, #4]
 8004d58:	681b      	ldr	r3, [r3, #0]
 8004d5a:	f042 0210 	orr.w	r2, r2, #16
 8004d5e:	601a      	str	r2, [r3, #0]
  }

  /* Set the receive FIFO locked mode */
  if (hcan->Init.ReceiveFifoLocked == ENABLE)
 8004d60:	687b      	ldr	r3, [r7, #4]
 8004d62:	7f1b      	ldrb	r3, [r3, #28]
 8004d64:	2b01      	cmp	r3, #1
 8004d66:	d108      	bne.n	8004d7a <HAL_CAN_Init+0x17e>
  {
    SET_BIT(hcan->Instance->MCR, CAN_MCR_RFLM);
 8004d68:	687b      	ldr	r3, [r7, #4]
 8004d6a:	681b      	ldr	r3, [r3, #0]
 8004d6c:	681a      	ldr	r2, [r3, #0]
 8004d6e:	687b      	ldr	r3, [r7, #4]
 8004d70:	681b      	ldr	r3, [r3, #0]
 8004d72:	f042 0208 	orr.w	r2, r2, #8
 8004d76:	601a      	str	r2, [r3, #0]
 8004d78:	e007      	b.n	8004d8a <HAL_CAN_Init+0x18e>
  }
  else
  {
    CLEAR_BIT(hcan->Instance->MCR, CAN_MCR_RFLM);
 8004d7a:	687b      	ldr	r3, [r7, #4]
 8004d7c:	681b      	ldr	r3, [r3, #0]
 8004d7e:	681a      	ldr	r2, [r3, #0]
 8004d80:	687b      	ldr	r3, [r7, #4]
 8004d82:	681b      	ldr	r3, [r3, #0]
 8004d84:	f022 0208 	bic.w	r2, r2, #8
 8004d88:	601a      	str	r2, [r3, #0]
  }

  /* Set the transmit FIFO priority */
  if (hcan->Init.TransmitFifoPriority == ENABLE)
 8004d8a:	687b      	ldr	r3, [r7, #4]
 8004d8c:	7f5b      	ldrb	r3, [r3, #29]
 8004d8e:	2b01      	cmp	r3, #1
 8004d90:	d108      	bne.n	8004da4 <HAL_CAN_Init+0x1a8>
  {
    SET_BIT(hcan->Instance->MCR, CAN_MCR_TXFP);
 8004d92:	687b      	ldr	r3, [r7, #4]
 8004d94:	681b      	ldr	r3, [r3, #0]
 8004d96:	681a      	ldr	r2, [r3, #0]
 8004d98:	687b      	ldr	r3, [r7, #4]
 8004d9a:	681b      	ldr	r3, [r3, #0]
 8004d9c:	f042 0204 	orr.w	r2, r2, #4
 8004da0:	601a      	str	r2, [r3, #0]
 8004da2:	e007      	b.n	8004db4 <HAL_CAN_Init+0x1b8>
  }
  else
  {
    CLEAR_BIT(hcan->Instance->MCR, CAN_MCR_TXFP);
 8004da4:	687b      	ldr	r3, [r7, #4]
 8004da6:	681b      	ldr	r3, [r3, #0]
 8004da8:	681a      	ldr	r2, [r3, #0]
 8004daa:	687b      	ldr	r3, [r7, #4]
 8004dac:	681b      	ldr	r3, [r3, #0]
 8004dae:	f022 0204 	bic.w	r2, r2, #4
 8004db2:	601a      	str	r2, [r3, #0]
  }

  /* Set the bit timing register */
  WRITE_REG(hcan->Instance->BTR, (uint32_t)(hcan->Init.Mode           |
 8004db4:	687b      	ldr	r3, [r7, #4]
 8004db6:	689a      	ldr	r2, [r3, #8]
 8004db8:	687b      	ldr	r3, [r7, #4]
 8004dba:	68db      	ldr	r3, [r3, #12]
 8004dbc:	431a      	orrs	r2, r3
 8004dbe:	687b      	ldr	r3, [r7, #4]
 8004dc0:	691b      	ldr	r3, [r3, #16]
 8004dc2:	431a      	orrs	r2, r3
 8004dc4:	687b      	ldr	r3, [r7, #4]
 8004dc6:	695b      	ldr	r3, [r3, #20]
 8004dc8:	ea42 0103 	orr.w	r1, r2, r3
 8004dcc:	687b      	ldr	r3, [r7, #4]
 8004dce:	685b      	ldr	r3, [r3, #4]
 8004dd0:	1e5a      	subs	r2, r3, #1
 8004dd2:	687b      	ldr	r3, [r7, #4]
 8004dd4:	681b      	ldr	r3, [r3, #0]
 8004dd6:	430a      	orrs	r2, r1
 8004dd8:	61da      	str	r2, [r3, #28]
                                            hcan->Init.TimeSeg1       |
                                            hcan->Init.TimeSeg2       |
                                            (hcan->Init.Prescaler - 1U)));

  /* Initialize the error code */
  hcan->ErrorCode = HAL_CAN_ERROR_NONE;
 8004dda:	687b      	ldr	r3, [r7, #4]
 8004ddc:	2200      	movs	r2, #0
 8004dde:	625a      	str	r2, [r3, #36]	; 0x24

  /* Initialize the CAN state */
  hcan->State = HAL_CAN_STATE_READY;
 8004de0:	687b      	ldr	r3, [r7, #4]
 8004de2:	2201      	movs	r2, #1
 8004de4:	f883 2020 	strb.w	r2, [r3, #32]

  /* Return function status */
  return HAL_OK;
 8004de8:	2300      	movs	r3, #0
}
 8004dea:	4618      	mov	r0, r3
 8004dec:	3710      	adds	r7, #16
 8004dee:	46bd      	mov	sp, r7
 8004df0:	bd80      	pop	{r7, pc}
	...

08004df4 <HAL_CAN_ConfigFilter>:
  * @param  sFilterConfig pointer to a CAN_FilterTypeDef structure that
  *         contains the filter configuration information.
  * @retval None
  */
HAL_StatusTypeDef HAL_CAN_ConfigFilter(CAN_HandleTypeDef *hcan, const CAN_FilterTypeDef *sFilterConfig)
{
 8004df4:	b480      	push	{r7}
 8004df6:	b087      	sub	sp, #28
 8004df8:	af00      	add	r7, sp, #0
 8004dfa:	6078      	str	r0, [r7, #4]
 8004dfc:	6039      	str	r1, [r7, #0]
  uint32_t filternbrbitpos;
  CAN_TypeDef *can_ip = hcan->Instance;
 8004dfe:	687b      	ldr	r3, [r7, #4]
 8004e00:	681b      	ldr	r3, [r3, #0]
 8004e02:	617b      	str	r3, [r7, #20]
  HAL_CAN_StateTypeDef state = hcan->State;
 8004e04:	687b      	ldr	r3, [r7, #4]
 8004e06:	f893 3020 	ldrb.w	r3, [r3, #32]
 8004e0a:	74fb      	strb	r3, [r7, #19]

  if ((state == HAL_CAN_STATE_READY) ||
 8004e0c:	7cfb      	ldrb	r3, [r7, #19]
 8004e0e:	2b01      	cmp	r3, #1
 8004e10:	d003      	beq.n	8004e1a <HAL_CAN_ConfigFilter+0x26>
 8004e12:	7cfb      	ldrb	r3, [r7, #19]
 8004e14:	2b02      	cmp	r3, #2
 8004e16:	f040 80be 	bne.w	8004f96 <HAL_CAN_ConfigFilter+0x1a2>
      assert_param(IS_CAN_FILTER_BANK_DUAL(sFilterConfig->SlaveStartFilterBank));
    }
#elif defined(CAN2)
    /* CAN1 and CAN2 are dual instances with 28 common filters banks */
    /* Select master instance to access the filter banks */
    can_ip = CAN1;
 8004e1a:	4b65      	ldr	r3, [pc, #404]	; (8004fb0 <HAL_CAN_ConfigFilter+0x1bc>)
 8004e1c:	617b      	str	r3, [r7, #20]
    /* Check the parameters */
    assert_param(IS_CAN_FILTER_BANK_SINGLE(sFilterConfig->FilterBank));
#endif

    /* Initialisation mode for the filter */
    SET_BIT(can_ip->FMR, CAN_FMR_FINIT);
 8004e1e:	697b      	ldr	r3, [r7, #20]
 8004e20:	f8d3 3200 	ldr.w	r3, [r3, #512]	; 0x200
 8004e24:	f043 0201 	orr.w	r2, r3, #1
 8004e28:	697b      	ldr	r3, [r7, #20]
 8004e2a:	f8c3 2200 	str.w	r2, [r3, #512]	; 0x200
      SET_BIT(can_ip->FMR, sFilterConfig->SlaveStartFilterBank << CAN_FMR_CAN2SB_Pos);
    }

#elif defined(CAN2)
    /* Select the start filter number of CAN2 slave instance */
    CLEAR_BIT(can_ip->FMR, CAN_FMR_CAN2SB);
 8004e2e:	697b      	ldr	r3, [r7, #20]
 8004e30:	f8d3 3200 	ldr.w	r3, [r3, #512]	; 0x200
 8004e34:	f423 527c 	bic.w	r2, r3, #16128	; 0x3f00
 8004e38:	697b      	ldr	r3, [r7, #20]
 8004e3a:	f8c3 2200 	str.w	r2, [r3, #512]	; 0x200
    SET_BIT(can_ip->FMR, sFilterConfig->SlaveStartFilterBank << CAN_FMR_CAN2SB_Pos);
 8004e3e:	697b      	ldr	r3, [r7, #20]
 8004e40:	f8d3 2200 	ldr.w	r2, [r3, #512]	; 0x200
 8004e44:	683b      	ldr	r3, [r7, #0]
 8004e46:	6a5b      	ldr	r3, [r3, #36]	; 0x24
 8004e48:	021b      	lsls	r3, r3, #8
 8004e4a:	431a      	orrs	r2, r3
 8004e4c:	697b      	ldr	r3, [r7, #20]
 8004e4e:	f8c3 2200 	str.w	r2, [r3, #512]	; 0x200

#endif
    /* Convert filter number into bit position */
    filternbrbitpos = (uint32_t)1 << (sFilterConfig->FilterBank & 0x1FU);
 8004e52:	683b      	ldr	r3, [r7, #0]
 8004e54:	695b      	ldr	r3, [r3, #20]
 8004e56:	f003 031f 	and.w	r3, r3, #31
 8004e5a:	2201      	movs	r2, #1
 8004e5c:	fa02 f303 	lsl.w	r3, r2, r3
 8004e60:	60fb      	str	r3, [r7, #12]

    /* Filter Deactivation */
    CLEAR_BIT(can_ip->FA1R, filternbrbitpos);
 8004e62:	697b      	ldr	r3, [r7, #20]
 8004e64:	f8d3 221c 	ldr.w	r2, [r3, #540]	; 0x21c
 8004e68:	68fb      	ldr	r3, [r7, #12]
 8004e6a:	43db      	mvns	r3, r3
 8004e6c:	401a      	ands	r2, r3
 8004e6e:	697b      	ldr	r3, [r7, #20]
 8004e70:	f8c3 221c 	str.w	r2, [r3, #540]	; 0x21c

    /* Filter Scale */
    if (sFilterConfig->FilterScale == CAN_FILTERSCALE_16BIT)
 8004e74:	683b      	ldr	r3, [r7, #0]
 8004e76:	69db      	ldr	r3, [r3, #28]
 8004e78:	2b00      	cmp	r3, #0
 8004e7a:	d123      	bne.n	8004ec4 <HAL_CAN_ConfigFilter+0xd0>
    {
      /* 16-bit scale for the filter */
      CLEAR_BIT(can_ip->FS1R, filternbrbitpos);
 8004e7c:	697b      	ldr	r3, [r7, #20]
 8004e7e:	f8d3 220c 	ldr.w	r2, [r3, #524]	; 0x20c
 8004e82:	68fb      	ldr	r3, [r7, #12]
 8004e84:	43db      	mvns	r3, r3
 8004e86:	401a      	ands	r2, r3
 8004e88:	697b      	ldr	r3, [r7, #20]
 8004e8a:	f8c3 220c 	str.w	r2, [r3, #524]	; 0x20c

      /* First 16-bit identifier and First 16-bit mask */
      /* Or First 16-bit identifier and Second 16-bit identifier */
      can_ip->sFilterRegister[sFilterConfig->FilterBank].FR1 =
        ((0x0000FFFFU & (uint32_t)sFilterConfig->FilterMaskIdLow) << 16U) |
 8004e8e:	683b      	ldr	r3, [r7, #0]
 8004e90:	68db      	ldr	r3, [r3, #12]
 8004e92:	0419      	lsls	r1, r3, #16
        (0x0000FFFFU & (uint32_t)sFilterConfig->FilterIdLow);
 8004e94:	683b      	ldr	r3, [r7, #0]
 8004e96:	685b      	ldr	r3, [r3, #4]
 8004e98:	b29b      	uxth	r3, r3
      can_ip->sFilterRegister[sFilterConfig->FilterBank].FR1 =
 8004e9a:	683a      	ldr	r2, [r7, #0]
 8004e9c:	6952      	ldr	r2, [r2, #20]
        ((0x0000FFFFU & (uint32_t)sFilterConfig->FilterMaskIdLow) << 16U) |
 8004e9e:	4319      	orrs	r1, r3
      can_ip->sFilterRegister[sFilterConfig->FilterBank].FR1 =
 8004ea0:	697b      	ldr	r3, [r7, #20]
 8004ea2:	3248      	adds	r2, #72	; 0x48
 8004ea4:	f843 1032 	str.w	r1, [r3, r2, lsl #3]

      /* Second 16-bit identifier and Second 16-bit mask */
      /* Or Third 16-bit identifier and Fourth 16-bit identifier */
      can_ip->sFilterRegister[sFilterConfig->FilterBank].FR2 =
        ((0x0000FFFFU & (uint32_t)sFilterConfig->FilterMaskIdHigh) << 16U) |
 8004ea8:	683b      	ldr	r3, [r7, #0]
 8004eaa:	689b      	ldr	r3, [r3, #8]
 8004eac:	0419      	lsls	r1, r3, #16
        (0x0000FFFFU & (uint32_t)sFilterConfig->FilterIdHigh);
 8004eae:	683b      	ldr	r3, [r7, #0]
 8004eb0:	681b      	ldr	r3, [r3, #0]
 8004eb2:	b29a      	uxth	r2, r3
      can_ip->sFilterRegister[sFilterConfig->FilterBank].FR2 =
 8004eb4:	683b      	ldr	r3, [r7, #0]
 8004eb6:	695b      	ldr	r3, [r3, #20]
        ((0x0000FFFFU & (uint32_t)sFilterConfig->FilterMaskIdHigh) << 16U) |
 8004eb8:	430a      	orrs	r2, r1
      can_ip->sFilterRegister[sFilterConfig->FilterBank].FR2 =
 8004eba:	6979      	ldr	r1, [r7, #20]
 8004ebc:	3348      	adds	r3, #72	; 0x48
 8004ebe:	00db      	lsls	r3, r3, #3
 8004ec0:	440b      	add	r3, r1
 8004ec2:	605a      	str	r2, [r3, #4]
    }

    if (sFilterConfig->FilterScale == CAN_FILTERSCALE_32BIT)
 8004ec4:	683b      	ldr	r3, [r7, #0]
 8004ec6:	69db      	ldr	r3, [r3, #28]
 8004ec8:	2b01      	cmp	r3, #1
 8004eca:	d122      	bne.n	8004f12 <HAL_CAN_ConfigFilter+0x11e>
    {
      /* 32-bit scale for the filter */
      SET_BIT(can_ip->FS1R, filternbrbitpos);
 8004ecc:	697b      	ldr	r3, [r7, #20]
 8004ece:	f8d3 220c 	ldr.w	r2, [r3, #524]	; 0x20c
 8004ed2:	68fb      	ldr	r3, [r7, #12]
 8004ed4:	431a      	orrs	r2, r3
 8004ed6:	697b      	ldr	r3, [r7, #20]
 8004ed8:	f8c3 220c 	str.w	r2, [r3, #524]	; 0x20c

      /* 32-bit identifier or First 32-bit identifier */
      can_ip->sFilterRegister[sFilterConfig->FilterBank].FR1 =
        ((0x0000FFFFU & (uint32_t)sFilterConfig->FilterIdHigh) << 16U) |
 8004edc:	683b      	ldr	r3, [r7, #0]
 8004ede:	681b      	ldr	r3, [r3, #0]
 8004ee0:	0419      	lsls	r1, r3, #16
        (0x0000FFFFU & (uint32_t)sFilterConfig->FilterIdLow);
 8004ee2:	683b      	ldr	r3, [r7, #0]
 8004ee4:	685b      	ldr	r3, [r3, #4]
 8004ee6:	b29b      	uxth	r3, r3
      can_ip->sFilterRegister[sFilterConfig->FilterBank].FR1 =
 8004ee8:	683a      	ldr	r2, [r7, #0]
 8004eea:	6952      	ldr	r2, [r2, #20]
        ((0x0000FFFFU & (uint32_t)sFilterConfig->FilterIdHigh) << 16U) |
 8004eec:	4319      	orrs	r1, r3
      can_ip->sFilterRegister[sFilterConfig->FilterBank].FR1 =
 8004eee:	697b      	ldr	r3, [r7, #20]
 8004ef0:	3248      	adds	r2, #72	; 0x48
 8004ef2:	f843 1032 	str.w	r1, [r3, r2, lsl #3]

      /* 32-bit mask or Second 32-bit identifier */
      can_ip->sFilterRegister[sFilterConfig->FilterBank].FR2 =
        ((0x0000FFFFU & (uint32_t)sFilterConfig->FilterMaskIdHigh) << 16U) |
 8004ef6:	683b      	ldr	r3, [r7, #0]
 8004ef8:	689b      	ldr	r3, [r3, #8]
 8004efa:	0419      	lsls	r1, r3, #16
        (0x0000FFFFU & (uint32_t)sFilterConfig->FilterMaskIdLow);
 8004efc:	683b      	ldr	r3, [r7, #0]
 8004efe:	68db      	ldr	r3, [r3, #12]
 8004f00:	b29a      	uxth	r2, r3
      can_ip->sFilterRegister[sFilterConfig->FilterBank].FR2 =
 8004f02:	683b      	ldr	r3, [r7, #0]
 8004f04:	695b      	ldr	r3, [r3, #20]
        ((0x0000FFFFU & (uint32_t)sFilterConfig->FilterMaskIdHigh) << 16U) |
 8004f06:	430a      	orrs	r2, r1
      can_ip->sFilterRegister[sFilterConfig->FilterBank].FR2 =
 8004f08:	6979      	ldr	r1, [r7, #20]
 8004f0a:	3348      	adds	r3, #72	; 0x48
 8004f0c:	00db      	lsls	r3, r3, #3
 8004f0e:	440b      	add	r3, r1
 8004f10:	605a      	str	r2, [r3, #4]
    }

    /* Filter Mode */
    if (sFilterConfig->FilterMode == CAN_FILTERMODE_IDMASK)
 8004f12:	683b      	ldr	r3, [r7, #0]
 8004f14:	699b      	ldr	r3, [r3, #24]
 8004f16:	2b00      	cmp	r3, #0
 8004f18:	d109      	bne.n	8004f2e <HAL_CAN_ConfigFilter+0x13a>
    {
      /* Id/Mask mode for the filter*/
      CLEAR_BIT(can_ip->FM1R, filternbrbitpos);
 8004f1a:	697b      	ldr	r3, [r7, #20]
 8004f1c:	f8d3 2204 	ldr.w	r2, [r3, #516]	; 0x204
 8004f20:	68fb      	ldr	r3, [r7, #12]
 8004f22:	43db      	mvns	r3, r3
 8004f24:	401a      	ands	r2, r3
 8004f26:	697b      	ldr	r3, [r7, #20]
 8004f28:	f8c3 2204 	str.w	r2, [r3, #516]	; 0x204
 8004f2c:	e007      	b.n	8004f3e <HAL_CAN_ConfigFilter+0x14a>
    }
    else /* CAN_FilterInitStruct->CAN_FilterMode == CAN_FilterMode_IdList */
    {
      /* Identifier list mode for the filter*/
      SET_BIT(can_ip->FM1R, filternbrbitpos);
 8004f2e:	697b      	ldr	r3, [r7, #20]
 8004f30:	f8d3 2204 	ldr.w	r2, [r3, #516]	; 0x204
 8004f34:	68fb      	ldr	r3, [r7, #12]
 8004f36:	431a      	orrs	r2, r3
 8004f38:	697b      	ldr	r3, [r7, #20]
 8004f3a:	f8c3 2204 	str.w	r2, [r3, #516]	; 0x204
    }

    /* Filter FIFO assignment */
    if (sFilterConfig->FilterFIFOAssignment == CAN_FILTER_FIFO0)
 8004f3e:	683b      	ldr	r3, [r7, #0]
 8004f40:	691b      	ldr	r3, [r3, #16]
 8004f42:	2b00      	cmp	r3, #0
 8004f44:	d109      	bne.n	8004f5a <HAL_CAN_ConfigFilter+0x166>
    {
      /* FIFO 0 assignation for the filter */
      CLEAR_BIT(can_ip->FFA1R, filternbrbitpos);
 8004f46:	697b      	ldr	r3, [r7, #20]
 8004f48:	f8d3 2214 	ldr.w	r2, [r3, #532]	; 0x214
 8004f4c:	68fb      	ldr	r3, [r7, #12]
 8004f4e:	43db      	mvns	r3, r3
 8004f50:	401a      	ands	r2, r3
 8004f52:	697b      	ldr	r3, [r7, #20]
 8004f54:	f8c3 2214 	str.w	r2, [r3, #532]	; 0x214
 8004f58:	e007      	b.n	8004f6a <HAL_CAN_ConfigFilter+0x176>
    }
    else
    {
      /* FIFO 1 assignation for the filter */
      SET_BIT(can_ip->FFA1R, filternbrbitpos);
 8004f5a:	697b      	ldr	r3, [r7, #20]
 8004f5c:	f8d3 2214 	ldr.w	r2, [r3, #532]	; 0x214
 8004f60:	68fb      	ldr	r3, [r7, #12]
 8004f62:	431a      	orrs	r2, r3
 8004f64:	697b      	ldr	r3, [r7, #20]
 8004f66:	f8c3 2214 	str.w	r2, [r3, #532]	; 0x214
    }

    /* Filter activation */
    if (sFilterConfig->FilterActivation == CAN_FILTER_ENABLE)
 8004f6a:	683b      	ldr	r3, [r7, #0]
 8004f6c:	6a1b      	ldr	r3, [r3, #32]
 8004f6e:	2b01      	cmp	r3, #1
 8004f70:	d107      	bne.n	8004f82 <HAL_CAN_ConfigFilter+0x18e>
    {
      SET_BIT(can_ip->FA1R, filternbrbitpos);
 8004f72:	697b      	ldr	r3, [r7, #20]
 8004f74:	f8d3 221c 	ldr.w	r2, [r3, #540]	; 0x21c
 8004f78:	68fb      	ldr	r3, [r7, #12]
 8004f7a:	431a      	orrs	r2, r3
 8004f7c:	697b      	ldr	r3, [r7, #20]
 8004f7e:	f8c3 221c 	str.w	r2, [r3, #540]	; 0x21c
    }

    /* Leave the initialisation mode for the filter */
    CLEAR_BIT(can_ip->FMR, CAN_FMR_FINIT);
 8004f82:	697b      	ldr	r3, [r7, #20]
 8004f84:	f8d3 3200 	ldr.w	r3, [r3, #512]	; 0x200
 8004f88:	f023 0201 	bic.w	r2, r3, #1
 8004f8c:	697b      	ldr	r3, [r7, #20]
 8004f8e:	f8c3 2200 	str.w	r2, [r3, #512]	; 0x200

    /* Return function status */
    return HAL_OK;
 8004f92:	2300      	movs	r3, #0
 8004f94:	e006      	b.n	8004fa4 <HAL_CAN_ConfigFilter+0x1b0>
  }
  else
  {
    /* Update error code */
    hcan->ErrorCode |= HAL_CAN_ERROR_NOT_INITIALIZED;
 8004f96:	687b      	ldr	r3, [r7, #4]
 8004f98:	6a5b      	ldr	r3, [r3, #36]	; 0x24
 8004f9a:	f443 2280 	orr.w	r2, r3, #262144	; 0x40000
 8004f9e:	687b      	ldr	r3, [r7, #4]
 8004fa0:	625a      	str	r2, [r3, #36]	; 0x24

    return HAL_ERROR;
 8004fa2:	2301      	movs	r3, #1
  }
}
 8004fa4:	4618      	mov	r0, r3
 8004fa6:	371c      	adds	r7, #28
 8004fa8:	46bd      	mov	sp, r7
 8004faa:	f85d 7b04 	ldr.w	r7, [sp], #4
 8004fae:	4770      	bx	lr
 8004fb0:	40006400 	.word	0x40006400

08004fb4 <HAL_CAN_Start>:
  * @param  hcan pointer to an CAN_HandleTypeDef structure that contains
  *         the configuration information for the specified CAN.
  * @retval HAL status
  */
HAL_StatusTypeDef HAL_CAN_Start(CAN_HandleTypeDef *hcan)
{
 8004fb4:	b580      	push	{r7, lr}
 8004fb6:	b084      	sub	sp, #16
 8004fb8:	af00      	add	r7, sp, #0
 8004fba:	6078      	str	r0, [r7, #4]
  uint32_t tickstart;

  if (hcan->State == HAL_CAN_STATE_READY)
 8004fbc:	687b      	ldr	r3, [r7, #4]
 8004fbe:	f893 3020 	ldrb.w	r3, [r3, #32]
 8004fc2:	b2db      	uxtb	r3, r3
 8004fc4:	2b01      	cmp	r3, #1
 8004fc6:	d12e      	bne.n	8005026 <HAL_CAN_Start+0x72>
  {
    /* Change CAN peripheral state */
    hcan->State = HAL_CAN_STATE_LISTENING;
 8004fc8:	687b      	ldr	r3, [r7, #4]
 8004fca:	2202      	movs	r2, #2
 8004fcc:	f883 2020 	strb.w	r2, [r3, #32]

    /* Request leave initialisation */
    CLEAR_BIT(hcan->Instance->MCR, CAN_MCR_INRQ);
 8004fd0:	687b      	ldr	r3, [r7, #4]
 8004fd2:	681b      	ldr	r3, [r3, #0]
 8004fd4:	681a      	ldr	r2, [r3, #0]
 8004fd6:	687b      	ldr	r3, [r7, #4]
 8004fd8:	681b      	ldr	r3, [r3, #0]
 8004fda:	f022 0201 	bic.w	r2, r2, #1
 8004fde:	601a      	str	r2, [r3, #0]

    /* Get tick */
    tickstart = HAL_GetTick();
 8004fe0:	f7ff fe00 	bl	8004be4 <HAL_GetTick>
 8004fe4:	60f8      	str	r0, [r7, #12]

    /* Wait the acknowledge */
    while ((hcan->Instance->MSR & CAN_MSR_INAK) != 0U)
 8004fe6:	e012      	b.n	800500e <HAL_CAN_Start+0x5a>
    {
      /* Check for the Timeout */
      if ((HAL_GetTick() - tickstart) > CAN_TIMEOUT_VALUE)
 8004fe8:	f7ff fdfc 	bl	8004be4 <HAL_GetTick>
 8004fec:	4602      	mov	r2, r0
 8004fee:	68fb      	ldr	r3, [r7, #12]
 8004ff0:	1ad3      	subs	r3, r2, r3
 8004ff2:	2b0a      	cmp	r3, #10
 8004ff4:	d90b      	bls.n	800500e <HAL_CAN_Start+0x5a>
      {
        /* Update error code */
        hcan->ErrorCode |= HAL_CAN_ERROR_TIMEOUT;
 8004ff6:	687b      	ldr	r3, [r7, #4]
 8004ff8:	6a5b      	ldr	r3, [r3, #36]	; 0x24
 8004ffa:	f443 3200 	orr.w	r2, r3, #131072	; 0x20000
 8004ffe:	687b      	ldr	r3, [r7, #4]
 8005000:	625a      	str	r2, [r3, #36]	; 0x24

        /* Change CAN state */
        hcan->State = HAL_CAN_STATE_ERROR;
 8005002:	687b      	ldr	r3, [r7, #4]
 8005004:	2205      	movs	r2, #5
 8005006:	f883 2020 	strb.w	r2, [r3, #32]

        return HAL_ERROR;
 800500a:	2301      	movs	r3, #1
 800500c:	e012      	b.n	8005034 <HAL_CAN_Start+0x80>
    while ((hcan->Instance->MSR & CAN_MSR_INAK) != 0U)
 800500e:	687b      	ldr	r3, [r7, #4]
 8005010:	681b      	ldr	r3, [r3, #0]
 8005012:	685b      	ldr	r3, [r3, #4]
 8005014:	f003 0301 	and.w	r3, r3, #1
 8005018:	2b00      	cmp	r3, #0
 800501a:	d1e5      	bne.n	8004fe8 <HAL_CAN_Start+0x34>
      }
    }

    /* Reset the CAN ErrorCode */
    hcan->ErrorCode = HAL_CAN_ERROR_NONE;
 800501c:	687b      	ldr	r3, [r7, #4]
 800501e:	2200      	movs	r2, #0
 8005020:	625a      	str	r2, [r3, #36]	; 0x24

    /* Return function status */
    return HAL_OK;
 8005022:	2300      	movs	r3, #0
 8005024:	e006      	b.n	8005034 <HAL_CAN_Start+0x80>
  }
  else
  {
    /* Update error code */
    hcan->ErrorCode |= HAL_CAN_ERROR_NOT_READY;
 8005026:	687b      	ldr	r3, [r7, #4]
 8005028:	6a5b      	ldr	r3, [r3, #36]	; 0x24
 800502a:	f443 2200 	orr.w	r2, r3, #524288	; 0x80000
 800502e:	687b      	ldr	r3, [r7, #4]
 8005030:	625a      	str	r2, [r3, #36]	; 0x24

    return HAL_ERROR;
 8005032:	2301      	movs	r3, #1
  }
}
 8005034:	4618      	mov	r0, r3
 8005036:	3710      	adds	r7, #16
 8005038:	46bd      	mov	sp, r7
 800503a:	bd80      	pop	{r7, pc}

0800503c <HAL_CAN_AddTxMessage>:
  *         This parameter can be a value of @arg CAN_Tx_Mailboxes.
  * @retval HAL status
  */
HAL_StatusTypeDef HAL_CAN_AddTxMessage(CAN_HandleTypeDef *hcan, const CAN_TxHeaderTypeDef *pHeader,
                                       const uint8_t aData[], uint32_t *pTxMailbox)
{
 800503c:	b480      	push	{r7}
 800503e:	b089      	sub	sp, #36	; 0x24
 8005040:	af00      	add	r7, sp, #0
 8005042:	60f8      	str	r0, [r7, #12]
 8005044:	60b9      	str	r1, [r7, #8]
 8005046:	607a      	str	r2, [r7, #4]
 8005048:	603b      	str	r3, [r7, #0]
  uint32_t transmitmailbox;
  HAL_CAN_StateTypeDef state = hcan->State;
 800504a:	68fb      	ldr	r3, [r7, #12]
 800504c:	f893 3020 	ldrb.w	r3, [r3, #32]
 8005050:	77fb      	strb	r3, [r7, #31]
  uint32_t tsr = READ_REG(hcan->Instance->TSR);
 8005052:	68fb      	ldr	r3, [r7, #12]
 8005054:	681b      	ldr	r3, [r3, #0]
 8005056:	689b      	ldr	r3, [r3, #8]
 8005058:	61bb      	str	r3, [r7, #24]
  {
    assert_param(IS_CAN_EXTID(pHeader->ExtId));
  }
  assert_param(IS_FUNCTIONAL_STATE(pHeader->TransmitGlobalTime));

  if ((state == HAL_CAN_STATE_READY) ||
 800505a:	7ffb      	ldrb	r3, [r7, #31]
 800505c:	2b01      	cmp	r3, #1
 800505e:	d003      	beq.n	8005068 <HAL_CAN_AddTxMessage+0x2c>
 8005060:	7ffb      	ldrb	r3, [r7, #31]
 8005062:	2b02      	cmp	r3, #2
 8005064:	f040 80ad 	bne.w	80051c2 <HAL_CAN_AddTxMessage+0x186>
      (state == HAL_CAN_STATE_LISTENING))
  {
    /* Check that all the Tx mailboxes are not full */
    if (((tsr & CAN_TSR_TME0) != 0U) ||
 8005068:	69bb      	ldr	r3, [r7, #24]
 800506a:	f003 6380 	and.w	r3, r3, #67108864	; 0x4000000
 800506e:	2b00      	cmp	r3, #0
 8005070:	d10a      	bne.n	8005088 <HAL_CAN_AddTxMessage+0x4c>
        ((tsr & CAN_TSR_TME1) != 0U) ||
 8005072:	69bb      	ldr	r3, [r7, #24]
 8005074:	f003 6300 	and.w	r3, r3, #134217728	; 0x8000000
    if (((tsr & CAN_TSR_TME0) != 0U) ||
 8005078:	2b00      	cmp	r3, #0
 800507a:	d105      	bne.n	8005088 <HAL_CAN_AddTxMessage+0x4c>
        ((tsr & CAN_TSR_TME2) != 0U))
 800507c:	69bb      	ldr	r3, [r7, #24]
 800507e:	f003 5380 	and.w	r3, r3, #268435456	; 0x10000000
        ((tsr & CAN_TSR_TME1) != 0U) ||
 8005082:	2b00      	cmp	r3, #0
 8005084:	f000 8095 	beq.w	80051b2 <HAL_CAN_AddTxMessage+0x176>
    {
      /* Select an empty transmit mailbox */
      transmitmailbox = (tsr & CAN_TSR_CODE) >> CAN_TSR_CODE_Pos;
 8005088:	69bb      	ldr	r3, [r7, #24]
 800508a:	0e1b      	lsrs	r3, r3, #24
 800508c:	f003 0303 	and.w	r3, r3, #3
 8005090:	617b      	str	r3, [r7, #20]

      /* Store the Tx mailbox */
      *pTxMailbox = (uint32_t)1 << transmitmailbox;
 8005092:	2201      	movs	r2, #1
 8005094:	697b      	ldr	r3, [r7, #20]
 8005096:	409a      	lsls	r2, r3
 8005098:	683b      	ldr	r3, [r7, #0]
 800509a:	601a      	str	r2, [r3, #0]

      /* Set up the Id */
      if (pHeader->IDE == CAN_ID_STD)
 800509c:	68bb      	ldr	r3, [r7, #8]
 800509e:	689b      	ldr	r3, [r3, #8]
 80050a0:	2b00      	cmp	r3, #0
 80050a2:	d10d      	bne.n	80050c0 <HAL_CAN_AddTxMessage+0x84>
      {
        hcan->Instance->sTxMailBox[transmitmailbox].TIR = ((pHeader->StdId << CAN_TI0R_STID_Pos) |
 80050a4:	68bb      	ldr	r3, [r7, #8]
 80050a6:	681b      	ldr	r3, [r3, #0]
 80050a8:	055a      	lsls	r2, r3, #21
                                                           pHeader->RTR);
 80050aa:	68bb      	ldr	r3, [r7, #8]
 80050ac:	68db      	ldr	r3, [r3, #12]
        hcan->Instance->sTxMailBox[transmitmailbox].TIR = ((pHeader->StdId << CAN_TI0R_STID_Pos) |
 80050ae:	68f9      	ldr	r1, [r7, #12]
 80050b0:	6809      	ldr	r1, [r1, #0]
 80050b2:	431a      	orrs	r2, r3
 80050b4:	697b      	ldr	r3, [r7, #20]
 80050b6:	3318      	adds	r3, #24
 80050b8:	011b      	lsls	r3, r3, #4
 80050ba:	440b      	add	r3, r1
 80050bc:	601a      	str	r2, [r3, #0]
 80050be:	e00f      	b.n	80050e0 <HAL_CAN_AddTxMessage+0xa4>
      }
      else
      {
        hcan->Instance->sTxMailBox[transmitmailbox].TIR = ((pHeader->ExtId << CAN_TI0R_EXID_Pos) |
 80050c0:	68bb      	ldr	r3, [r7, #8]
 80050c2:	685b      	ldr	r3, [r3, #4]
 80050c4:	00da      	lsls	r2, r3, #3
                                                           pHeader->IDE |
 80050c6:	68bb      	ldr	r3, [r7, #8]
 80050c8:	689b      	ldr	r3, [r3, #8]
        hcan->Instance->sTxMailBox[transmitmailbox].TIR = ((pHeader->ExtId << CAN_TI0R_EXID_Pos) |
 80050ca:	431a      	orrs	r2, r3
                                                           pHeader->RTR);
 80050cc:	68bb      	ldr	r3, [r7, #8]
 80050ce:	68db      	ldr	r3, [r3, #12]
        hcan->Instance->sTxMailBox[transmitmailbox].TIR = ((pHeader->ExtId << CAN_TI0R_EXID_Pos) |
 80050d0:	68f9      	ldr	r1, [r7, #12]
 80050d2:	6809      	ldr	r1, [r1, #0]
                                                           pHeader->IDE |
 80050d4:	431a      	orrs	r2, r3
        hcan->Instance->sTxMailBox[transmitmailbox].TIR = ((pHeader->ExtId << CAN_TI0R_EXID_Pos) |
 80050d6:	697b      	ldr	r3, [r7, #20]
 80050d8:	3318      	adds	r3, #24
 80050da:	011b      	lsls	r3, r3, #4
 80050dc:	440b      	add	r3, r1
 80050de:	601a      	str	r2, [r3, #0]
      }

      /* Set up the DLC */
      hcan->Instance->sTxMailBox[transmitmailbox].TDTR = (pHeader->DLC);
 80050e0:	68fb      	ldr	r3, [r7, #12]
 80050e2:	6819      	ldr	r1, [r3, #0]
 80050e4:	68bb      	ldr	r3, [r7, #8]
 80050e6:	691a      	ldr	r2, [r3, #16]
 80050e8:	697b      	ldr	r3, [r7, #20]
 80050ea:	3318      	adds	r3, #24
 80050ec:	011b      	lsls	r3, r3, #4
 80050ee:	440b      	add	r3, r1
 80050f0:	3304      	adds	r3, #4
 80050f2:	601a      	str	r2, [r3, #0]

      /* Set up the Transmit Global Time mode */
      if (pHeader->TransmitGlobalTime == ENABLE)
 80050f4:	68bb      	ldr	r3, [r7, #8]
 80050f6:	7d1b      	ldrb	r3, [r3, #20]
 80050f8:	2b01      	cmp	r3, #1
 80050fa:	d111      	bne.n	8005120 <HAL_CAN_AddTxMessage+0xe4>
      {
        SET_BIT(hcan->Instance->sTxMailBox[transmitmailbox].TDTR, CAN_TDT0R_TGT);
 80050fc:	68fb      	ldr	r3, [r7, #12]
 80050fe:	681a      	ldr	r2, [r3, #0]
 8005100:	697b      	ldr	r3, [r7, #20]
 8005102:	3318      	adds	r3, #24
 8005104:	011b      	lsls	r3, r3, #4
 8005106:	4413      	add	r3, r2
 8005108:	3304      	adds	r3, #4
 800510a:	681b      	ldr	r3, [r3, #0]
 800510c:	68fa      	ldr	r2, [r7, #12]
 800510e:	6811      	ldr	r1, [r2, #0]
 8005110:	f443 7280 	orr.w	r2, r3, #256	; 0x100
 8005114:	697b      	ldr	r3, [r7, #20]
 8005116:	3318      	adds	r3, #24
 8005118:	011b      	lsls	r3, r3, #4
 800511a:	440b      	add	r3, r1
 800511c:	3304      	adds	r3, #4
 800511e:	601a      	str	r2, [r3, #0]
      }

      /* Set up the data field */
      WRITE_REG(hcan->Instance->sTxMailBox[transmitmailbox].TDHR,
 8005120:	687b      	ldr	r3, [r7, #4]
 8005122:	3307      	adds	r3, #7
 8005124:	781b      	ldrb	r3, [r3, #0]
 8005126:	061a      	lsls	r2, r3, #24
 8005128:	687b      	ldr	r3, [r7, #4]
 800512a:	3306      	adds	r3, #6
 800512c:	781b      	ldrb	r3, [r3, #0]
 800512e:	041b      	lsls	r3, r3, #16
 8005130:	431a      	orrs	r2, r3
 8005132:	687b      	ldr	r3, [r7, #4]
 8005134:	3305      	adds	r3, #5
 8005136:	781b      	ldrb	r3, [r3, #0]
 8005138:	021b      	lsls	r3, r3, #8
 800513a:	4313      	orrs	r3, r2
 800513c:	687a      	ldr	r2, [r7, #4]
 800513e:	3204      	adds	r2, #4
 8005140:	7812      	ldrb	r2, [r2, #0]
 8005142:	4610      	mov	r0, r2
 8005144:	68fa      	ldr	r2, [r7, #12]
 8005146:	6811      	ldr	r1, [r2, #0]
 8005148:	ea43 0200 	orr.w	r2, r3, r0
 800514c:	697b      	ldr	r3, [r7, #20]
 800514e:	011b      	lsls	r3, r3, #4
 8005150:	440b      	add	r3, r1
 8005152:	f503 73c6 	add.w	r3, r3, #396	; 0x18c
 8005156:	601a      	str	r2, [r3, #0]
                ((uint32_t)aData[7] << CAN_TDH0R_DATA7_Pos) |
                ((uint32_t)aData[6] << CAN_TDH0R_DATA6_Pos) |
                ((uint32_t)aData[5] << CAN_TDH0R_DATA5_Pos) |
                ((uint32_t)aData[4] << CAN_TDH0R_DATA4_Pos));
      WRITE_REG(hcan->Instance->sTxMailBox[transmitmailbox].TDLR,
 8005158:	687b      	ldr	r3, [r7, #4]
 800515a:	3303      	adds	r3, #3
 800515c:	781b      	ldrb	r3, [r3, #0]
 800515e:	061a      	lsls	r2, r3, #24
 8005160:	687b      	ldr	r3, [r7, #4]
 8005162:	3302      	adds	r3, #2
 8005164:	781b      	ldrb	r3, [r3, #0]
 8005166:	041b      	lsls	r3, r3, #16
 8005168:	431a      	orrs	r2, r3
 800516a:	687b      	ldr	r3, [r7, #4]
 800516c:	3301      	adds	r3, #1
 800516e:	781b      	ldrb	r3, [r3, #0]
 8005170:	021b      	lsls	r3, r3, #8
 8005172:	4313      	orrs	r3, r2
 8005174:	687a      	ldr	r2, [r7, #4]
 8005176:	7812      	ldrb	r2, [r2, #0]
 8005178:	4610      	mov	r0, r2
 800517a:	68fa      	ldr	r2, [r7, #12]
 800517c:	6811      	ldr	r1, [r2, #0]
 800517e:	ea43 0200 	orr.w	r2, r3, r0
 8005182:	697b      	ldr	r3, [r7, #20]
 8005184:	011b      	lsls	r3, r3, #4
 8005186:	440b      	add	r3, r1
 8005188:	f503 73c4 	add.w	r3, r3, #392	; 0x188
 800518c:	601a      	str	r2, [r3, #0]
                ((uint32_t)aData[2] << CAN_TDL0R_DATA2_Pos) |
                ((uint32_t)aData[1] << CAN_TDL0R_DATA1_Pos) |
                ((uint32_t)aData[0] << CAN_TDL0R_DATA0_Pos));

      /* Request transmission */
      SET_BIT(hcan->Instance->sTxMailBox[transmitmailbox].TIR, CAN_TI0R_TXRQ);
 800518e:	68fb      	ldr	r3, [r7, #12]
 8005190:	681a      	ldr	r2, [r3, #0]
 8005192:	697b      	ldr	r3, [r7, #20]
 8005194:	3318      	adds	r3, #24
 8005196:	011b      	lsls	r3, r3, #4
 8005198:	4413      	add	r3, r2
 800519a:	681b      	ldr	r3, [r3, #0]
 800519c:	68fa      	ldr	r2, [r7, #12]
 800519e:	6811      	ldr	r1, [r2, #0]
 80051a0:	f043 0201 	orr.w	r2, r3, #1
 80051a4:	697b      	ldr	r3, [r7, #20]
 80051a6:	3318      	adds	r3, #24
 80051a8:	011b      	lsls	r3, r3, #4
 80051aa:	440b      	add	r3, r1
 80051ac:	601a      	str	r2, [r3, #0]

      /* Return function status */
      return HAL_OK;
 80051ae:	2300      	movs	r3, #0
 80051b0:	e00e      	b.n	80051d0 <HAL_CAN_AddTxMessage+0x194>
    }
    else
    {
      /* Update error code */
      hcan->ErrorCode |= HAL_CAN_ERROR_PARAM;
 80051b2:	68fb      	ldr	r3, [r7, #12]
 80051b4:	6a5b      	ldr	r3, [r3, #36]	; 0x24
 80051b6:	f443 1200 	orr.w	r2, r3, #2097152	; 0x200000
 80051ba:	68fb      	ldr	r3, [r7, #12]
 80051bc:	625a      	str	r2, [r3, #36]	; 0x24

      return HAL_ERROR;
 80051be:	2301      	movs	r3, #1
 80051c0:	e006      	b.n	80051d0 <HAL_CAN_AddTxMessage+0x194>
    }
  }
  else
  {
    /* Update error code */
    hcan->ErrorCode |= HAL_CAN_ERROR_NOT_INITIALIZED;
 80051c2:	68fb      	ldr	r3, [r7, #12]
 80051c4:	6a5b      	ldr	r3, [r3, #36]	; 0x24
 80051c6:	f443 2280 	orr.w	r2, r3, #262144	; 0x40000
 80051ca:	68fb      	ldr	r3, [r7, #12]
 80051cc:	625a      	str	r2, [r3, #36]	; 0x24

    return HAL_ERROR;
 80051ce:	2301      	movs	r3, #1
  }
}
 80051d0:	4618      	mov	r0, r3
 80051d2:	3724      	adds	r7, #36	; 0x24
 80051d4:	46bd      	mov	sp, r7
 80051d6:	f85d 7b04 	ldr.w	r7, [sp], #4
 80051da:	4770      	bx	lr

080051dc <HAL_CAN_AbortTxRequest>:
  * @param  TxMailboxes List of the Tx Mailboxes to abort.
  *         This parameter can be any combination of @arg CAN_Tx_Mailboxes.
  * @retval HAL status
  */
HAL_StatusTypeDef HAL_CAN_AbortTxRequest(CAN_HandleTypeDef *hcan, uint32_t TxMailboxes)
{
 80051dc:	b480      	push	{r7}
 80051de:	b085      	sub	sp, #20
 80051e0:	af00      	add	r7, sp, #0
 80051e2:	6078      	str	r0, [r7, #4]
 80051e4:	6039      	str	r1, [r7, #0]
  HAL_CAN_StateTypeDef state = hcan->State;
 80051e6:	687b      	ldr	r3, [r7, #4]
 80051e8:	f893 3020 	ldrb.w	r3, [r3, #32]
 80051ec:	73fb      	strb	r3, [r7, #15]

  /* Check function parameters */
  assert_param(IS_CAN_TX_MAILBOX_LIST(TxMailboxes));

  if ((state == HAL_CAN_STATE_READY) ||
 80051ee:	7bfb      	ldrb	r3, [r7, #15]
 80051f0:	2b01      	cmp	r3, #1
 80051f2:	d002      	beq.n	80051fa <HAL_CAN_AbortTxRequest+0x1e>
 80051f4:	7bfb      	ldrb	r3, [r7, #15]
 80051f6:	2b02      	cmp	r3, #2
 80051f8:	d128      	bne.n	800524c <HAL_CAN_AbortTxRequest+0x70>
      (state == HAL_CAN_STATE_LISTENING))
  {
    /* Check Tx Mailbox 0 */
    if ((TxMailboxes & CAN_TX_MAILBOX0) != 0U)
 80051fa:	683b      	ldr	r3, [r7, #0]
 80051fc:	f003 0301 	and.w	r3, r3, #1
 8005200:	2b00      	cmp	r3, #0
 8005202:	d007      	beq.n	8005214 <HAL_CAN_AbortTxRequest+0x38>
    {
      /* Add cancellation request for Tx Mailbox 0 */
      SET_BIT(hcan->Instance->TSR, CAN_TSR_ABRQ0);
 8005204:	687b      	ldr	r3, [r7, #4]
 8005206:	681b      	ldr	r3, [r3, #0]
 8005208:	689a      	ldr	r2, [r3, #8]
 800520a:	687b      	ldr	r3, [r7, #4]
 800520c:	681b      	ldr	r3, [r3, #0]
 800520e:	f042 0280 	orr.w	r2, r2, #128	; 0x80
 8005212:	609a      	str	r2, [r3, #8]
    }

    /* Check Tx Mailbox 1 */
    if ((TxMailboxes & CAN_TX_MAILBOX1) != 0U)
 8005214:	683b      	ldr	r3, [r7, #0]
 8005216:	f003 0302 	and.w	r3, r3, #2
 800521a:	2b00      	cmp	r3, #0
 800521c:	d007      	beq.n	800522e <HAL_CAN_AbortTxRequest+0x52>
    {
      /* Add cancellation request for Tx Mailbox 1 */
      SET_BIT(hcan->Instance->TSR, CAN_TSR_ABRQ1);
 800521e:	687b      	ldr	r3, [r7, #4]
 8005220:	681b      	ldr	r3, [r3, #0]
 8005222:	689a      	ldr	r2, [r3, #8]
 8005224:	687b      	ldr	r3, [r7, #4]
 8005226:	681b      	ldr	r3, [r3, #0]
 8005228:	f442 4200 	orr.w	r2, r2, #32768	; 0x8000
 800522c:	609a      	str	r2, [r3, #8]
    }

    /* Check Tx Mailbox 2 */
    if ((TxMailboxes & CAN_TX_MAILBOX2) != 0U)
 800522e:	683b      	ldr	r3, [r7, #0]
 8005230:	f003 0304 	and.w	r3, r3, #4
 8005234:	2b00      	cmp	r3, #0
 8005236:	d007      	beq.n	8005248 <HAL_CAN_AbortTxRequest+0x6c>
    {
      /* Add cancellation request for Tx Mailbox 2 */
      SET_BIT(hcan->Instance->TSR, CAN_TSR_ABRQ2);
 8005238:	687b      	ldr	r3, [r7, #4]
 800523a:	681b      	ldr	r3, [r3, #0]
 800523c:	689a      	ldr	r2, [r3, #8]
 800523e:	687b      	ldr	r3, [r7, #4]
 8005240:	681b      	ldr	r3, [r3, #0]
 8005242:	f442 0200 	orr.w	r2, r2, #8388608	; 0x800000
 8005246:	609a      	str	r2, [r3, #8]
    }

    /* Return function status */
    return HAL_OK;
 8005248:	2300      	movs	r3, #0
 800524a:	e006      	b.n	800525a <HAL_CAN_AbortTxRequest+0x7e>
  }
  else
  {
    /* Update error code */
    hcan->ErrorCode |= HAL_CAN_ERROR_NOT_INITIALIZED;
 800524c:	687b      	ldr	r3, [r7, #4]
 800524e:	6a5b      	ldr	r3, [r3, #36]	; 0x24
 8005250:	f443 2280 	orr.w	r2, r3, #262144	; 0x40000
 8005254:	687b      	ldr	r3, [r7, #4]
 8005256:	625a      	str	r2, [r3, #36]	; 0x24

    return HAL_ERROR;
 8005258:	2301      	movs	r3, #1
  }
}
 800525a:	4618      	mov	r0, r3
 800525c:	3714      	adds	r7, #20
 800525e:	46bd      	mov	sp, r7
 8005260:	f85d 7b04 	ldr.w	r7, [sp], #4
 8005264:	4770      	bx	lr

08005266 <HAL_CAN_GetTxMailboxesFreeLevel>:
  * @param  hcan pointer to a CAN_HandleTypeDef structure that contains
  *         the configuration information for the specified CAN.
  * @retval Number of free Tx Mailboxes.
  */
uint32_t HAL_CAN_GetTxMailboxesFreeLevel(const CAN_HandleTypeDef *hcan)
{
 8005266:	b480      	push	{r7}
 8005268:	b085      	sub	sp, #20
 800526a:	af00      	add	r7, sp, #0
 800526c:	6078      	str	r0, [r7, #4]
  uint32_t freelevel = 0U;
 800526e:	2300      	movs	r3, #0
 8005270:	60fb      	str	r3, [r7, #12]
  HAL_CAN_StateTypeDef state = hcan->State;
 8005272:	687b      	ldr	r3, [r7, #4]
 8005274:	f893 3020 	ldrb.w	r3, [r3, #32]
 8005278:	72fb      	strb	r3, [r7, #11]

  if ((state == HAL_CAN_STATE_READY) ||
 800527a:	7afb      	ldrb	r3, [r7, #11]
 800527c:	2b01      	cmp	r3, #1
 800527e:	d002      	beq.n	8005286 <HAL_CAN_GetTxMailboxesFreeLevel+0x20>
 8005280:	7afb      	ldrb	r3, [r7, #11]
 8005282:	2b02      	cmp	r3, #2
 8005284:	d11d      	bne.n	80052c2 <HAL_CAN_GetTxMailboxesFreeLevel+0x5c>
      (state == HAL_CAN_STATE_LISTENING))
  {
    /* Check Tx Mailbox 0 status */
    if ((hcan->Instance->TSR & CAN_TSR_TME0) != 0U)
 8005286:	687b      	ldr	r3, [r7, #4]
 8005288:	681b      	ldr	r3, [r3, #0]
 800528a:	689b      	ldr	r3, [r3, #8]
 800528c:	f003 6380 	and.w	r3, r3, #67108864	; 0x4000000
 8005290:	2b00      	cmp	r3, #0
 8005292:	d002      	beq.n	800529a <HAL_CAN_GetTxMailboxesFreeLevel+0x34>
    {
      freelevel++;
 8005294:	68fb      	ldr	r3, [r7, #12]
 8005296:	3301      	adds	r3, #1
 8005298:	60fb      	str	r3, [r7, #12]
    }

    /* Check Tx Mailbox 1 status */
    if ((hcan->Instance->TSR & CAN_TSR_TME1) != 0U)
 800529a:	687b      	ldr	r3, [r7, #4]
 800529c:	681b      	ldr	r3, [r3, #0]
 800529e:	689b      	ldr	r3, [r3, #8]
 80052a0:	f003 6300 	and.w	r3, r3, #134217728	; 0x8000000
 80052a4:	2b00      	cmp	r3, #0
 80052a6:	d002      	beq.n	80052ae <HAL_CAN_GetTxMailboxesFreeLevel+0x48>
    {
      freelevel++;
 80052a8:	68fb      	ldr	r3, [r7, #12]
 80052aa:	3301      	adds	r3, #1
 80052ac:	60fb      	str	r3, [r7, #12]
    }

    /* Check Tx Mailbox 2 status */
    if ((hcan->Instance->TSR & CAN_TSR_TME2) != 0U)
 80052ae:	687b      	ldr	r3, [r7, #4]
 80052b0:	681b      	ldr	r3, [r3, #0]
 80052b2:	689b      	ldr	r3, [r3, #8]
 80052b4:	f003 5380 	and.w	r3, r3, #268435456	; 0x10000000
 80052b8:	2b00      	cmp	r3, #0
 80052ba:	d002      	beq.n	80052c2 <HAL_CAN_GetTxMailboxesFreeLevel+0x5c>
    {
      freelevel++;
 80052bc:	68fb      	ldr	r3, [r7, #12]
 80052be:	3301      	adds	r3, #1
 80052c0:	60fb      	str	r3, [r7, #12]
    }
  }

  /* Return Tx Mailboxes free level */
  return freelevel;
 80052c2:	68fb      	ldr	r3, [r7, #12]
}
 80052c4:	4618      	mov	r0, r3
 80052c6:	3714      	adds	r7, #20
 80052c8:	46bd      	mov	sp, r7
 80052ca:	f85d 7b04 	ldr.w	r7, [sp], #4
 80052ce:	4770      	bx	lr

080052d0 <__NVIC_SetPriorityGrouping>:
           In case of a conflict between priority grouping and available
           priority bits (__NVIC_PRIO_BITS), the smallest possible priority group is set.
  \param [in]      PriorityGroup  Priority grouping field.
 */
__STATIC_INLINE void __NVIC_SetPriorityGrouping(uint32_t PriorityGroup)
{
 80052d0:	b480      	push	{r7}
 80052d2:	b085      	sub	sp, #20
 80052d4:	af00      	add	r7, sp, #0
 80052d6:	6078      	str	r0, [r7, #4]
  uint32_t reg_value;
  uint32_t PriorityGroupTmp = (PriorityGroup & (uint32_t)0x07UL);             /* only values 0..7 are used          */
 80052d8:	687b      	ldr	r3, [r7, #4]
 80052da:	f003 0307 	and.w	r3, r3, #7
 80052de:	60fb      	str	r3, [r7, #12]

  reg_value  =  SCB->AIRCR;                                                   /* read old register configuration    */
 80052e0:	4b0b      	ldr	r3, [pc, #44]	; (8005310 <__NVIC_SetPriorityGrouping+0x40>)
 80052e2:	68db      	ldr	r3, [r3, #12]
 80052e4:	60bb      	str	r3, [r7, #8]
  reg_value &= ~((uint32_t)(SCB_AIRCR_VECTKEY_Msk | SCB_AIRCR_PRIGROUP_Msk)); /* clear bits to change               */
 80052e6:	68ba      	ldr	r2, [r7, #8]
 80052e8:	f64f 03ff 	movw	r3, #63743	; 0xf8ff
 80052ec:	4013      	ands	r3, r2
 80052ee:	60bb      	str	r3, [r7, #8]
  reg_value  =  (reg_value                                   |
                ((uint32_t)0x5FAUL << SCB_AIRCR_VECTKEY_Pos) |
                (PriorityGroupTmp << SCB_AIRCR_PRIGROUP_Pos)  );              /* Insert write key and priority group */
 80052f0:	68fb      	ldr	r3, [r7, #12]
 80052f2:	021a      	lsls	r2, r3, #8
                ((uint32_t)0x5FAUL << SCB_AIRCR_VECTKEY_Pos) |
 80052f4:	68bb      	ldr	r3, [r7, #8]
 80052f6:	431a      	orrs	r2, r3
  reg_value  =  (reg_value                                   |
 80052f8:	4b06      	ldr	r3, [pc, #24]	; (8005314 <__NVIC_SetPriorityGrouping+0x44>)
 80052fa:	4313      	orrs	r3, r2
 80052fc:	60bb      	str	r3, [r7, #8]
  SCB->AIRCR =  reg_value;
 80052fe:	4a04      	ldr	r2, [pc, #16]	; (8005310 <__NVIC_SetPriorityGrouping+0x40>)
 8005300:	68bb      	ldr	r3, [r7, #8]
 8005302:	60d3      	str	r3, [r2, #12]
}
 8005304:	bf00      	nop
 8005306:	3714      	adds	r7, #20
 8005308:	46bd      	mov	sp, r7
 800530a:	f85d 7b04 	ldr.w	r7, [sp], #4
 800530e:	4770      	bx	lr
 8005310:	e000ed00 	.word	0xe000ed00
 8005314:	05fa0000 	.word	0x05fa0000

08005318 <__NVIC_GetPriorityGrouping>:
  \brief   Get Priority Grouping
  \details Reads the priority grouping field from the NVIC Interrupt Controller.
  \return                Priority grouping field (SCB->AIRCR [10:8] PRIGROUP field).
 */
__STATIC_INLINE uint32_t __NVIC_GetPriorityGrouping(void)
{
 8005318:	b480      	push	{r7}
 800531a:	af00      	add	r7, sp, #0
  return ((uint32_t)((SCB->AIRCR & SCB_AIRCR_PRIGROUP_Msk) >> SCB_AIRCR_PRIGROUP_Pos));
 800531c:	4b04      	ldr	r3, [pc, #16]	; (8005330 <__NVIC_GetPriorityGrouping+0x18>)
 800531e:	68db      	ldr	r3, [r3, #12]
 8005320:	0a1b      	lsrs	r3, r3, #8
 8005322:	f003 0307 	and.w	r3, r3, #7
}
 8005326:	4618      	mov	r0, r3
 8005328:	46bd      	mov	sp, r7
 800532a:	f85d 7b04 	ldr.w	r7, [sp], #4
 800532e:	4770      	bx	lr
 8005330:	e000ed00 	.word	0xe000ed00

08005334 <__NVIC_EnableIRQ>:
  \details Enables a device specific interrupt in the NVIC interrupt controller.
  \param [in]      IRQn  Device specific interrupt number.
  \note    IRQn must not be negative.
 */
__STATIC_INLINE void __NVIC_EnableIRQ(IRQn_Type IRQn)
{
 8005334:	b480      	push	{r7}
 8005336:	b083      	sub	sp, #12
 8005338:	af00      	add	r7, sp, #0
 800533a:	4603      	mov	r3, r0
 800533c:	71fb      	strb	r3, [r7, #7]
  if ((int32_t)(IRQn) >= 0)
 800533e:	f997 3007 	ldrsb.w	r3, [r7, #7]
 8005342:	2b00      	cmp	r3, #0
 8005344:	db0b      	blt.n	800535e <__NVIC_EnableIRQ+0x2a>
  {
    NVIC->ISER[(((uint32_t)IRQn) >> 5UL)] = (uint32_t)(1UL << (((uint32_t)IRQn) & 0x1FUL));
 8005346:	79fb      	ldrb	r3, [r7, #7]
 8005348:	f003 021f 	and.w	r2, r3, #31
 800534c:	4907      	ldr	r1, [pc, #28]	; (800536c <__NVIC_EnableIRQ+0x38>)
 800534e:	f997 3007 	ldrsb.w	r3, [r7, #7]
 8005352:	095b      	lsrs	r3, r3, #5
 8005354:	2001      	movs	r0, #1
 8005356:	fa00 f202 	lsl.w	r2, r0, r2
 800535a:	f841 2023 	str.w	r2, [r1, r3, lsl #2]
  }
}
 800535e:	bf00      	nop
 8005360:	370c      	adds	r7, #12
 8005362:	46bd      	mov	sp, r7
 8005364:	f85d 7b04 	ldr.w	r7, [sp], #4
 8005368:	4770      	bx	lr
 800536a:	bf00      	nop
 800536c:	e000e100 	.word	0xe000e100

08005370 <__NVIC_SetPriority>:
  \param [in]      IRQn  Interrupt number.
  \param [in]  priority  Priority to set.
  \note    The priority cannot be set for every processor exception.
 */
__STATIC_INLINE void __NVIC_SetPriority(IRQn_Type IRQn, uint32_t priority)
{
 8005370:	b480      	push	{r7}
 8005372:	b083      	sub	sp, #12
 8005374:	af00      	add	r7, sp, #0
 8005376:	4603      	mov	r3, r0
 8005378:	6039      	str	r1, [r7, #0]
 800537a:	71fb      	strb	r3, [r7, #7]
  if ((int32_t)(IRQn) >= 0)
 800537c:	f997 3007 	ldrsb.w	r3, [r7, #7]
 8005380:	2b00      	cmp	r3, #0
 8005382:	db0a      	blt.n	800539a <__NVIC_SetPriority+0x2a>
  {
    NVIC->IP[((uint32_t)IRQn)]                = (uint8_t)((priority << (8U - __NVIC_PRIO_BITS)) & (uint32_t)0xFFUL);
 8005384:	683b      	ldr	r3, [r7, #0]
 8005386:	b2da      	uxtb	r2, r3
 8005388:	490c      	ldr	r1, [pc, #48]	; (80053bc <__NVIC_SetPriority+0x4c>)
 800538a:	f997 3007 	ldrsb.w	r3, [r7, #7]
 800538e:	0112      	lsls	r2, r2, #4
 8005390:	b2d2      	uxtb	r2, r2
 8005392:	440b      	add	r3, r1
 8005394:	f883 2300 	strb.w	r2, [r3, #768]	; 0x300
  }
  else
  {
    SCB->SHPR[(((uint32_t)IRQn) & 0xFUL)-4UL] = (uint8_t)((priority << (8U - __NVIC_PRIO_BITS)) & (uint32_t)0xFFUL);
  }
}
 8005398:	e00a      	b.n	80053b0 <__NVIC_SetPriority+0x40>
    SCB->SHPR[(((uint32_t)IRQn) & 0xFUL)-4UL] = (uint8_t)((priority << (8U - __NVIC_PRIO_BITS)) & (uint32_t)0xFFUL);
 800539a:	683b      	ldr	r3, [r7, #0]
 800539c:	b2da      	uxtb	r2, r3
 800539e:	4908      	ldr	r1, [pc, #32]	; (80053c0 <__NVIC_SetPriority+0x50>)
 80053a0:	79fb      	ldrb	r3, [r7, #7]
 80053a2:	f003 030f 	and.w	r3, r3, #15
 80053a6:	3b04      	subs	r3, #4
 80053a8:	0112      	lsls	r2, r2, #4
 80053aa:	b2d2      	uxtb	r2, r2
 80053ac:	440b      	add	r3, r1
 80053ae:	761a      	strb	r2, [r3, #24]
}
 80053b0:	bf00      	nop
 80053b2:	370c      	adds	r7, #12
 80053b4:	46bd      	mov	sp, r7
 80053b6:	f85d 7b04 	ldr.w	r7, [sp], #4
 80053ba:	4770      	bx	lr
 80053bc:	e000e100 	.word	0xe000e100
 80053c0:	e000ed00 	.word	0xe000ed00

080053c4 <NVIC_EncodePriority>:
  \param [in]   PreemptPriority  Preemptive priority value (starting from 0).
  \param [in]       SubPriority  Subpriority value (starting from 0).
  \return                        Encoded priority. Value can be used in the function \ref NVIC_SetPriority().
 */
__STATIC_INLINE uint32_t NVIC_EncodePriority (uint32_t PriorityGroup, uint32_t PreemptPriority, uint32_t SubPriority)
{
 80053c4:	b480      	push	{r7}
 80053c6:	b089      	sub	sp, #36	; 0x24
 80053c8:	af00      	add	r7, sp, #0
 80053ca:	60f8      	str	r0, [r7, #12]
 80053cc:	60b9      	str	r1, [r7, #8]
 80053ce:	607a      	str	r2, [r7, #4]
  uint32_t PriorityGroupTmp = (PriorityGroup & (uint32_t)0x07UL);   /* only values 0..7 are used          */
 80053d0:	68fb      	ldr	r3, [r7, #12]
 80053d2:	f003 0307 	and.w	r3, r3, #7
 80053d6:	61fb      	str	r3, [r7, #28]
  uint32_t PreemptPriorityBits;
  uint32_t SubPriorityBits;

  PreemptPriorityBits = ((7UL - PriorityGroupTmp) > (uint32_t)(__NVIC_PRIO_BITS)) ? (uint32_t)(__NVIC_PRIO_BITS) : (uint32_t)(7UL - PriorityGroupTmp);
 80053d8:	69fb      	ldr	r3, [r7, #28]
 80053da:	f1c3 0307 	rsb	r3, r3, #7
 80053de:	2b04      	cmp	r3, #4
 80053e0:	bf28      	it	cs
 80053e2:	2304      	movcs	r3, #4
 80053e4:	61bb      	str	r3, [r7, #24]
  SubPriorityBits     = ((PriorityGroupTmp + (uint32_t)(__NVIC_PRIO_BITS)) < (uint32_t)7UL) ? (uint32_t)0UL : (uint32_t)((PriorityGroupTmp - 7UL) + (uint32_t)(__NVIC_PRIO_BITS));
 80053e6:	69fb      	ldr	r3, [r7, #28]
 80053e8:	3304      	adds	r3, #4
 80053ea:	2b06      	cmp	r3, #6
 80053ec:	d902      	bls.n	80053f4 <NVIC_EncodePriority+0x30>
 80053ee:	69fb      	ldr	r3, [r7, #28]
 80053f0:	3b03      	subs	r3, #3
 80053f2:	e000      	b.n	80053f6 <NVIC_EncodePriority+0x32>
 80053f4:	2300      	movs	r3, #0
 80053f6:	617b      	str	r3, [r7, #20]

  return (
           ((PreemptPriority & (uint32_t)((1UL << (PreemptPriorityBits)) - 1UL)) << SubPriorityBits) |
 80053f8:	f04f 32ff 	mov.w	r2, #4294967295	; 0xffffffff
 80053fc:	69bb      	ldr	r3, [r7, #24]
 80053fe:	fa02 f303 	lsl.w	r3, r2, r3
 8005402:	43da      	mvns	r2, r3
 8005404:	68bb      	ldr	r3, [r7, #8]
 8005406:	401a      	ands	r2, r3
 8005408:	697b      	ldr	r3, [r7, #20]
 800540a:	409a      	lsls	r2, r3
           ((SubPriority     & (uint32_t)((1UL << (SubPriorityBits    )) - 1UL)))
 800540c:	f04f 31ff 	mov.w	r1, #4294967295	; 0xffffffff
 8005410:	697b      	ldr	r3, [r7, #20]
 8005412:	fa01 f303 	lsl.w	r3, r1, r3
 8005416:	43d9      	mvns	r1, r3
 8005418:	687b      	ldr	r3, [r7, #4]
 800541a:	400b      	ands	r3, r1
           ((PreemptPriority & (uint32_t)((1UL << (PreemptPriorityBits)) - 1UL)) << SubPriorityBits) |
 800541c:	4313      	orrs	r3, r2
         );
}
 800541e:	4618      	mov	r0, r3
 8005420:	3724      	adds	r7, #36	; 0x24
 8005422:	46bd      	mov	sp, r7
 8005424:	f85d 7b04 	ldr.w	r7, [sp], #4
 8005428:	4770      	bx	lr
	...

0800542c <SysTick_Config>:
  \note    When the variable <b>__Vendor_SysTickConfig</b> is set to 1, then the
           function <b>SysTick_Config</b> is not included. In this case, the file <b><i>device</i>.h</b>
           must contain a vendor-specific implementation of this function.
 */
__STATIC_INLINE uint32_t SysTick_Config(uint32_t ticks)
{
 800542c:	b580      	push	{r7, lr}
 800542e:	b082      	sub	sp, #8
 8005430:	af00      	add	r7, sp, #0
 8005432:	6078      	str	r0, [r7, #4]
  if ((ticks - 1UL) > SysTick_LOAD_RELOAD_Msk)
 8005434:	687b      	ldr	r3, [r7, #4]
 8005436:	3b01      	subs	r3, #1
 8005438:	f1b3 7f80 	cmp.w	r3, #16777216	; 0x1000000
 800543c:	d301      	bcc.n	8005442 <SysTick_Config+0x16>
  {
    return (1UL);                                                   /* Reload value impossible */
 800543e:	2301      	movs	r3, #1
 8005440:	e00f      	b.n	8005462 <SysTick_Config+0x36>
  }

  SysTick->LOAD  = (uint32_t)(ticks - 1UL);                         /* set reload register */
 8005442:	4a0a      	ldr	r2, [pc, #40]	; (800546c <SysTick_Config+0x40>)
 8005444:	687b      	ldr	r3, [r7, #4]
 8005446:	3b01      	subs	r3, #1
 8005448:	6053      	str	r3, [r2, #4]
  NVIC_SetPriority (SysTick_IRQn, (1UL << __NVIC_PRIO_BITS) - 1UL); /* set Priority for Systick Interrupt */
 800544a:	210f      	movs	r1, #15
 800544c:	f04f 30ff 	mov.w	r0, #4294967295	; 0xffffffff
 8005450:	f7ff ff8e 	bl	8005370 <__NVIC_SetPriority>
  SysTick->VAL   = 0UL;                                             /* Load the SysTick Counter Value */
 8005454:	4b05      	ldr	r3, [pc, #20]	; (800546c <SysTick_Config+0x40>)
 8005456:	2200      	movs	r2, #0
 8005458:	609a      	str	r2, [r3, #8]
  SysTick->CTRL  = SysTick_CTRL_CLKSOURCE_Msk |
 800545a:	4b04      	ldr	r3, [pc, #16]	; (800546c <SysTick_Config+0x40>)
 800545c:	2207      	movs	r2, #7
 800545e:	601a      	str	r2, [r3, #0]
                   SysTick_CTRL_TICKINT_Msk   |
                   SysTick_CTRL_ENABLE_Msk;                         /* Enable SysTick IRQ and SysTick Timer */
  return (0UL);                                                     /* Function successful */
 8005460:	2300      	movs	r3, #0
}
 8005462:	4618      	mov	r0, r3
 8005464:	3708      	adds	r7, #8
 8005466:	46bd      	mov	sp, r7
 8005468:	bd80      	pop	{r7, pc}
 800546a:	bf00      	nop
 800546c:	e000e010 	.word	0xe000e010

08005470 <HAL_NVIC_SetPriorityGrouping>:
  * @note   When the NVIC_PriorityGroup_0 is selected, IRQ preemption is no more possible. 
  *         The pending IRQ priority will be managed only by the subpriority. 
  * @retval None
  */
void HAL_NVIC_SetPriorityGrouping(uint32_t PriorityGroup)
{
 8005470:	b580      	push	{r7, lr}
 8005472:	b082      	sub	sp, #8
 8005474:	af00      	add	r7, sp, #0
 8005476:	6078      	str	r0, [r7, #4]
  /* Check the parameters */
  assert_param(IS_NVIC_PRIORITY_GROUP(PriorityGroup));
  
  /* Set the PRIGROUP[10:8] bits according to the PriorityGroup parameter value */
  NVIC_SetPriorityGrouping(PriorityGroup);
 8005478:	6878      	ldr	r0, [r7, #4]
 800547a:	f7ff ff29 	bl	80052d0 <__NVIC_SetPriorityGrouping>
}
 800547e:	bf00      	nop
 8005480:	3708      	adds	r7, #8
 8005482:	46bd      	mov	sp, r7
 8005484:	bd80      	pop	{r7, pc}

08005486 <HAL_NVIC_SetPriority>:
  *         This parameter can be a value between 0 and 15
  *         A lower priority value indicates a higher priority.          
  * @retval None
  */
void HAL_NVIC_SetPriority(IRQn_Type IRQn, uint32_t PreemptPriority, uint32_t SubPriority)
{ 
 8005486:	b580      	push	{r7, lr}
 8005488:	b086      	sub	sp, #24
 800548a:	af00      	add	r7, sp, #0
 800548c:	4603      	mov	r3, r0
 800548e:	60b9      	str	r1, [r7, #8]
 8005490:	607a      	str	r2, [r7, #4]
 8005492:	73fb      	strb	r3, [r7, #15]
  uint32_t prioritygroup = 0x00;
 8005494:	2300      	movs	r3, #0
 8005496:	617b      	str	r3, [r7, #20]
  
  /* Check the parameters */
  assert_param(IS_NVIC_SUB_PRIORITY(SubPriority));
  assert_param(IS_NVIC_PREEMPTION_PRIORITY(PreemptPriority));
  
  prioritygroup = NVIC_GetPriorityGrouping();
 8005498:	f7ff ff3e 	bl	8005318 <__NVIC_GetPriorityGrouping>
 800549c:	6178      	str	r0, [r7, #20]
  
  NVIC_SetPriority(IRQn, NVIC_EncodePriority(prioritygroup, PreemptPriority, SubPriority));
 800549e:	687a      	ldr	r2, [r7, #4]
 80054a0:	68b9      	ldr	r1, [r7, #8]
 80054a2:	6978      	ldr	r0, [r7, #20]
 80054a4:	f7ff ff8e 	bl	80053c4 <NVIC_EncodePriority>
 80054a8:	4602      	mov	r2, r0
 80054aa:	f997 300f 	ldrsb.w	r3, [r7, #15]
 80054ae:	4611      	mov	r1, r2
 80054b0:	4618      	mov	r0, r3
 80054b2:	f7ff ff5d 	bl	8005370 <__NVIC_SetPriority>
}
 80054b6:	bf00      	nop
 80054b8:	3718      	adds	r7, #24
 80054ba:	46bd      	mov	sp, r7
 80054bc:	bd80      	pop	{r7, pc}

080054be <HAL_NVIC_EnableIRQ>:
  *         This parameter can be an enumerator of IRQn_Type enumeration
  *         (For the complete STM32 Devices IRQ Channels list, please refer to the appropriate CMSIS device file (stm32f7xxxx.h))
  * @retval None
  */
void HAL_NVIC_EnableIRQ(IRQn_Type IRQn)
{
 80054be:	b580      	push	{r7, lr}
 80054c0:	b082      	sub	sp, #8
 80054c2:	af00      	add	r7, sp, #0
 80054c4:	4603      	mov	r3, r0
 80054c6:	71fb      	strb	r3, [r7, #7]
  /* Check the parameters */
  assert_param(IS_NVIC_DEVICE_IRQ(IRQn));
  
  /* Enable interrupt */
  NVIC_EnableIRQ(IRQn);
 80054c8:	f997 3007 	ldrsb.w	r3, [r7, #7]
 80054cc:	4618      	mov	r0, r3
 80054ce:	f7ff ff31 	bl	8005334 <__NVIC_EnableIRQ>
}
 80054d2:	bf00      	nop
 80054d4:	3708      	adds	r7, #8
 80054d6:	46bd      	mov	sp, r7
 80054d8:	bd80      	pop	{r7, pc}

080054da <HAL_SYSTICK_Config>:
  * @param  TicksNumb Specifies the ticks Number of ticks between two interrupts.
  * @retval status:  - 0  Function succeeded.
  *                  - 1  Function failed.
  */
uint32_t HAL_SYSTICK_Config(uint32_t TicksNumb)
{
 80054da:	b580      	push	{r7, lr}
 80054dc:	b082      	sub	sp, #8
 80054de:	af00      	add	r7, sp, #0
 80054e0:	6078      	str	r0, [r7, #4]
   return SysTick_Config(TicksNumb);
 80054e2:	6878      	ldr	r0, [r7, #4]
 80054e4:	f7ff ffa2 	bl	800542c <SysTick_Config>
 80054e8:	4603      	mov	r3, r0
}
 80054ea:	4618      	mov	r0, r3
 80054ec:	3708      	adds	r7, #8
 80054ee:	46bd      	mov	sp, r7
 80054f0:	bd80      	pop	{r7, pc}

080054f2 <HAL_DMA_Abort>:
  *        and the Stream will be effectively disabled only after the transfer of
  *        this single data is finished.  
  * @retval HAL status
  */
HAL_StatusTypeDef HAL_DMA_Abort(DMA_HandleTypeDef *hdma)
{
 80054f2:	b580      	push	{r7, lr}
 80054f4:	b084      	sub	sp, #16
 80054f6:	af00      	add	r7, sp, #0
 80054f8:	6078      	str	r0, [r7, #4]
  /* calculate DMA base and stream number */
  DMA_Base_Registers *regs = (DMA_Base_Registers *)hdma->StreamBaseAddress;
 80054fa:	687b      	ldr	r3, [r7, #4]
 80054fc:	6d9b      	ldr	r3, [r3, #88]	; 0x58
 80054fe:	60fb      	str	r3, [r7, #12]
  
  uint32_t tickstart = HAL_GetTick();
 8005500:	f7ff fb70 	bl	8004be4 <HAL_GetTick>
 8005504:	60b8      	str	r0, [r7, #8]
  
  if(hdma->State != HAL_DMA_STATE_BUSY)
 8005506:	687b      	ldr	r3, [r7, #4]
 8005508:	f893 3035 	ldrb.w	r3, [r3, #53]	; 0x35
 800550c:	b2db      	uxtb	r3, r3
 800550e:	2b02      	cmp	r3, #2
 8005510:	d008      	beq.n	8005524 <HAL_DMA_Abort+0x32>
  {
    hdma->ErrorCode = HAL_DMA_ERROR_NO_XFER;
 8005512:	687b      	ldr	r3, [r7, #4]
 8005514:	2280      	movs	r2, #128	; 0x80
 8005516:	655a      	str	r2, [r3, #84]	; 0x54
    
    /* Process Unlocked */
    __HAL_UNLOCK(hdma);
 8005518:	687b      	ldr	r3, [r7, #4]
 800551a:	2200      	movs	r2, #0
 800551c:	f883 2034 	strb.w	r2, [r3, #52]	; 0x34
    
    return HAL_ERROR;
 8005520:	2301      	movs	r3, #1
 8005522:	e052      	b.n	80055ca <HAL_DMA_Abort+0xd8>
  }
  else
  {
    /* Disable all the transfer interrupts */
    hdma->Instance->CR  &= ~(DMA_IT_TC | DMA_IT_TE | DMA_IT_DME);
 8005524:	687b      	ldr	r3, [r7, #4]
 8005526:	681b      	ldr	r3, [r3, #0]
 8005528:	681a      	ldr	r2, [r3, #0]
 800552a:	687b      	ldr	r3, [r7, #4]
 800552c:	681b      	ldr	r3, [r3, #0]
 800552e:	f022 0216 	bic.w	r2, r2, #22
 8005532:	601a      	str	r2, [r3, #0]
    hdma->Instance->FCR &= ~(DMA_IT_FE);
 8005534:	687b      	ldr	r3, [r7, #4]
 8005536:	681b      	ldr	r3, [r3, #0]
 8005538:	695a      	ldr	r2, [r3, #20]
 800553a:	687b      	ldr	r3, [r7, #4]
 800553c:	681b      	ldr	r3, [r3, #0]
 800553e:	f022 0280 	bic.w	r2, r2, #128	; 0x80
 8005542:	615a      	str	r2, [r3, #20]
    
    if((hdma->XferHalfCpltCallback != NULL) || (hdma->XferM1HalfCpltCallback != NULL))
 8005544:	687b      	ldr	r3, [r7, #4]
 8005546:	6c1b      	ldr	r3, [r3, #64]	; 0x40
 8005548:	2b00      	cmp	r3, #0
 800554a:	d103      	bne.n	8005554 <HAL_DMA_Abort+0x62>
 800554c:	687b      	ldr	r3, [r7, #4]
 800554e:	6c9b      	ldr	r3, [r3, #72]	; 0x48
 8005550:	2b00      	cmp	r3, #0
 8005552:	d007      	beq.n	8005564 <HAL_DMA_Abort+0x72>
    {
      hdma->Instance->CR  &= ~(DMA_IT_HT);
 8005554:	687b      	ldr	r3, [r7, #4]
 8005556:	681b      	ldr	r3, [r3, #0]
 8005558:	681a      	ldr	r2, [r3, #0]
 800555a:	687b      	ldr	r3, [r7, #4]
 800555c:	681b      	ldr	r3, [r3, #0]
 800555e:	f022 0208 	bic.w	r2, r2, #8
 8005562:	601a      	str	r2, [r3, #0]
    }
    
    /* Disable the stream */
    __HAL_DMA_DISABLE(hdma);
 8005564:	687b      	ldr	r3, [r7, #4]
 8005566:	681b      	ldr	r3, [r3, #0]
 8005568:	681a      	ldr	r2, [r3, #0]
 800556a:	687b      	ldr	r3, [r7, #4]
 800556c:	681b      	ldr	r3, [r3, #0]
 800556e:	f022 0201 	bic.w	r2, r2, #1
 8005572:	601a      	str	r2, [r3, #0]
    
    /* Check if the DMA Stream is effectively disabled */
    while((hdma->Instance->CR & DMA_SxCR_EN) != RESET)
 8005574:	e013      	b.n	800559e <HAL_DMA_Abort+0xac>
    {
      /* Check for the Timeout */
      if((HAL_GetTick() - tickstart ) > HAL_TIMEOUT_DMA_ABORT)
 8005576:	f7ff fb35 	bl	8004be4 <HAL_GetTick>
 800557a:	4602      	mov	r2, r0
 800557c:	68bb      	ldr	r3, [r7, #8]
 800557e:	1ad3      	subs	r3, r2, r3
 8005580:	2b05      	cmp	r3, #5
 8005582:	d90c      	bls.n	800559e <HAL_DMA_Abort+0xac>
      {
        /* Update error code */
        hdma->ErrorCode = HAL_DMA_ERROR_TIMEOUT;
 8005584:	687b      	ldr	r3, [r7, #4]
 8005586:	2220      	movs	r2, #32
 8005588:	655a      	str	r2, [r3, #84]	; 0x54
        
        /* Change the DMA state */
        hdma->State = HAL_DMA_STATE_TIMEOUT;
 800558a:	687b      	ldr	r3, [r7, #4]
 800558c:	2203      	movs	r2, #3
 800558e:	f883 2035 	strb.w	r2, [r3, #53]	; 0x35
        
        /* Process Unlocked */
        __HAL_UNLOCK(hdma);
 8005592:	687b      	ldr	r3, [r7, #4]
 8005594:	2200      	movs	r2, #0
 8005596:	f883 2034 	strb.w	r2, [r3, #52]	; 0x34

        return HAL_TIMEOUT;
 800559a:	2303      	movs	r3, #3
 800559c:	e015      	b.n	80055ca <HAL_DMA_Abort+0xd8>
    while((hdma->Instance->CR & DMA_SxCR_EN) != RESET)
 800559e:	687b      	ldr	r3, [r7, #4]
 80055a0:	681b      	ldr	r3, [r3, #0]
 80055a2:	681b      	ldr	r3, [r3, #0]
 80055a4:	f003 0301 	and.w	r3, r3, #1
 80055a8:	2b00      	cmp	r3, #0
 80055aa:	d1e4      	bne.n	8005576 <HAL_DMA_Abort+0x84>
      }
    }
    
    /* Clear all interrupt flags at correct offset within the register */
    regs->IFCR = 0x3FU << hdma->StreamIndex;
 80055ac:	687b      	ldr	r3, [r7, #4]
 80055ae:	6ddb      	ldr	r3, [r3, #92]	; 0x5c
 80055b0:	223f      	movs	r2, #63	; 0x3f
 80055b2:	409a      	lsls	r2, r3
 80055b4:	68fb      	ldr	r3, [r7, #12]
 80055b6:	609a      	str	r2, [r3, #8]
    
    /* Change the DMA state*/
    hdma->State = HAL_DMA_STATE_READY;
 80055b8:	687b      	ldr	r3, [r7, #4]
 80055ba:	2201      	movs	r2, #1
 80055bc:	f883 2035 	strb.w	r2, [r3, #53]	; 0x35
    
    /* Process Unlocked */
    __HAL_UNLOCK(hdma);
 80055c0:	687b      	ldr	r3, [r7, #4]
 80055c2:	2200      	movs	r2, #0
 80055c4:	f883 2034 	strb.w	r2, [r3, #52]	; 0x34
    
  }
  return HAL_OK;
 80055c8:	2300      	movs	r3, #0
}
 80055ca:	4618      	mov	r0, r3
 80055cc:	3710      	adds	r7, #16
 80055ce:	46bd      	mov	sp, r7
 80055d0:	bd80      	pop	{r7, pc}

080055d2 <HAL_DMA_Abort_IT>:
  * @param  hdma   pointer to a DMA_HandleTypeDef structure that contains
  *                 the configuration information for the specified DMA Stream.
  * @retval HAL status
  */
HAL_StatusTypeDef HAL_DMA_Abort_IT(DMA_HandleTypeDef *hdma)
{
 80055d2:	b480      	push	{r7}
 80055d4:	b083      	sub	sp, #12
 80055d6:	af00      	add	r7, sp, #0
 80055d8:	6078      	str	r0, [r7, #4]
  if(hdma->State != HAL_DMA_STATE_BUSY)
 80055da:	687b      	ldr	r3, [r7, #4]
 80055dc:	f893 3035 	ldrb.w	r3, [r3, #53]	; 0x35
 80055e0:	b2db      	uxtb	r3, r3
 80055e2:	2b02      	cmp	r3, #2
 80055e4:	d004      	beq.n	80055f0 <HAL_DMA_Abort_IT+0x1e>
  {
    hdma->ErrorCode = HAL_DMA_ERROR_NO_XFER;
 80055e6:	687b      	ldr	r3, [r7, #4]
 80055e8:	2280      	movs	r2, #128	; 0x80
 80055ea:	655a      	str	r2, [r3, #84]	; 0x54
    return HAL_ERROR;
 80055ec:	2301      	movs	r3, #1
 80055ee:	e00c      	b.n	800560a <HAL_DMA_Abort_IT+0x38>
  }
  else
  {
    /* Set Abort State  */
    hdma->State = HAL_DMA_STATE_ABORT;
 80055f0:	687b      	ldr	r3, [r7, #4]
 80055f2:	2205      	movs	r2, #5
 80055f4:	f883 2035 	strb.w	r2, [r3, #53]	; 0x35
    
    /* Disable the stream */
    __HAL_DMA_DISABLE(hdma);
 80055f8:	687b      	ldr	r3, [r7, #4]
 80055fa:	681b      	ldr	r3, [r3, #0]
 80055fc:	681a      	ldr	r2, [r3, #0]
 80055fe:	687b      	ldr	r3, [r7, #4]
 8005600:	681b      	ldr	r3, [r3, #0]
 8005602:	f022 0201 	bic.w	r2, r2, #1
 8005606:	601a      	str	r2, [r3, #0]
  }

  return HAL_OK;
 8005608:	2300      	movs	r3, #0
}
 800560a:	4618      	mov	r0, r3
 800560c:	370c      	adds	r7, #12
 800560e:	46bd      	mov	sp, r7
 8005610:	f85d 7b04 	ldr.w	r7, [sp], #4
 8005614:	4770      	bx	lr
	...

08005618 <HAL_GPIO_Init>:
  * @param  GPIO_Init pointer to a GPIO_InitTypeDef structure that contains
  *         the configuration information for the specified GPIO peripheral.
  * @retval None
  */
void HAL_GPIO_Init(GPIO_TypeDef  *GPIOx, GPIO_InitTypeDef *GPIO_Init)
{
 8005618:	b480      	push	{r7}
 800561a:	b089      	sub	sp, #36	; 0x24
 800561c:	af00      	add	r7, sp, #0
 800561e:	6078      	str	r0, [r7, #4]
 8005620:	6039      	str	r1, [r7, #0]
  uint32_t position = 0x00;
 8005622:	2300      	movs	r3, #0
 8005624:	61fb      	str	r3, [r7, #28]
  uint32_t ioposition = 0x00;
 8005626:	2300      	movs	r3, #0
 8005628:	617b      	str	r3, [r7, #20]
  uint32_t iocurrent = 0x00;
 800562a:	2300      	movs	r3, #0
 800562c:	613b      	str	r3, [r7, #16]
  uint32_t temp = 0x00;
 800562e:	2300      	movs	r3, #0
 8005630:	61bb      	str	r3, [r7, #24]
  assert_param(IS_GPIO_ALL_INSTANCE(GPIOx));
  assert_param(IS_GPIO_PIN(GPIO_Init->Pin));
  assert_param(IS_GPIO_MODE(GPIO_Init->Mode));

  /* Configure the port pins */
  for(position = 0; position < GPIO_NUMBER; position++)
 8005632:	2300      	movs	r3, #0
 8005634:	61fb      	str	r3, [r7, #28]
 8005636:	e175      	b.n	8005924 <HAL_GPIO_Init+0x30c>
  {
    /* Get the IO position */
    ioposition = ((uint32_t)0x01) << position;
 8005638:	2201      	movs	r2, #1
 800563a:	69fb      	ldr	r3, [r7, #28]
 800563c:	fa02 f303 	lsl.w	r3, r2, r3
 8005640:	617b      	str	r3, [r7, #20]
    /* Get the current IO position */
    iocurrent = (uint32_t)(GPIO_Init->Pin) & ioposition;
 8005642:	683b      	ldr	r3, [r7, #0]
 8005644:	681b      	ldr	r3, [r3, #0]
 8005646:	697a      	ldr	r2, [r7, #20]
 8005648:	4013      	ands	r3, r2
 800564a:	613b      	str	r3, [r7, #16]

    if(iocurrent == ioposition)
 800564c:	693a      	ldr	r2, [r7, #16]
 800564e:	697b      	ldr	r3, [r7, #20]
 8005650:	429a      	cmp	r2, r3
 8005652:	f040 8164 	bne.w	800591e <HAL_GPIO_Init+0x306>
    {
      /*--------------------- GPIO Mode Configuration ------------------------*/
      /* In case of Output or Alternate function mode selection */
      if(((GPIO_Init->Mode & GPIO_MODE) == MODE_OUTPUT) || ((GPIO_Init->Mode & GPIO_MODE) == MODE_AF))
 8005656:	683b      	ldr	r3, [r7, #0]
 8005658:	685b      	ldr	r3, [r3, #4]
 800565a:	f003 0303 	and.w	r3, r3, #3
 800565e:	2b01      	cmp	r3, #1
 8005660:	d005      	beq.n	800566e <HAL_GPIO_Init+0x56>
 8005662:	683b      	ldr	r3, [r7, #0]
 8005664:	685b      	ldr	r3, [r3, #4]
 8005666:	f003 0303 	and.w	r3, r3, #3
 800566a:	2b02      	cmp	r3, #2
 800566c:	d130      	bne.n	80056d0 <HAL_GPIO_Init+0xb8>
      {
        /* Check the Speed parameter */
        assert_param(IS_GPIO_SPEED(GPIO_Init->Speed));
        /* Configure the IO Speed */
        temp = GPIOx->OSPEEDR; 
 800566e:	687b      	ldr	r3, [r7, #4]
 8005670:	689b      	ldr	r3, [r3, #8]
 8005672:	61bb      	str	r3, [r7, #24]
        temp &= ~(GPIO_OSPEEDER_OSPEEDR0 << (position * 2));
 8005674:	69fb      	ldr	r3, [r7, #28]
 8005676:	005b      	lsls	r3, r3, #1
 8005678:	2203      	movs	r2, #3
 800567a:	fa02 f303 	lsl.w	r3, r2, r3
 800567e:	43db      	mvns	r3, r3
 8005680:	69ba      	ldr	r2, [r7, #24]
 8005682:	4013      	ands	r3, r2
 8005684:	61bb      	str	r3, [r7, #24]
        temp |= (GPIO_Init->Speed << (position * 2));
 8005686:	683b      	ldr	r3, [r7, #0]
 8005688:	68da      	ldr	r2, [r3, #12]
 800568a:	69fb      	ldr	r3, [r7, #28]
 800568c:	005b      	lsls	r3, r3, #1
 800568e:	fa02 f303 	lsl.w	r3, r2, r3
 8005692:	69ba      	ldr	r2, [r7, #24]
 8005694:	4313      	orrs	r3, r2
 8005696:	61bb      	str	r3, [r7, #24]
        GPIOx->OSPEEDR = temp;
 8005698:	687b      	ldr	r3, [r7, #4]
 800569a:	69ba      	ldr	r2, [r7, #24]
 800569c:	609a      	str	r2, [r3, #8]

        /* Configure the IO Output Type */
        temp = GPIOx->OTYPER;
 800569e:	687b      	ldr	r3, [r7, #4]
 80056a0:	685b      	ldr	r3, [r3, #4]
 80056a2:	61bb      	str	r3, [r7, #24]
        temp &= ~(GPIO_OTYPER_OT_0 << position) ;
 80056a4:	2201      	movs	r2, #1
 80056a6:	69fb      	ldr	r3, [r7, #28]
 80056a8:	fa02 f303 	lsl.w	r3, r2, r3
 80056ac:	43db      	mvns	r3, r3
 80056ae:	69ba      	ldr	r2, [r7, #24]
 80056b0:	4013      	ands	r3, r2
 80056b2:	61bb      	str	r3, [r7, #24]
        temp |= (((GPIO_Init->Mode & OUTPUT_TYPE) >> OUTPUT_TYPE_Pos) << position);
 80056b4:	683b      	ldr	r3, [r7, #0]
 80056b6:	685b      	ldr	r3, [r3, #4]
 80056b8:	091b      	lsrs	r3, r3, #4
 80056ba:	f003 0201 	and.w	r2, r3, #1
 80056be:	69fb      	ldr	r3, [r7, #28]
 80056c0:	fa02 f303 	lsl.w	r3, r2, r3
 80056c4:	69ba      	ldr	r2, [r7, #24]
 80056c6:	4313      	orrs	r3, r2
 80056c8:	61bb      	str	r3, [r7, #24]
        GPIOx->OTYPER = temp;
 80056ca:	687b      	ldr	r3, [r7, #4]
 80056cc:	69ba      	ldr	r2, [r7, #24]
 80056ce:	605a      	str	r2, [r3, #4]
      }
      
      if((GPIO_Init->Mode & GPIO_MODE) != MODE_ANALOG)
 80056d0:	683b      	ldr	r3, [r7, #0]
 80056d2:	685b      	ldr	r3, [r3, #4]
 80056d4:	f003 0303 	and.w	r3, r3, #3
 80056d8:	2b03      	cmp	r3, #3
 80056da:	d017      	beq.n	800570c <HAL_GPIO_Init+0xf4>
      {
        /* Check the Pull parameter */
        assert_param(IS_GPIO_PULL(GPIO_Init->Pull));

        /* Activate the Pull-up or Pull down resistor for the current IO */
        temp = GPIOx->PUPDR;
 80056dc:	687b      	ldr	r3, [r7, #4]
 80056de:	68db      	ldr	r3, [r3, #12]
 80056e0:	61bb      	str	r3, [r7, #24]
        temp &= ~(GPIO_PUPDR_PUPDR0 << (position * 2));
 80056e2:	69fb      	ldr	r3, [r7, #28]
 80056e4:	005b      	lsls	r3, r3, #1
 80056e6:	2203      	movs	r2, #3
 80056e8:	fa02 f303 	lsl.w	r3, r2, r3
 80056ec:	43db      	mvns	r3, r3
 80056ee:	69ba      	ldr	r2, [r7, #24]
 80056f0:	4013      	ands	r3, r2
 80056f2:	61bb      	str	r3, [r7, #24]
        temp |= ((GPIO_Init->Pull) << (position * 2));
 80056f4:	683b      	ldr	r3, [r7, #0]
 80056f6:	689a      	ldr	r2, [r3, #8]
 80056f8:	69fb      	ldr	r3, [r7, #28]
 80056fa:	005b      	lsls	r3, r3, #1
 80056fc:	fa02 f303 	lsl.w	r3, r2, r3
 8005700:	69ba      	ldr	r2, [r7, #24]
 8005702:	4313      	orrs	r3, r2
 8005704:	61bb      	str	r3, [r7, #24]
        GPIOx->PUPDR = temp;
 8005706:	687b      	ldr	r3, [r7, #4]
 8005708:	69ba      	ldr	r2, [r7, #24]
 800570a:	60da      	str	r2, [r3, #12]
      }

      /* In case of Alternate function mode selection */
      if((GPIO_Init->Mode & GPIO_MODE) == MODE_AF)
 800570c:	683b      	ldr	r3, [r7, #0]
 800570e:	685b      	ldr	r3, [r3, #4]
 8005710:	f003 0303 	and.w	r3, r3, #3
 8005714:	2b02      	cmp	r3, #2
 8005716:	d123      	bne.n	8005760 <HAL_GPIO_Init+0x148>
      {
        /* Check the Alternate function parameter */
        assert_param(IS_GPIO_AF(GPIO_Init->Alternate));

        /* Configure Alternate function mapped with the current IO */
        temp = GPIOx->AFR[position >> 3];
 8005718:	69fb      	ldr	r3, [r7, #28]
 800571a:	08da      	lsrs	r2, r3, #3
 800571c:	687b      	ldr	r3, [r7, #4]
 800571e:	3208      	adds	r2, #8
 8005720:	f853 3022 	ldr.w	r3, [r3, r2, lsl #2]
 8005724:	61bb      	str	r3, [r7, #24]
        temp &= ~((uint32_t)0xF << ((uint32_t)(position & (uint32_t)0x07) * 4)) ;
 8005726:	69fb      	ldr	r3, [r7, #28]
 8005728:	f003 0307 	and.w	r3, r3, #7
 800572c:	009b      	lsls	r3, r3, #2
 800572e:	220f      	movs	r2, #15
 8005730:	fa02 f303 	lsl.w	r3, r2, r3
 8005734:	43db      	mvns	r3, r3
 8005736:	69ba      	ldr	r2, [r7, #24]
 8005738:	4013      	ands	r3, r2
 800573a:	61bb      	str	r3, [r7, #24]
        temp |= ((uint32_t)(GPIO_Init->Alternate) << (((uint32_t)position & (uint32_t)0x07) * 4));
 800573c:	683b      	ldr	r3, [r7, #0]
 800573e:	691a      	ldr	r2, [r3, #16]
 8005740:	69fb      	ldr	r3, [r7, #28]
 8005742:	f003 0307 	and.w	r3, r3, #7
 8005746:	009b      	lsls	r3, r3, #2
 8005748:	fa02 f303 	lsl.w	r3, r2, r3
 800574c:	69ba      	ldr	r2, [r7, #24]
 800574e:	4313      	orrs	r3, r2
 8005750:	61bb      	str	r3, [r7, #24]
        GPIOx->AFR[position >> 3] = temp;
 8005752:	69fb      	ldr	r3, [r7, #28]
 8005754:	08da      	lsrs	r2, r3, #3
 8005756:	687b      	ldr	r3, [r7, #4]
 8005758:	3208      	adds	r2, #8
 800575a:	69b9      	ldr	r1, [r7, #24]
 800575c:	f843 1022 	str.w	r1, [r3, r2, lsl #2]
      }
      
      /* Configure IO Direction mode (Input, Output, Alternate or Analog) */
      temp = GPIOx->MODER;
 8005760:	687b      	ldr	r3, [r7, #4]
 8005762:	681b      	ldr	r3, [r3, #0]
 8005764:	61bb      	str	r3, [r7, #24]
      temp &= ~(GPIO_MODER_MODER0 << (position * 2));
 8005766:	69fb      	ldr	r3, [r7, #28]
 8005768:	005b      	lsls	r3, r3, #1
 800576a:	2203      	movs	r2, #3
 800576c:	fa02 f303 	lsl.w	r3, r2, r3
 8005770:	43db      	mvns	r3, r3
 8005772:	69ba      	ldr	r2, [r7, #24]
 8005774:	4013      	ands	r3, r2
 8005776:	61bb      	str	r3, [r7, #24]
      temp |= ((GPIO_Init->Mode & GPIO_MODE) << (position * 2));
 8005778:	683b      	ldr	r3, [r7, #0]
 800577a:	685b      	ldr	r3, [r3, #4]
 800577c:	f003 0203 	and.w	r2, r3, #3
 8005780:	69fb      	ldr	r3, [r7, #28]
 8005782:	005b      	lsls	r3, r3, #1
 8005784:	fa02 f303 	lsl.w	r3, r2, r3
 8005788:	69ba      	ldr	r2, [r7, #24]
 800578a:	4313      	orrs	r3, r2
 800578c:	61bb      	str	r3, [r7, #24]
      GPIOx->MODER = temp;
 800578e:	687b      	ldr	r3, [r7, #4]
 8005790:	69ba      	ldr	r2, [r7, #24]
 8005792:	601a      	str	r2, [r3, #0]

      /*--------------------- EXTI Mode Configuration ------------------------*/
      /* Configure the External Interrupt or event for the current IO */
      if((GPIO_Init->Mode & EXTI_MODE) != 0x00u)
 8005794:	683b      	ldr	r3, [r7, #0]
 8005796:	685b      	ldr	r3, [r3, #4]
 8005798:	f403 3340 	and.w	r3, r3, #196608	; 0x30000
 800579c:	2b00      	cmp	r3, #0
 800579e:	f000 80be 	beq.w	800591e <HAL_GPIO_Init+0x306>
      {
        /* Enable SYSCFG Clock */
        __HAL_RCC_SYSCFG_CLK_ENABLE();
 80057a2:	4b66      	ldr	r3, [pc, #408]	; (800593c <HAL_GPIO_Init+0x324>)
 80057a4:	6c5b      	ldr	r3, [r3, #68]	; 0x44
 80057a6:	4a65      	ldr	r2, [pc, #404]	; (800593c <HAL_GPIO_Init+0x324>)
 80057a8:	f443 4380 	orr.w	r3, r3, #16384	; 0x4000
 80057ac:	6453      	str	r3, [r2, #68]	; 0x44
 80057ae:	4b63      	ldr	r3, [pc, #396]	; (800593c <HAL_GPIO_Init+0x324>)
 80057b0:	6c5b      	ldr	r3, [r3, #68]	; 0x44
 80057b2:	f403 4380 	and.w	r3, r3, #16384	; 0x4000
 80057b6:	60fb      	str	r3, [r7, #12]
 80057b8:	68fb      	ldr	r3, [r7, #12]

        temp = SYSCFG->EXTICR[position >> 2];
 80057ba:	4a61      	ldr	r2, [pc, #388]	; (8005940 <HAL_GPIO_Init+0x328>)
 80057bc:	69fb      	ldr	r3, [r7, #28]
 80057be:	089b      	lsrs	r3, r3, #2
 80057c0:	3302      	adds	r3, #2
 80057c2:	f852 3023 	ldr.w	r3, [r2, r3, lsl #2]
 80057c6:	61bb      	str	r3, [r7, #24]
        temp &= ~(((uint32_t)0x0F) << (4 * (position & 0x03)));
 80057c8:	69fb      	ldr	r3, [r7, #28]
 80057ca:	f003 0303 	and.w	r3, r3, #3
 80057ce:	009b      	lsls	r3, r3, #2
 80057d0:	220f      	movs	r2, #15
 80057d2:	fa02 f303 	lsl.w	r3, r2, r3
 80057d6:	43db      	mvns	r3, r3
 80057d8:	69ba      	ldr	r2, [r7, #24]
 80057da:	4013      	ands	r3, r2
 80057dc:	61bb      	str	r3, [r7, #24]
        temp |= ((uint32_t)(GPIO_GET_INDEX(GPIOx)) << (4 * (position & 0x03)));
 80057de:	687b      	ldr	r3, [r7, #4]
 80057e0:	4a58      	ldr	r2, [pc, #352]	; (8005944 <HAL_GPIO_Init+0x32c>)
 80057e2:	4293      	cmp	r3, r2
 80057e4:	d037      	beq.n	8005856 <HAL_GPIO_Init+0x23e>
 80057e6:	687b      	ldr	r3, [r7, #4]
 80057e8:	4a57      	ldr	r2, [pc, #348]	; (8005948 <HAL_GPIO_Init+0x330>)
 80057ea:	4293      	cmp	r3, r2
 80057ec:	d031      	beq.n	8005852 <HAL_GPIO_Init+0x23a>
 80057ee:	687b      	ldr	r3, [r7, #4]
 80057f0:	4a56      	ldr	r2, [pc, #344]	; (800594c <HAL_GPIO_Init+0x334>)
 80057f2:	4293      	cmp	r3, r2
 80057f4:	d02b      	beq.n	800584e <HAL_GPIO_Init+0x236>
 80057f6:	687b      	ldr	r3, [r7, #4]
 80057f8:	4a55      	ldr	r2, [pc, #340]	; (8005950 <HAL_GPIO_Init+0x338>)
 80057fa:	4293      	cmp	r3, r2
 80057fc:	d025      	beq.n	800584a <HAL_GPIO_Init+0x232>
 80057fe:	687b      	ldr	r3, [r7, #4]
 8005800:	4a54      	ldr	r2, [pc, #336]	; (8005954 <HAL_GPIO_Init+0x33c>)
 8005802:	4293      	cmp	r3, r2
 8005804:	d01f      	beq.n	8005846 <HAL_GPIO_Init+0x22e>
 8005806:	687b      	ldr	r3, [r7, #4]
 8005808:	4a53      	ldr	r2, [pc, #332]	; (8005958 <HAL_GPIO_Init+0x340>)
 800580a:	4293      	cmp	r3, r2
 800580c:	d019      	beq.n	8005842 <HAL_GPIO_Init+0x22a>
 800580e:	687b      	ldr	r3, [r7, #4]
 8005810:	4a52      	ldr	r2, [pc, #328]	; (800595c <HAL_GPIO_Init+0x344>)
 8005812:	4293      	cmp	r3, r2
 8005814:	d013      	beq.n	800583e <HAL_GPIO_Init+0x226>
 8005816:	687b      	ldr	r3, [r7, #4]
 8005818:	4a51      	ldr	r2, [pc, #324]	; (8005960 <HAL_GPIO_Init+0x348>)
 800581a:	4293      	cmp	r3, r2
 800581c:	d00d      	beq.n	800583a <HAL_GPIO_Init+0x222>
 800581e:	687b      	ldr	r3, [r7, #4]
 8005820:	4a50      	ldr	r2, [pc, #320]	; (8005964 <HAL_GPIO_Init+0x34c>)
 8005822:	4293      	cmp	r3, r2
 8005824:	d007      	beq.n	8005836 <HAL_GPIO_Init+0x21e>
 8005826:	687b      	ldr	r3, [r7, #4]
 8005828:	4a4f      	ldr	r2, [pc, #316]	; (8005968 <HAL_GPIO_Init+0x350>)
 800582a:	4293      	cmp	r3, r2
 800582c:	d101      	bne.n	8005832 <HAL_GPIO_Init+0x21a>
 800582e:	2309      	movs	r3, #9
 8005830:	e012      	b.n	8005858 <HAL_GPIO_Init+0x240>
 8005832:	230a      	movs	r3, #10
 8005834:	e010      	b.n	8005858 <HAL_GPIO_Init+0x240>
 8005836:	2308      	movs	r3, #8
 8005838:	e00e      	b.n	8005858 <HAL_GPIO_Init+0x240>
 800583a:	2307      	movs	r3, #7
 800583c:	e00c      	b.n	8005858 <HAL_GPIO_Init+0x240>
 800583e:	2306      	movs	r3, #6
 8005840:	e00a      	b.n	8005858 <HAL_GPIO_Init+0x240>
 8005842:	2305      	movs	r3, #5
 8005844:	e008      	b.n	8005858 <HAL_GPIO_Init+0x240>
 8005846:	2304      	movs	r3, #4
 8005848:	e006      	b.n	8005858 <HAL_GPIO_Init+0x240>
 800584a:	2303      	movs	r3, #3
 800584c:	e004      	b.n	8005858 <HAL_GPIO_Init+0x240>
 800584e:	2302      	movs	r3, #2
 8005850:	e002      	b.n	8005858 <HAL_GPIO_Init+0x240>
 8005852:	2301      	movs	r3, #1
 8005854:	e000      	b.n	8005858 <HAL_GPIO_Init+0x240>
 8005856:	2300      	movs	r3, #0
 8005858:	69fa      	ldr	r2, [r7, #28]
 800585a:	f002 0203 	and.w	r2, r2, #3
 800585e:	0092      	lsls	r2, r2, #2
 8005860:	4093      	lsls	r3, r2
 8005862:	69ba      	ldr	r2, [r7, #24]
 8005864:	4313      	orrs	r3, r2
 8005866:	61bb      	str	r3, [r7, #24]
        SYSCFG->EXTICR[position >> 2] = temp;
 8005868:	4935      	ldr	r1, [pc, #212]	; (8005940 <HAL_GPIO_Init+0x328>)
 800586a:	69fb      	ldr	r3, [r7, #28]
 800586c:	089b      	lsrs	r3, r3, #2
 800586e:	3302      	adds	r3, #2
 8005870:	69ba      	ldr	r2, [r7, #24]
 8005872:	f841 2023 	str.w	r2, [r1, r3, lsl #2]

        /* Clear Rising Falling edge configuration */
        temp = EXTI->RTSR;
 8005876:	4b3d      	ldr	r3, [pc, #244]	; (800596c <HAL_GPIO_Init+0x354>)
 8005878:	689b      	ldr	r3, [r3, #8]
 800587a:	61bb      	str	r3, [r7, #24]
        temp &= ~((uint32_t)iocurrent);
 800587c:	693b      	ldr	r3, [r7, #16]
 800587e:	43db      	mvns	r3, r3
 8005880:	69ba      	ldr	r2, [r7, #24]
 8005882:	4013      	ands	r3, r2
 8005884:	61bb      	str	r3, [r7, #24]
        if((GPIO_Init->Mode & TRIGGER_RISING) != 0x00u)
 8005886:	683b      	ldr	r3, [r7, #0]
 8005888:	685b      	ldr	r3, [r3, #4]
 800588a:	f403 1380 	and.w	r3, r3, #1048576	; 0x100000
 800588e:	2b00      	cmp	r3, #0
 8005890:	d003      	beq.n	800589a <HAL_GPIO_Init+0x282>
        {
          temp |= iocurrent;
 8005892:	69ba      	ldr	r2, [r7, #24]
 8005894:	693b      	ldr	r3, [r7, #16]
 8005896:	4313      	orrs	r3, r2
 8005898:	61bb      	str	r3, [r7, #24]
        }
        EXTI->RTSR = temp;
 800589a:	4a34      	ldr	r2, [pc, #208]	; (800596c <HAL_GPIO_Init+0x354>)
 800589c:	69bb      	ldr	r3, [r7, #24]
 800589e:	6093      	str	r3, [r2, #8]

        temp = EXTI->FTSR;
 80058a0:	4b32      	ldr	r3, [pc, #200]	; (800596c <HAL_GPIO_Init+0x354>)
 80058a2:	68db      	ldr	r3, [r3, #12]
 80058a4:	61bb      	str	r3, [r7, #24]
        temp &= ~((uint32_t)iocurrent);
 80058a6:	693b      	ldr	r3, [r7, #16]
 80058a8:	43db      	mvns	r3, r3
 80058aa:	69ba      	ldr	r2, [r7, #24]
 80058ac:	4013      	ands	r3, r2
 80058ae:	61bb      	str	r3, [r7, #24]
        if((GPIO_Init->Mode & TRIGGER_FALLING) != 0x00u)
 80058b0:	683b      	ldr	r3, [r7, #0]
 80058b2:	685b      	ldr	r3, [r3, #4]
 80058b4:	f403 1300 	and.w	r3, r3, #2097152	; 0x200000
 80058b8:	2b00      	cmp	r3, #0
 80058ba:	d003      	beq.n	80058c4 <HAL_GPIO_Init+0x2ac>
        {
          temp |= iocurrent;
 80058bc:	69ba      	ldr	r2, [r7, #24]
 80058be:	693b      	ldr	r3, [r7, #16]
 80058c0:	4313      	orrs	r3, r2
 80058c2:	61bb      	str	r3, [r7, #24]
        }
        EXTI->FTSR = temp;
 80058c4:	4a29      	ldr	r2, [pc, #164]	; (800596c <HAL_GPIO_Init+0x354>)
 80058c6:	69bb      	ldr	r3, [r7, #24]
 80058c8:	60d3      	str	r3, [r2, #12]

        temp = EXTI->EMR;
 80058ca:	4b28      	ldr	r3, [pc, #160]	; (800596c <HAL_GPIO_Init+0x354>)
 80058cc:	685b      	ldr	r3, [r3, #4]
 80058ce:	61bb      	str	r3, [r7, #24]
        temp &= ~((uint32_t)iocurrent);
 80058d0:	693b      	ldr	r3, [r7, #16]
 80058d2:	43db      	mvns	r3, r3
 80058d4:	69ba      	ldr	r2, [r7, #24]
 80058d6:	4013      	ands	r3, r2
 80058d8:	61bb      	str	r3, [r7, #24]
        if((GPIO_Init->Mode & EXTI_EVT) != 0x00u)
 80058da:	683b      	ldr	r3, [r7, #0]
 80058dc:	685b      	ldr	r3, [r3, #4]
 80058de:	f403 3300 	and.w	r3, r3, #131072	; 0x20000
 80058e2:	2b00      	cmp	r3, #0
 80058e4:	d003      	beq.n	80058ee <HAL_GPIO_Init+0x2d6>
        {
          temp |= iocurrent;
 80058e6:	69ba      	ldr	r2, [r7, #24]
 80058e8:	693b      	ldr	r3, [r7, #16]
 80058ea:	4313      	orrs	r3, r2
 80058ec:	61bb      	str	r3, [r7, #24]
        }
        EXTI->EMR = temp;
 80058ee:	4a1f      	ldr	r2, [pc, #124]	; (800596c <HAL_GPIO_Init+0x354>)
 80058f0:	69bb      	ldr	r3, [r7, #24]
 80058f2:	6053      	str	r3, [r2, #4]

        /* Clear EXTI line configuration */
        temp = EXTI->IMR;
 80058f4:	4b1d      	ldr	r3, [pc, #116]	; (800596c <HAL_GPIO_Init+0x354>)
 80058f6:	681b      	ldr	r3, [r3, #0]
 80058f8:	61bb      	str	r3, [r7, #24]
        temp &= ~((uint32_t)iocurrent);
 80058fa:	693b      	ldr	r3, [r7, #16]
 80058fc:	43db      	mvns	r3, r3
 80058fe:	69ba      	ldr	r2, [r7, #24]
 8005900:	4013      	ands	r3, r2
 8005902:	61bb      	str	r3, [r7, #24]
        if((GPIO_Init->Mode & EXTI_IT) != 0x00u)
 8005904:	683b      	ldr	r3, [r7, #0]
 8005906:	685b      	ldr	r3, [r3, #4]
 8005908:	f403 3380 	and.w	r3, r3, #65536	; 0x10000
 800590c:	2b00      	cmp	r3, #0
 800590e:	d003      	beq.n	8005918 <HAL_GPIO_Init+0x300>
        {
          temp |= iocurrent;
 8005910:	69ba      	ldr	r2, [r7, #24]
 8005912:	693b      	ldr	r3, [r7, #16]
 8005914:	4313      	orrs	r3, r2
 8005916:	61bb      	str	r3, [r7, #24]
        }
        EXTI->IMR = temp;
 8005918:	4a14      	ldr	r2, [pc, #80]	; (800596c <HAL_GPIO_Init+0x354>)
 800591a:	69bb      	ldr	r3, [r7, #24]
 800591c:	6013      	str	r3, [r2, #0]
  for(position = 0; position < GPIO_NUMBER; position++)
 800591e:	69fb      	ldr	r3, [r7, #28]
 8005920:	3301      	adds	r3, #1
 8005922:	61fb      	str	r3, [r7, #28]
 8005924:	69fb      	ldr	r3, [r7, #28]
 8005926:	2b0f      	cmp	r3, #15
 8005928:	f67f ae86 	bls.w	8005638 <HAL_GPIO_Init+0x20>
      }
    }
  }
}
 800592c:	bf00      	nop
 800592e:	bf00      	nop
 8005930:	3724      	adds	r7, #36	; 0x24
 8005932:	46bd      	mov	sp, r7
 8005934:	f85d 7b04 	ldr.w	r7, [sp], #4
 8005938:	4770      	bx	lr
 800593a:	bf00      	nop
 800593c:	40023800 	.word	0x40023800
 8005940:	40013800 	.word	0x40013800
 8005944:	40020000 	.word	0x40020000
 8005948:	40020400 	.word	0x40020400
 800594c:	40020800 	.word	0x40020800
 8005950:	40020c00 	.word	0x40020c00
 8005954:	40021000 	.word	0x40021000
 8005958:	40021400 	.word	0x40021400
 800595c:	40021800 	.word	0x40021800
 8005960:	40021c00 	.word	0x40021c00
 8005964:	40022000 	.word	0x40022000
 8005968:	40022400 	.word	0x40022400
 800596c:	40013c00 	.word	0x40013c00

08005970 <HAL_GPIO_WritePin>:
  *            @arg GPIO_PIN_RESET: to clear the port pin
  *            @arg GPIO_PIN_SET: to set the port pin
  * @retval None
  */
void HAL_GPIO_WritePin(GPIO_TypeDef* GPIOx, uint16_t GPIO_Pin, GPIO_PinState PinState)
{
 8005970:	b480      	push	{r7}
 8005972:	b083      	sub	sp, #12
 8005974:	af00      	add	r7, sp, #0
 8005976:	6078      	str	r0, [r7, #4]
 8005978:	460b      	mov	r3, r1
 800597a:	807b      	strh	r3, [r7, #2]
 800597c:	4613      	mov	r3, r2
 800597e:	707b      	strb	r3, [r7, #1]
  /* Check the parameters */
  assert_param(IS_GPIO_PIN(GPIO_Pin));
  assert_param(IS_GPIO_PIN_ACTION(PinState));

  if(PinState != GPIO_PIN_RESET)
 8005980:	787b      	ldrb	r3, [r7, #1]
 8005982:	2b00      	cmp	r3, #0
 8005984:	d003      	beq.n	800598e <HAL_GPIO_WritePin+0x1e>
  {
    GPIOx->BSRR = GPIO_Pin;
 8005986:	887a      	ldrh	r2, [r7, #2]
 8005988:	687b      	ldr	r3, [r7, #4]
 800598a:	619a      	str	r2, [r3, #24]
  }
  else
  {
    GPIOx->BSRR = (uint32_t)GPIO_Pin << 16;
  }
}
 800598c:	e003      	b.n	8005996 <HAL_GPIO_WritePin+0x26>
    GPIOx->BSRR = (uint32_t)GPIO_Pin << 16;
 800598e:	887b      	ldrh	r3, [r7, #2]
 8005990:	041a      	lsls	r2, r3, #16
 8005992:	687b      	ldr	r3, [r7, #4]
 8005994:	619a      	str	r2, [r3, #24]
}
 8005996:	bf00      	nop
 8005998:	370c      	adds	r7, #12
 800599a:	46bd      	mov	sp, r7
 800599c:	f85d 7b04 	ldr.w	r7, [sp], #4
 80059a0:	4770      	bx	lr

080059a2 <HAL_GPIO_TogglePin>:
  * @param  GPIOx Where x can be (A..I) to select the GPIO peripheral.
  * @param  GPIO_Pin Specifies the pins to be toggled.
  * @retval None
  */
void HAL_GPIO_TogglePin(GPIO_TypeDef* GPIOx, uint16_t GPIO_Pin)
{
 80059a2:	b480      	push	{r7}
 80059a4:	b085      	sub	sp, #20
 80059a6:	af00      	add	r7, sp, #0
 80059a8:	6078      	str	r0, [r7, #4]
 80059aa:	460b      	mov	r3, r1
 80059ac:	807b      	strh	r3, [r7, #2]

  /* Check the parameters */
  assert_param(IS_GPIO_PIN(GPIO_Pin));

  /* get current Output Data Register value */
  odr = GPIOx->ODR;
 80059ae:	687b      	ldr	r3, [r7, #4]
 80059b0:	695b      	ldr	r3, [r3, #20]
 80059b2:	60fb      	str	r3, [r7, #12]

  /* Set selected pins that were at low level, and reset ones that were high */
  GPIOx->BSRR = ((odr & GPIO_Pin) << GPIO_NUMBER) | (~odr & GPIO_Pin);
 80059b4:	887a      	ldrh	r2, [r7, #2]
 80059b6:	68fb      	ldr	r3, [r7, #12]
 80059b8:	4013      	ands	r3, r2
 80059ba:	041a      	lsls	r2, r3, #16
 80059bc:	68fb      	ldr	r3, [r7, #12]
 80059be:	43d9      	mvns	r1, r3
 80059c0:	887b      	ldrh	r3, [r7, #2]
 80059c2:	400b      	ands	r3, r1
 80059c4:	431a      	orrs	r2, r3
 80059c6:	687b      	ldr	r3, [r7, #4]
 80059c8:	619a      	str	r2, [r3, #24]
}
 80059ca:	bf00      	nop
 80059cc:	3714      	adds	r7, #20
 80059ce:	46bd      	mov	sp, r7
 80059d0:	f85d 7b04 	ldr.w	r7, [sp], #4
 80059d4:	4770      	bx	lr
	...

080059d8 <HAL_GPIO_EXTI_IRQHandler>:
  * @brief  This function handles EXTI interrupt request.
  * @param  GPIO_Pin Specifies the pins connected EXTI line
  * @retval None
  */
void HAL_GPIO_EXTI_IRQHandler(uint16_t GPIO_Pin)
{
 80059d8:	b580      	push	{r7, lr}
 80059da:	b082      	sub	sp, #8
 80059dc:	af00      	add	r7, sp, #0
 80059de:	4603      	mov	r3, r0
 80059e0:	80fb      	strh	r3, [r7, #6]
  /* EXTI line interrupt detected */
  if(__HAL_GPIO_EXTI_GET_IT(GPIO_Pin) != RESET)
 80059e2:	4b08      	ldr	r3, [pc, #32]	; (8005a04 <HAL_GPIO_EXTI_IRQHandler+0x2c>)
 80059e4:	695a      	ldr	r2, [r3, #20]
 80059e6:	88fb      	ldrh	r3, [r7, #6]
 80059e8:	4013      	ands	r3, r2
 80059ea:	2b00      	cmp	r3, #0
 80059ec:	d006      	beq.n	80059fc <HAL_GPIO_EXTI_IRQHandler+0x24>
  {
    __HAL_GPIO_EXTI_CLEAR_IT(GPIO_Pin);
 80059ee:	4a05      	ldr	r2, [pc, #20]	; (8005a04 <HAL_GPIO_EXTI_IRQHandler+0x2c>)
 80059f0:	88fb      	ldrh	r3, [r7, #6]
 80059f2:	6153      	str	r3, [r2, #20]
    HAL_GPIO_EXTI_Callback(GPIO_Pin);
 80059f4:	88fb      	ldrh	r3, [r7, #6]
 80059f6:	4618      	mov	r0, r3
 80059f8:	f7fe f9e6 	bl	8003dc8 <HAL_GPIO_EXTI_Callback>
  }
}
 80059fc:	bf00      	nop
 80059fe:	3708      	adds	r7, #8
 8005a00:	46bd      	mov	sp, r7
 8005a02:	bd80      	pop	{r7, pc}
 8005a04:	40013c00 	.word	0x40013c00

08005a08 <HAL_IWDG_Init>:
  * @param  hiwdg  pointer to a IWDG_HandleTypeDef structure that contains
  *                the configuration information for the specified IWDG module.
  * @retval HAL status
  */
HAL_StatusTypeDef HAL_IWDG_Init(IWDG_HandleTypeDef *hiwdg)
{
 8005a08:	b580      	push	{r7, lr}
 8005a0a:	b084      	sub	sp, #16
 8005a0c:	af00      	add	r7, sp, #0
 8005a0e:	6078      	str	r0, [r7, #4]
  uint32_t tickstart;

  /* Check the IWDG handle allocation */
  if (hiwdg == NULL)
 8005a10:	687b      	ldr	r3, [r7, #4]
 8005a12:	2b00      	cmp	r3, #0
 8005a14:	d101      	bne.n	8005a1a <HAL_IWDG_Init+0x12>
  {
    return HAL_ERROR;
 8005a16:	2301      	movs	r3, #1
 8005a18:	e041      	b.n	8005a9e <HAL_IWDG_Init+0x96>
  assert_param(IS_IWDG_PRESCALER(hiwdg->Init.Prescaler));
  assert_param(IS_IWDG_RELOAD(hiwdg->Init.Reload));
  assert_param(IS_IWDG_WINDOW(hiwdg->Init.Window));

  /* Enable IWDG. LSI is turned on automatically */
  __HAL_IWDG_START(hiwdg);
 8005a1a:	687b      	ldr	r3, [r7, #4]
 8005a1c:	681b      	ldr	r3, [r3, #0]
 8005a1e:	f64c 42cc 	movw	r2, #52428	; 0xcccc
 8005a22:	601a      	str	r2, [r3, #0]

  /* Enable write access to IWDG_PR, IWDG_RLR and IWDG_WINR registers by writing
  0x5555 in KR */
  IWDG_ENABLE_WRITE_ACCESS(hiwdg);
 8005a24:	687b      	ldr	r3, [r7, #4]
 8005a26:	681b      	ldr	r3, [r3, #0]
 8005a28:	f245 5255 	movw	r2, #21845	; 0x5555
 8005a2c:	601a      	str	r2, [r3, #0]

  /* Write to IWDG registers the Prescaler & Reload values to work with */
  hiwdg->Instance->PR = hiwdg->Init.Prescaler;
 8005a2e:	687b      	ldr	r3, [r7, #4]
 8005a30:	681b      	ldr	r3, [r3, #0]
 8005a32:	687a      	ldr	r2, [r7, #4]
 8005a34:	6852      	ldr	r2, [r2, #4]
 8005a36:	605a      	str	r2, [r3, #4]
  hiwdg->Instance->RLR = hiwdg->Init.Reload;
 8005a38:	687b      	ldr	r3, [r7, #4]
 8005a3a:	681b      	ldr	r3, [r3, #0]
 8005a3c:	687a      	ldr	r2, [r7, #4]
 8005a3e:	6892      	ldr	r2, [r2, #8]
 8005a40:	609a      	str	r2, [r3, #8]

  /* Check pending flag, if previous update not done, return timeout */
  tickstart = HAL_GetTick();
 8005a42:	f7ff f8cf 	bl	8004be4 <HAL_GetTick>
 8005a46:	60f8      	str	r0, [r7, #12]

  /* Wait for register to be updated */
  while ((hiwdg->Instance->SR & IWDG_KERNEL_UPDATE_FLAGS) != 0x00u)
 8005a48:	e00f      	b.n	8005a6a <HAL_IWDG_Init+0x62>
  {
    if ((HAL_GetTick() - tickstart) > HAL_IWDG_DEFAULT_TIMEOUT)
 8005a4a:	f7ff f8cb 	bl	8004be4 <HAL_GetTick>
 8005a4e:	4602      	mov	r2, r0
 8005a50:	68fb      	ldr	r3, [r7, #12]
 8005a52:	1ad3      	subs	r3, r2, r3
 8005a54:	2b31      	cmp	r3, #49	; 0x31
 8005a56:	d908      	bls.n	8005a6a <HAL_IWDG_Init+0x62>
    {
      if ((hiwdg->Instance->SR & IWDG_KERNEL_UPDATE_FLAGS) != 0x00u)
 8005a58:	687b      	ldr	r3, [r7, #4]
 8005a5a:	681b      	ldr	r3, [r3, #0]
 8005a5c:	68db      	ldr	r3, [r3, #12]
 8005a5e:	f003 0307 	and.w	r3, r3, #7
 8005a62:	2b00      	cmp	r3, #0
 8005a64:	d001      	beq.n	8005a6a <HAL_IWDG_Init+0x62>
      {
        return HAL_TIMEOUT;
 8005a66:	2303      	movs	r3, #3
 8005a68:	e019      	b.n	8005a9e <HAL_IWDG_Init+0x96>
  while ((hiwdg->Instance->SR & IWDG_KERNEL_UPDATE_FLAGS) != 0x00u)
 8005a6a:	687b      	ldr	r3, [r7, #4]
 8005a6c:	681b      	ldr	r3, [r3, #0]
 8005a6e:	68db      	ldr	r3, [r3, #12]
 8005a70:	f003 0307 	and.w	r3, r3, #7
 8005a74:	2b00      	cmp	r3, #0
 8005a76:	d1e8      	bne.n	8005a4a <HAL_IWDG_Init+0x42>
    }
  }

  /* If window parameter is different than current value, modify window
  register */
  if (hiwdg->Instance->WINR != hiwdg->Init.Window)
 8005a78:	687b      	ldr	r3, [r7, #4]
 8005a7a:	681b      	ldr	r3, [r3, #0]
 8005a7c:	691a      	ldr	r2, [r3, #16]
 8005a7e:	687b      	ldr	r3, [r7, #4]
 8005a80:	68db      	ldr	r3, [r3, #12]
 8005a82:	429a      	cmp	r2, r3
 8005a84:	d005      	beq.n	8005a92 <HAL_IWDG_Init+0x8a>
  {
    /* Write to IWDG WINR the IWDG_Window value to compare with. In any case,
    even if window feature is disabled, Watchdog will be reloaded by writing
    windows register */
    hiwdg->Instance->WINR = hiwdg->Init.Window;
 8005a86:	687b      	ldr	r3, [r7, #4]
 8005a88:	681b      	ldr	r3, [r3, #0]
 8005a8a:	687a      	ldr	r2, [r7, #4]
 8005a8c:	68d2      	ldr	r2, [r2, #12]
 8005a8e:	611a      	str	r2, [r3, #16]
 8005a90:	e004      	b.n	8005a9c <HAL_IWDG_Init+0x94>
  }
  else
  {
    /* Reload IWDG counter with value defined in the reload register */
    __HAL_IWDG_RELOAD_COUNTER(hiwdg);
 8005a92:	687b      	ldr	r3, [r7, #4]
 8005a94:	681b      	ldr	r3, [r3, #0]
 8005a96:	f64a 22aa 	movw	r2, #43690	; 0xaaaa
 8005a9a:	601a      	str	r2, [r3, #0]
  }

  /* Return function status */
  return HAL_OK;
 8005a9c:	2300      	movs	r3, #0
}
 8005a9e:	4618      	mov	r0, r3
 8005aa0:	3710      	adds	r7, #16
 8005aa2:	46bd      	mov	sp, r7
 8005aa4:	bd80      	pop	{r7, pc}

08005aa6 <HAL_IWDG_Refresh>:
  * @param  hiwdg  pointer to a IWDG_HandleTypeDef structure that contains
  *                the configuration information for the specified IWDG module.
  * @retval HAL status
  */
HAL_StatusTypeDef HAL_IWDG_Refresh(IWDG_HandleTypeDef *hiwdg)
{
 8005aa6:	b480      	push	{r7}
 8005aa8:	b083      	sub	sp, #12
 8005aaa:	af00      	add	r7, sp, #0
 8005aac:	6078      	str	r0, [r7, #4]
  /* Reload IWDG counter with value defined in the reload register */
  __HAL_IWDG_RELOAD_COUNTER(hiwdg);
 8005aae:	687b      	ldr	r3, [r7, #4]
 8005ab0:	681b      	ldr	r3, [r3, #0]
 8005ab2:	f64a 22aa 	movw	r2, #43690	; 0xaaaa
 8005ab6:	601a      	str	r2, [r3, #0]

  /* Return function status */
  return HAL_OK;
 8005ab8:	2300      	movs	r3, #0
}
 8005aba:	4618      	mov	r0, r3
 8005abc:	370c      	adds	r7, #12
 8005abe:	46bd      	mov	sp, r7
 8005ac0:	f85d 7b04 	ldr.w	r7, [sp], #4
 8005ac4:	4770      	bx	lr
	...

08005ac8 <HAL_PWR_EnableBkUpAccess>:
  * @note If the HSE divided by 2, 3, ..31 is used as the RTC clock, the 
  *         Backup Domain Access should be kept enabled.
  * @retval None
  */
void HAL_PWR_EnableBkUpAccess(void)
{
 8005ac8:	b480      	push	{r7}
 8005aca:	af00      	add	r7, sp, #0
  /* Enable access to RTC and backup registers */
  SET_BIT(PWR->CR1, PWR_CR1_DBP);
 8005acc:	4b05      	ldr	r3, [pc, #20]	; (8005ae4 <HAL_PWR_EnableBkUpAccess+0x1c>)
 8005ace:	681b      	ldr	r3, [r3, #0]
 8005ad0:	4a04      	ldr	r2, [pc, #16]	; (8005ae4 <HAL_PWR_EnableBkUpAccess+0x1c>)
 8005ad2:	f443 7380 	orr.w	r3, r3, #256	; 0x100
 8005ad6:	6013      	str	r3, [r2, #0]
}
 8005ad8:	bf00      	nop
 8005ada:	46bd      	mov	sp, r7
 8005adc:	f85d 7b04 	ldr.w	r7, [sp], #4
 8005ae0:	4770      	bx	lr
 8005ae2:	bf00      	nop
 8005ae4:	40007000 	.word	0x40007000

08005ae8 <HAL_RCC_OscConfig>:
  *         supported by this function. User should request a transition to HSE Off
  *         first and then HSE On or HSE Bypass.
  * @retval HAL status
  */
HAL_StatusTypeDef HAL_RCC_OscConfig(RCC_OscInitTypeDef  *RCC_OscInitStruct)
{
 8005ae8:	b580      	push	{r7, lr}
 8005aea:	b086      	sub	sp, #24
 8005aec:	af00      	add	r7, sp, #0
 8005aee:	6078      	str	r0, [r7, #4]
  uint32_t tickstart;
  uint32_t pll_config;
  FlagStatus pwrclkchanged = RESET;
 8005af0:	2300      	movs	r3, #0
 8005af2:	75fb      	strb	r3, [r7, #23]

  /* Check Null pointer */
  if (RCC_OscInitStruct == NULL)
 8005af4:	687b      	ldr	r3, [r7, #4]
 8005af6:	2b00      	cmp	r3, #0
 8005af8:	d101      	bne.n	8005afe <HAL_RCC_OscConfig+0x16>
  {
    return HAL_ERROR;
 8005afa:	2301      	movs	r3, #1
 8005afc:	e291      	b.n	8006022 <HAL_RCC_OscConfig+0x53a>

  /* Check the parameters */
  assert_param(IS_RCC_OSCILLATORTYPE(RCC_OscInitStruct->OscillatorType));

  /*------------------------------- HSE Configuration ------------------------*/
  if (((RCC_OscInitStruct->OscillatorType) & RCC_OSCILLATORTYPE_HSE) == RCC_OSCILLATORTYPE_HSE)
 8005afe:	687b      	ldr	r3, [r7, #4]
 8005b00:	681b      	ldr	r3, [r3, #0]
 8005b02:	f003 0301 	and.w	r3, r3, #1
 8005b06:	2b00      	cmp	r3, #0
 8005b08:	f000 8087 	beq.w	8005c1a <HAL_RCC_OscConfig+0x132>
  {
    /* Check the parameters */
    assert_param(IS_RCC_HSE(RCC_OscInitStruct->HSEState));
    /* When the HSE is used as system clock or clock source for PLL, It can not be disabled */
    if ((__HAL_RCC_GET_SYSCLK_SOURCE() == RCC_SYSCLKSOURCE_STATUS_HSE)
 8005b0c:	4b96      	ldr	r3, [pc, #600]	; (8005d68 <HAL_RCC_OscConfig+0x280>)
 8005b0e:	689b      	ldr	r3, [r3, #8]
 8005b10:	f003 030c 	and.w	r3, r3, #12
 8005b14:	2b04      	cmp	r3, #4
 8005b16:	d00c      	beq.n	8005b32 <HAL_RCC_OscConfig+0x4a>
        || ((__HAL_RCC_GET_SYSCLK_SOURCE() == RCC_SYSCLKSOURCE_STATUS_PLLCLK) && ((RCC->PLLCFGR & RCC_PLLCFGR_PLLSRC) == RCC_PLLCFGR_PLLSRC_HSE)))
 8005b18:	4b93      	ldr	r3, [pc, #588]	; (8005d68 <HAL_RCC_OscConfig+0x280>)
 8005b1a:	689b      	ldr	r3, [r3, #8]
 8005b1c:	f003 030c 	and.w	r3, r3, #12
 8005b20:	2b08      	cmp	r3, #8
 8005b22:	d112      	bne.n	8005b4a <HAL_RCC_OscConfig+0x62>
 8005b24:	4b90      	ldr	r3, [pc, #576]	; (8005d68 <HAL_RCC_OscConfig+0x280>)
 8005b26:	685b      	ldr	r3, [r3, #4]
 8005b28:	f403 0380 	and.w	r3, r3, #4194304	; 0x400000
 8005b2c:	f5b3 0f80 	cmp.w	r3, #4194304	; 0x400000
 8005b30:	d10b      	bne.n	8005b4a <HAL_RCC_OscConfig+0x62>
    {
      if ((__HAL_RCC_GET_FLAG(RCC_FLAG_HSERDY) != RESET) && (RCC_OscInitStruct->HSEState == RCC_HSE_OFF))
 8005b32:	4b8d      	ldr	r3, [pc, #564]	; (8005d68 <HAL_RCC_OscConfig+0x280>)
 8005b34:	681b      	ldr	r3, [r3, #0]
 8005b36:	f403 3300 	and.w	r3, r3, #131072	; 0x20000
 8005b3a:	2b00      	cmp	r3, #0
 8005b3c:	d06c      	beq.n	8005c18 <HAL_RCC_OscConfig+0x130>
 8005b3e:	687b      	ldr	r3, [r7, #4]
 8005b40:	685b      	ldr	r3, [r3, #4]
 8005b42:	2b00      	cmp	r3, #0
 8005b44:	d168      	bne.n	8005c18 <HAL_RCC_OscConfig+0x130>
      {
        return HAL_ERROR;
 8005b46:	2301      	movs	r3, #1
 8005b48:	e26b      	b.n	8006022 <HAL_RCC_OscConfig+0x53a>
      }
    }
    else
    {
      /* Set the new HSE configuration ---------------------------------------*/
      __HAL_RCC_HSE_CONFIG(RCC_OscInitStruct->HSEState);
 8005b4a:	687b      	ldr	r3, [r7, #4]
 8005b4c:	685b      	ldr	r3, [r3, #4]
 8005b4e:	f5b3 3f80 	cmp.w	r3, #65536	; 0x10000
 8005b52:	d106      	bne.n	8005b62 <HAL_RCC_OscConfig+0x7a>
 8005b54:	4b84      	ldr	r3, [pc, #528]	; (8005d68 <HAL_RCC_OscConfig+0x280>)
 8005b56:	681b      	ldr	r3, [r3, #0]
 8005b58:	4a83      	ldr	r2, [pc, #524]	; (8005d68 <HAL_RCC_OscConfig+0x280>)
 8005b5a:	f443 3380 	orr.w	r3, r3, #65536	; 0x10000
 8005b5e:	6013      	str	r3, [r2, #0]
 8005b60:	e02e      	b.n	8005bc0 <HAL_RCC_OscConfig+0xd8>
 8005b62:	687b      	ldr	r3, [r7, #4]
 8005b64:	685b      	ldr	r3, [r3, #4]
 8005b66:	2b00      	cmp	r3, #0
 8005b68:	d10c      	bne.n	8005b84 <HAL_RCC_OscConfig+0x9c>
 8005b6a:	4b7f      	ldr	r3, [pc, #508]	; (8005d68 <HAL_RCC_OscConfig+0x280>)
 8005b6c:	681b      	ldr	r3, [r3, #0]
 8005b6e:	4a7e      	ldr	r2, [pc, #504]	; (8005d68 <HAL_RCC_OscConfig+0x280>)
 8005b70:	f423 3380 	bic.w	r3, r3, #65536	; 0x10000
 8005b74:	6013      	str	r3, [r2, #0]
 8005b76:	4b7c      	ldr	r3, [pc, #496]	; (8005d68 <HAL_RCC_OscConfig+0x280>)
 8005b78:	681b      	ldr	r3, [r3, #0]
 8005b7a:	4a7b      	ldr	r2, [pc, #492]	; (8005d68 <HAL_RCC_OscConfig+0x280>)
 8005b7c:	f423 2380 	bic.w	r3, r3, #262144	; 0x40000
 8005b80:	6013      	str	r3, [r2, #0]
 8005b82:	e01d      	b.n	8005bc0 <HAL_RCC_OscConfig+0xd8>
 8005b84:	687b      	ldr	r3, [r7, #4]
 8005b86:	685b      	ldr	r3, [r3, #4]
 8005b88:	f5b3 2fa0 	cmp.w	r3, #327680	; 0x50000
 8005b8c:	d10c      	bne.n	8005ba8 <HAL_RCC_OscConfig+0xc0>
 8005b8e:	4b76      	ldr	r3, [pc, #472]	; (8005d68 <HAL_RCC_OscConfig+0x280>)
 8005b90:	681b      	ldr	r3, [r3, #0]
 8005b92:	4a75      	ldr	r2, [pc, #468]	; (8005d68 <HAL_RCC_OscConfig+0x280>)
 8005b94:	f443 2380 	orr.w	r3, r3, #262144	; 0x40000
 8005b98:	6013      	str	r3, [r2, #0]
 8005b9a:	4b73      	ldr	r3, [pc, #460]	; (8005d68 <HAL_RCC_OscConfig+0x280>)
 8005b9c:	681b      	ldr	r3, [r3, #0]
 8005b9e:	4a72      	ldr	r2, [pc, #456]	; (8005d68 <HAL_RCC_OscConfig+0x280>)
 8005ba0:	f443 3380 	orr.w	r3, r3, #65536	; 0x10000
 8005ba4:	6013      	str	r3, [r2, #0]
 8005ba6:	e00b      	b.n	8005bc0 <HAL_RCC_OscConfig+0xd8>
 8005ba8:	4b6f      	ldr	r3, [pc, #444]	; (8005d68 <HAL_RCC_OscConfig+0x280>)
 8005baa:	681b      	ldr	r3, [r3, #0]
 8005bac:	4a6e      	ldr	r2, [pc, #440]	; (8005d68 <HAL_RCC_OscConfig+0x280>)
 8005bae:	f423 3380 	bic.w	r3, r3, #65536	; 0x10000
 8005bb2:	6013      	str	r3, [r2, #0]
 8005bb4:	4b6c      	ldr	r3, [pc, #432]	; (8005d68 <HAL_RCC_OscConfig+0x280>)
 8005bb6:	681b      	ldr	r3, [r3, #0]
 8005bb8:	4a6b      	ldr	r2, [pc, #428]	; (8005d68 <HAL_RCC_OscConfig+0x280>)
 8005bba:	f423 2380 	bic.w	r3, r3, #262144	; 0x40000
 8005bbe:	6013      	str	r3, [r2, #0]

      /* Check the HSE State */
      if (RCC_OscInitStruct->HSEState != RCC_HSE_OFF)
 8005bc0:	687b      	ldr	r3, [r7, #4]
 8005bc2:	685b      	ldr	r3, [r3, #4]
 8005bc4:	2b00      	cmp	r3, #0
 8005bc6:	d013      	beq.n	8005bf0 <HAL_RCC_OscConfig+0x108>
      {
        /* Get Start Tick*/
        tickstart = HAL_GetTick();
 8005bc8:	f7ff f80c 	bl	8004be4 <HAL_GetTick>
 8005bcc:	6138      	str	r0, [r7, #16]

        /* Wait till HSE is ready */
        while (__HAL_RCC_GET_FLAG(RCC_FLAG_HSERDY) == RESET)
 8005bce:	e008      	b.n	8005be2 <HAL_RCC_OscConfig+0xfa>
        {
          if ((HAL_GetTick() - tickstart) > HSE_TIMEOUT_VALUE)
 8005bd0:	f7ff f808 	bl	8004be4 <HAL_GetTick>
 8005bd4:	4602      	mov	r2, r0
 8005bd6:	693b      	ldr	r3, [r7, #16]
 8005bd8:	1ad3      	subs	r3, r2, r3
 8005bda:	2b64      	cmp	r3, #100	; 0x64
 8005bdc:	d901      	bls.n	8005be2 <HAL_RCC_OscConfig+0xfa>
          {
            return HAL_TIMEOUT;
 8005bde:	2303      	movs	r3, #3
 8005be0:	e21f      	b.n	8006022 <HAL_RCC_OscConfig+0x53a>
        while (__HAL_RCC_GET_FLAG(RCC_FLAG_HSERDY) == RESET)
 8005be2:	4b61      	ldr	r3, [pc, #388]	; (8005d68 <HAL_RCC_OscConfig+0x280>)
 8005be4:	681b      	ldr	r3, [r3, #0]
 8005be6:	f403 3300 	and.w	r3, r3, #131072	; 0x20000
 8005bea:	2b00      	cmp	r3, #0
 8005bec:	d0f0      	beq.n	8005bd0 <HAL_RCC_OscConfig+0xe8>
 8005bee:	e014      	b.n	8005c1a <HAL_RCC_OscConfig+0x132>
        }
      }
      else
      {
        /* Get Start Tick*/
        tickstart = HAL_GetTick();
 8005bf0:	f7fe fff8 	bl	8004be4 <HAL_GetTick>
 8005bf4:	6138      	str	r0, [r7, #16]

        /* Wait till HSE is bypassed or disabled */
        while (__HAL_RCC_GET_FLAG(RCC_FLAG_HSERDY) != RESET)
 8005bf6:	e008      	b.n	8005c0a <HAL_RCC_OscConfig+0x122>
        {
          if ((HAL_GetTick() - tickstart) > HSE_TIMEOUT_VALUE)
 8005bf8:	f7fe fff4 	bl	8004be4 <HAL_GetTick>
 8005bfc:	4602      	mov	r2, r0
 8005bfe:	693b      	ldr	r3, [r7, #16]
 8005c00:	1ad3      	subs	r3, r2, r3
 8005c02:	2b64      	cmp	r3, #100	; 0x64
 8005c04:	d901      	bls.n	8005c0a <HAL_RCC_OscConfig+0x122>
          {
            return HAL_TIMEOUT;
 8005c06:	2303      	movs	r3, #3
 8005c08:	e20b      	b.n	8006022 <HAL_RCC_OscConfig+0x53a>
        while (__HAL_RCC_GET_FLAG(RCC_FLAG_HSERDY) != RESET)
 8005c0a:	4b57      	ldr	r3, [pc, #348]	; (8005d68 <HAL_RCC_OscConfig+0x280>)
 8005c0c:	681b      	ldr	r3, [r3, #0]
 8005c0e:	f403 3300 	and.w	r3, r3, #131072	; 0x20000
 8005c12:	2b00      	cmp	r3, #0
 8005c14:	d1f0      	bne.n	8005bf8 <HAL_RCC_OscConfig+0x110>
 8005c16:	e000      	b.n	8005c1a <HAL_RCC_OscConfig+0x132>
      if ((__HAL_RCC_GET_FLAG(RCC_FLAG_HSERDY) != RESET) && (RCC_OscInitStruct->HSEState == RCC_HSE_OFF))
 8005c18:	bf00      	nop
        }
      }
    }
  }
  /*----------------------------- HSI Configuration --------------------------*/
  if (((RCC_OscInitStruct->OscillatorType) & RCC_OSCILLATORTYPE_HSI) == RCC_OSCILLATORTYPE_HSI)
 8005c1a:	687b      	ldr	r3, [r7, #4]
 8005c1c:	681b      	ldr	r3, [r3, #0]
 8005c1e:	f003 0302 	and.w	r3, r3, #2
 8005c22:	2b00      	cmp	r3, #0
 8005c24:	d069      	beq.n	8005cfa <HAL_RCC_OscConfig+0x212>
    /* Check the parameters */
    assert_param(IS_RCC_HSI(RCC_OscInitStruct->HSIState));
    assert_param(IS_RCC_CALIBRATION_VALUE(RCC_OscInitStruct->HSICalibrationValue));

    /* Check if HSI is used as system clock or as PLL source when PLL is selected as system clock */
    if ((__HAL_RCC_GET_SYSCLK_SOURCE() == RCC_SYSCLKSOURCE_STATUS_HSI)
 8005c26:	4b50      	ldr	r3, [pc, #320]	; (8005d68 <HAL_RCC_OscConfig+0x280>)
 8005c28:	689b      	ldr	r3, [r3, #8]
 8005c2a:	f003 030c 	and.w	r3, r3, #12
 8005c2e:	2b00      	cmp	r3, #0
 8005c30:	d00b      	beq.n	8005c4a <HAL_RCC_OscConfig+0x162>
        || ((__HAL_RCC_GET_SYSCLK_SOURCE() == RCC_SYSCLKSOURCE_STATUS_PLLCLK) && ((RCC->PLLCFGR & RCC_PLLCFGR_PLLSRC) == RCC_PLLCFGR_PLLSRC_HSI)))
 8005c32:	4b4d      	ldr	r3, [pc, #308]	; (8005d68 <HAL_RCC_OscConfig+0x280>)
 8005c34:	689b      	ldr	r3, [r3, #8]
 8005c36:	f003 030c 	and.w	r3, r3, #12
 8005c3a:	2b08      	cmp	r3, #8
 8005c3c:	d11c      	bne.n	8005c78 <HAL_RCC_OscConfig+0x190>
 8005c3e:	4b4a      	ldr	r3, [pc, #296]	; (8005d68 <HAL_RCC_OscConfig+0x280>)
 8005c40:	685b      	ldr	r3, [r3, #4]
 8005c42:	f403 0380 	and.w	r3, r3, #4194304	; 0x400000
 8005c46:	2b00      	cmp	r3, #0
 8005c48:	d116      	bne.n	8005c78 <HAL_RCC_OscConfig+0x190>
    {
      /* When HSI is used as system clock it will not disabled */
      if ((__HAL_RCC_GET_FLAG(RCC_FLAG_HSIRDY) != RESET) && (RCC_OscInitStruct->HSIState != RCC_HSI_ON))
 8005c4a:	4b47      	ldr	r3, [pc, #284]	; (8005d68 <HAL_RCC_OscConfig+0x280>)
 8005c4c:	681b      	ldr	r3, [r3, #0]
 8005c4e:	f003 0302 	and.w	r3, r3, #2
 8005c52:	2b00      	cmp	r3, #0
 8005c54:	d005      	beq.n	8005c62 <HAL_RCC_OscConfig+0x17a>
 8005c56:	687b      	ldr	r3, [r7, #4]
 8005c58:	68db      	ldr	r3, [r3, #12]
 8005c5a:	2b01      	cmp	r3, #1
 8005c5c:	d001      	beq.n	8005c62 <HAL_RCC_OscConfig+0x17a>
      {
        return HAL_ERROR;
 8005c5e:	2301      	movs	r3, #1
 8005c60:	e1df      	b.n	8006022 <HAL_RCC_OscConfig+0x53a>
      }
      /* Otherwise, just the calibration is allowed */
      else
      {
        /* Adjusts the Internal High Speed oscillator (HSI) calibration value.*/
        __HAL_RCC_HSI_CALIBRATIONVALUE_ADJUST(RCC_OscInitStruct->HSICalibrationValue);
 8005c62:	4b41      	ldr	r3, [pc, #260]	; (8005d68 <HAL_RCC_OscConfig+0x280>)
 8005c64:	681b      	ldr	r3, [r3, #0]
 8005c66:	f023 02f8 	bic.w	r2, r3, #248	; 0xf8
 8005c6a:	687b      	ldr	r3, [r7, #4]
 8005c6c:	691b      	ldr	r3, [r3, #16]
 8005c6e:	00db      	lsls	r3, r3, #3
 8005c70:	493d      	ldr	r1, [pc, #244]	; (8005d68 <HAL_RCC_OscConfig+0x280>)
 8005c72:	4313      	orrs	r3, r2
 8005c74:	600b      	str	r3, [r1, #0]
      if ((__HAL_RCC_GET_FLAG(RCC_FLAG_HSIRDY) != RESET) && (RCC_OscInitStruct->HSIState != RCC_HSI_ON))
 8005c76:	e040      	b.n	8005cfa <HAL_RCC_OscConfig+0x212>
      }
    }
    else
    {
      /* Check the HSI State */
      if ((RCC_OscInitStruct->HSIState) != RCC_HSI_OFF)
 8005c78:	687b      	ldr	r3, [r7, #4]
 8005c7a:	68db      	ldr	r3, [r3, #12]
 8005c7c:	2b00      	cmp	r3, #0
 8005c7e:	d023      	beq.n	8005cc8 <HAL_RCC_OscConfig+0x1e0>
      {
        /* Enable the Internal High Speed oscillator (HSI). */
        __HAL_RCC_HSI_ENABLE();
 8005c80:	4b39      	ldr	r3, [pc, #228]	; (8005d68 <HAL_RCC_OscConfig+0x280>)
 8005c82:	681b      	ldr	r3, [r3, #0]
 8005c84:	4a38      	ldr	r2, [pc, #224]	; (8005d68 <HAL_RCC_OscConfig+0x280>)
 8005c86:	f043 0301 	orr.w	r3, r3, #1
 8005c8a:	6013      	str	r3, [r2, #0]

        /* Get Start Tick*/
        tickstart = HAL_GetTick();
 8005c8c:	f7fe ffaa 	bl	8004be4 <HAL_GetTick>
 8005c90:	6138      	str	r0, [r7, #16]

        /* Wait till HSI is ready */
        while (__HAL_RCC_GET_FLAG(RCC_FLAG_HSIRDY) == RESET)
 8005c92:	e008      	b.n	8005ca6 <HAL_RCC_OscConfig+0x1be>
        {
          if ((HAL_GetTick() - tickstart) > HSI_TIMEOUT_VALUE)
 8005c94:	f7fe ffa6 	bl	8004be4 <HAL_GetTick>
 8005c98:	4602      	mov	r2, r0
 8005c9a:	693b      	ldr	r3, [r7, #16]
 8005c9c:	1ad3      	subs	r3, r2, r3
 8005c9e:	2b02      	cmp	r3, #2
 8005ca0:	d901      	bls.n	8005ca6 <HAL_RCC_OscConfig+0x1be>
          {
            return HAL_TIMEOUT;
 8005ca2:	2303      	movs	r3, #3
 8005ca4:	e1bd      	b.n	8006022 <HAL_RCC_OscConfig+0x53a>
        while (__HAL_RCC_GET_FLAG(RCC_FLAG_HSIRDY) == RESET)
 8005ca6:	4b30      	ldr	r3, [pc, #192]	; (8005d68 <HAL_RCC_OscConfig+0x280>)
 8005ca8:	681b      	ldr	r3, [r3, #0]
 8005caa:	f003 0302 	and.w	r3, r3, #2
 8005cae:	2b00      	cmp	r3, #0
 8005cb0:	d0f0      	beq.n	8005c94 <HAL_RCC_OscConfig+0x1ac>
          }
        }

        /* Adjusts the Internal High Speed oscillator (HSI) calibration value.*/
        __HAL_RCC_HSI_CALIBRATIONVALUE_ADJUST(RCC_OscInitStruct->HSICalibrationValue);
 8005cb2:	4b2d      	ldr	r3, [pc, #180]	; (8005d68 <HAL_RCC_OscConfig+0x280>)
 8005cb4:	681b      	ldr	r3, [r3, #0]
 8005cb6:	f023 02f8 	bic.w	r2, r3, #248	; 0xf8
 8005cba:	687b      	ldr	r3, [r7, #4]
 8005cbc:	691b      	ldr	r3, [r3, #16]
 8005cbe:	00db      	lsls	r3, r3, #3
 8005cc0:	4929      	ldr	r1, [pc, #164]	; (8005d68 <HAL_RCC_OscConfig+0x280>)
 8005cc2:	4313      	orrs	r3, r2
 8005cc4:	600b      	str	r3, [r1, #0]
 8005cc6:	e018      	b.n	8005cfa <HAL_RCC_OscConfig+0x212>
      }
      else
      {
        /* Disable the Internal High Speed oscillator (HSI). */
        __HAL_RCC_HSI_DISABLE();
 8005cc8:	4b27      	ldr	r3, [pc, #156]	; (8005d68 <HAL_RCC_OscConfig+0x280>)
 8005cca:	681b      	ldr	r3, [r3, #0]
 8005ccc:	4a26      	ldr	r2, [pc, #152]	; (8005d68 <HAL_RCC_OscConfig+0x280>)
 8005cce:	f023 0301 	bic.w	r3, r3, #1
 8005cd2:	6013      	str	r3, [r2, #0]

        /* Get Start Tick*/
        tickstart = HAL_GetTick();
 8005cd4:	f7fe ff86 	bl	8004be4 <HAL_GetTick>
 8005cd8:	6138      	str	r0, [r7, #16]

        /* Wait till HSI is ready */
        while (__HAL_RCC_GET_FLAG(RCC_FLAG_HSIRDY) != RESET)
 8005cda:	e008      	b.n	8005cee <HAL_RCC_OscConfig+0x206>
        {
          if ((HAL_GetTick() - tickstart) > HSI_TIMEOUT_VALUE)
 8005cdc:	f7fe ff82 	bl	8004be4 <HAL_GetTick>
 8005ce0:	4602      	mov	r2, r0
 8005ce2:	693b      	ldr	r3, [r7, #16]
 8005ce4:	1ad3      	subs	r3, r2, r3
 8005ce6:	2b02      	cmp	r3, #2
 8005ce8:	d901      	bls.n	8005cee <HAL_RCC_OscConfig+0x206>
          {
            return HAL_TIMEOUT;
 8005cea:	2303      	movs	r3, #3
 8005cec:	e199      	b.n	8006022 <HAL_RCC_OscConfig+0x53a>
        while (__HAL_RCC_GET_FLAG(RCC_FLAG_HSIRDY) != RESET)
 8005cee:	4b1e      	ldr	r3, [pc, #120]	; (8005d68 <HAL_RCC_OscConfig+0x280>)
 8005cf0:	681b      	ldr	r3, [r3, #0]
 8005cf2:	f003 0302 	and.w	r3, r3, #2
 8005cf6:	2b00      	cmp	r3, #0
 8005cf8:	d1f0      	bne.n	8005cdc <HAL_RCC_OscConfig+0x1f4>
        }
      }
    }
  }
  /*------------------------------ LSI Configuration -------------------------*/
  if (((RCC_OscInitStruct->OscillatorType) & RCC_OSCILLATORTYPE_LSI) == RCC_OSCILLATORTYPE_LSI)
 8005cfa:	687b      	ldr	r3, [r7, #4]
 8005cfc:	681b      	ldr	r3, [r3, #0]
 8005cfe:	f003 0308 	and.w	r3, r3, #8
 8005d02:	2b00      	cmp	r3, #0
 8005d04:	d038      	beq.n	8005d78 <HAL_RCC_OscConfig+0x290>
  {
    /* Check the parameters */
    assert_param(IS_RCC_LSI(RCC_OscInitStruct->LSIState));

    /* Check the LSI State */
    if ((RCC_OscInitStruct->LSIState) != RCC_LSI_OFF)
 8005d06:	687b      	ldr	r3, [r7, #4]
 8005d08:	695b      	ldr	r3, [r3, #20]
 8005d0a:	2b00      	cmp	r3, #0
 8005d0c:	d019      	beq.n	8005d42 <HAL_RCC_OscConfig+0x25a>
    {
      /* Enable the Internal Low Speed oscillator (LSI). */
      __HAL_RCC_LSI_ENABLE();
 8005d0e:	4b16      	ldr	r3, [pc, #88]	; (8005d68 <HAL_RCC_OscConfig+0x280>)
 8005d10:	6f5b      	ldr	r3, [r3, #116]	; 0x74
 8005d12:	4a15      	ldr	r2, [pc, #84]	; (8005d68 <HAL_RCC_OscConfig+0x280>)
 8005d14:	f043 0301 	orr.w	r3, r3, #1
 8005d18:	6753      	str	r3, [r2, #116]	; 0x74

      /* Get Start Tick*/
      tickstart = HAL_GetTick();
 8005d1a:	f7fe ff63 	bl	8004be4 <HAL_GetTick>
 8005d1e:	6138      	str	r0, [r7, #16]

      /* Wait till LSI is ready */
      while (__HAL_RCC_GET_FLAG(RCC_FLAG_LSIRDY) == RESET)
 8005d20:	e008      	b.n	8005d34 <HAL_RCC_OscConfig+0x24c>
      {
        if ((HAL_GetTick() - tickstart) > LSI_TIMEOUT_VALUE)
 8005d22:	f7fe ff5f 	bl	8004be4 <HAL_GetTick>
 8005d26:	4602      	mov	r2, r0
 8005d28:	693b      	ldr	r3, [r7, #16]
 8005d2a:	1ad3      	subs	r3, r2, r3
 8005d2c:	2b02      	cmp	r3, #2
 8005d2e:	d901      	bls.n	8005d34 <HAL_RCC_OscConfig+0x24c>
        {
          return HAL_TIMEOUT;
 8005d30:	2303      	movs	r3, #3
 8005d32:	e176      	b.n	8006022 <HAL_RCC_OscConfig+0x53a>
      while (__HAL_RCC_GET_FLAG(RCC_FLAG_LSIRDY) == RESET)
 8005d34:	4b0c      	ldr	r3, [pc, #48]	; (8005d68 <HAL_RCC_OscConfig+0x280>)
 8005d36:	6f5b      	ldr	r3, [r3, #116]	; 0x74
 8005d38:	f003 0302 	and.w	r3, r3, #2
 8005d3c:	2b00      	cmp	r3, #0
 8005d3e:	d0f0      	beq.n	8005d22 <HAL_RCC_OscConfig+0x23a>
 8005d40:	e01a      	b.n	8005d78 <HAL_RCC_OscConfig+0x290>
      }
    }
    else
    {
      /* Disable the Internal Low Speed oscillator (LSI). */
      __HAL_RCC_LSI_DISABLE();
 8005d42:	4b09      	ldr	r3, [pc, #36]	; (8005d68 <HAL_RCC_OscConfig+0x280>)
 8005d44:	6f5b      	ldr	r3, [r3, #116]	; 0x74
 8005d46:	4a08      	ldr	r2, [pc, #32]	; (8005d68 <HAL_RCC_OscConfig+0x280>)
 8005d48:	f023 0301 	bic.w	r3, r3, #1
 8005d4c:	6753      	str	r3, [r2, #116]	; 0x74

      /* Get Start Tick*/
      tickstart = HAL_GetTick();
 8005d4e:	f7fe ff49 	bl	8004be4 <HAL_GetTick>
 8005d52:	6138      	str	r0, [r7, #16]

      /* Wait till LSI is ready */
      while (__HAL_RCC_GET_FLAG(RCC_FLAG_LSIRDY) != RESET)
 8005d54:	e00a      	b.n	8005d6c <HAL_RCC_OscConfig+0x284>
      {
        if ((HAL_GetTick() - tickstart) > LSI_TIMEOUT_VALUE)
 8005d56:	f7fe ff45 	bl	8004be4 <HAL_GetTick>
 8005d5a:	4602      	mov	r2, r0
 8005d5c:	693b      	ldr	r3, [r7, #16]
 8005d5e:	1ad3      	subs	r3, r2, r3
 8005d60:	2b02      	cmp	r3, #2
 8005d62:	d903      	bls.n	8005d6c <HAL_RCC_OscConfig+0x284>
        {
          return HAL_TIMEOUT;
 8005d64:	2303      	movs	r3, #3
 8005d66:	e15c      	b.n	8006022 <HAL_RCC_OscConfig+0x53a>
 8005d68:	40023800 	.word	0x40023800
      while (__HAL_RCC_GET_FLAG(RCC_FLAG_LSIRDY) != RESET)
 8005d6c:	4b91      	ldr	r3, [pc, #580]	; (8005fb4 <HAL_RCC_OscConfig+0x4cc>)
 8005d6e:	6f5b      	ldr	r3, [r3, #116]	; 0x74
 8005d70:	f003 0302 	and.w	r3, r3, #2
 8005d74:	2b00      	cmp	r3, #0
 8005d76:	d1ee      	bne.n	8005d56 <HAL_RCC_OscConfig+0x26e>
        }
      }
    }
  }
  /*------------------------------ LSE Configuration -------------------------*/
  if (((RCC_OscInitStruct->OscillatorType) & RCC_OSCILLATORTYPE_LSE) == RCC_OSCILLATORTYPE_LSE)
 8005d78:	687b      	ldr	r3, [r7, #4]
 8005d7a:	681b      	ldr	r3, [r3, #0]
 8005d7c:	f003 0304 	and.w	r3, r3, #4
 8005d80:	2b00      	cmp	r3, #0
 8005d82:	f000 80a4 	beq.w	8005ece <HAL_RCC_OscConfig+0x3e6>
    /* Check the parameters */
    assert_param(IS_RCC_LSE(RCC_OscInitStruct->LSEState));

    /* Update LSE configuration in Backup Domain control register    */
    /* Requires to enable write access to Backup Domain of necessary */
    if (__HAL_RCC_PWR_IS_CLK_DISABLED())
 8005d86:	4b8b      	ldr	r3, [pc, #556]	; (8005fb4 <HAL_RCC_OscConfig+0x4cc>)
 8005d88:	6c1b      	ldr	r3, [r3, #64]	; 0x40
 8005d8a:	f003 5380 	and.w	r3, r3, #268435456	; 0x10000000
 8005d8e:	2b00      	cmp	r3, #0
 8005d90:	d10d      	bne.n	8005dae <HAL_RCC_OscConfig+0x2c6>
    {
      /* Enable Power Clock*/
      __HAL_RCC_PWR_CLK_ENABLE();
 8005d92:	4b88      	ldr	r3, [pc, #544]	; (8005fb4 <HAL_RCC_OscConfig+0x4cc>)
 8005d94:	6c1b      	ldr	r3, [r3, #64]	; 0x40
 8005d96:	4a87      	ldr	r2, [pc, #540]	; (8005fb4 <HAL_RCC_OscConfig+0x4cc>)
 8005d98:	f043 5380 	orr.w	r3, r3, #268435456	; 0x10000000
 8005d9c:	6413      	str	r3, [r2, #64]	; 0x40
 8005d9e:	4b85      	ldr	r3, [pc, #532]	; (8005fb4 <HAL_RCC_OscConfig+0x4cc>)
 8005da0:	6c1b      	ldr	r3, [r3, #64]	; 0x40
 8005da2:	f003 5380 	and.w	r3, r3, #268435456	; 0x10000000
 8005da6:	60bb      	str	r3, [r7, #8]
 8005da8:	68bb      	ldr	r3, [r7, #8]
      pwrclkchanged = SET;
 8005daa:	2301      	movs	r3, #1
 8005dac:	75fb      	strb	r3, [r7, #23]
    }

    if (HAL_IS_BIT_CLR(PWR->CR1, PWR_CR1_DBP))
 8005dae:	4b82      	ldr	r3, [pc, #520]	; (8005fb8 <HAL_RCC_OscConfig+0x4d0>)
 8005db0:	681b      	ldr	r3, [r3, #0]
 8005db2:	f403 7380 	and.w	r3, r3, #256	; 0x100
 8005db6:	2b00      	cmp	r3, #0
 8005db8:	d118      	bne.n	8005dec <HAL_RCC_OscConfig+0x304>
    {
      /* Enable write access to Backup domain */
      PWR->CR1 |= PWR_CR1_DBP;
 8005dba:	4b7f      	ldr	r3, [pc, #508]	; (8005fb8 <HAL_RCC_OscConfig+0x4d0>)
 8005dbc:	681b      	ldr	r3, [r3, #0]
 8005dbe:	4a7e      	ldr	r2, [pc, #504]	; (8005fb8 <HAL_RCC_OscConfig+0x4d0>)
 8005dc0:	f443 7380 	orr.w	r3, r3, #256	; 0x100
 8005dc4:	6013      	str	r3, [r2, #0]

      /* Wait for Backup domain Write protection disable */
      tickstart = HAL_GetTick();
 8005dc6:	f7fe ff0d 	bl	8004be4 <HAL_GetTick>
 8005dca:	6138      	str	r0, [r7, #16]

      while (HAL_IS_BIT_CLR(PWR->CR1, PWR_CR1_DBP))
 8005dcc:	e008      	b.n	8005de0 <HAL_RCC_OscConfig+0x2f8>
      {
        if ((HAL_GetTick() - tickstart) > RCC_DBP_TIMEOUT_VALUE)
 8005dce:	f7fe ff09 	bl	8004be4 <HAL_GetTick>
 8005dd2:	4602      	mov	r2, r0
 8005dd4:	693b      	ldr	r3, [r7, #16]
 8005dd6:	1ad3      	subs	r3, r2, r3
 8005dd8:	2b64      	cmp	r3, #100	; 0x64
 8005dda:	d901      	bls.n	8005de0 <HAL_RCC_OscConfig+0x2f8>
        {
          return HAL_TIMEOUT;
 8005ddc:	2303      	movs	r3, #3
 8005dde:	e120      	b.n	8006022 <HAL_RCC_OscConfig+0x53a>
      while (HAL_IS_BIT_CLR(PWR->CR1, PWR_CR1_DBP))
 8005de0:	4b75      	ldr	r3, [pc, #468]	; (8005fb8 <HAL_RCC_OscConfig+0x4d0>)
 8005de2:	681b      	ldr	r3, [r3, #0]
 8005de4:	f403 7380 	and.w	r3, r3, #256	; 0x100
 8005de8:	2b00      	cmp	r3, #0
 8005dea:	d0f0      	beq.n	8005dce <HAL_RCC_OscConfig+0x2e6>
        }
      }
    }

    /* Set the new LSE configuration -----------------------------------------*/
    __HAL_RCC_LSE_CONFIG(RCC_OscInitStruct->LSEState);
 8005dec:	687b      	ldr	r3, [r7, #4]
 8005dee:	689b      	ldr	r3, [r3, #8]
 8005df0:	2b01      	cmp	r3, #1
 8005df2:	d106      	bne.n	8005e02 <HAL_RCC_OscConfig+0x31a>
 8005df4:	4b6f      	ldr	r3, [pc, #444]	; (8005fb4 <HAL_RCC_OscConfig+0x4cc>)
 8005df6:	6f1b      	ldr	r3, [r3, #112]	; 0x70
 8005df8:	4a6e      	ldr	r2, [pc, #440]	; (8005fb4 <HAL_RCC_OscConfig+0x4cc>)
 8005dfa:	f043 0301 	orr.w	r3, r3, #1
 8005dfe:	6713      	str	r3, [r2, #112]	; 0x70
 8005e00:	e02d      	b.n	8005e5e <HAL_RCC_OscConfig+0x376>
 8005e02:	687b      	ldr	r3, [r7, #4]
 8005e04:	689b      	ldr	r3, [r3, #8]
 8005e06:	2b00      	cmp	r3, #0
 8005e08:	d10c      	bne.n	8005e24 <HAL_RCC_OscConfig+0x33c>
 8005e0a:	4b6a      	ldr	r3, [pc, #424]	; (8005fb4 <HAL_RCC_OscConfig+0x4cc>)
 8005e0c:	6f1b      	ldr	r3, [r3, #112]	; 0x70
 8005e0e:	4a69      	ldr	r2, [pc, #420]	; (8005fb4 <HAL_RCC_OscConfig+0x4cc>)
 8005e10:	f023 0301 	bic.w	r3, r3, #1
 8005e14:	6713      	str	r3, [r2, #112]	; 0x70
 8005e16:	4b67      	ldr	r3, [pc, #412]	; (8005fb4 <HAL_RCC_OscConfig+0x4cc>)
 8005e18:	6f1b      	ldr	r3, [r3, #112]	; 0x70
 8005e1a:	4a66      	ldr	r2, [pc, #408]	; (8005fb4 <HAL_RCC_OscConfig+0x4cc>)
 8005e1c:	f023 0304 	bic.w	r3, r3, #4
 8005e20:	6713      	str	r3, [r2, #112]	; 0x70
 8005e22:	e01c      	b.n	8005e5e <HAL_RCC_OscConfig+0x376>
 8005e24:	687b      	ldr	r3, [r7, #4]
 8005e26:	689b      	ldr	r3, [r3, #8]
 8005e28:	2b05      	cmp	r3, #5
 8005e2a:	d10c      	bne.n	8005e46 <HAL_RCC_OscConfig+0x35e>
 8005e2c:	4b61      	ldr	r3, [pc, #388]	; (8005fb4 <HAL_RCC_OscConfig+0x4cc>)
 8005e2e:	6f1b      	ldr	r3, [r3, #112]	; 0x70
 8005e30:	4a60      	ldr	r2, [pc, #384]	; (8005fb4 <HAL_RCC_OscConfig+0x4cc>)
 8005e32:	f043 0304 	orr.w	r3, r3, #4
 8005e36:	6713      	str	r3, [r2, #112]	; 0x70
 8005e38:	4b5e      	ldr	r3, [pc, #376]	; (8005fb4 <HAL_RCC_OscConfig+0x4cc>)
 8005e3a:	6f1b      	ldr	r3, [r3, #112]	; 0x70
 8005e3c:	4a5d      	ldr	r2, [pc, #372]	; (8005fb4 <HAL_RCC_OscConfig+0x4cc>)
 8005e3e:	f043 0301 	orr.w	r3, r3, #1
 8005e42:	6713      	str	r3, [r2, #112]	; 0x70
 8005e44:	e00b      	b.n	8005e5e <HAL_RCC_OscConfig+0x376>
 8005e46:	4b5b      	ldr	r3, [pc, #364]	; (8005fb4 <HAL_RCC_OscConfig+0x4cc>)
 8005e48:	6f1b      	ldr	r3, [r3, #112]	; 0x70
 8005e4a:	4a5a      	ldr	r2, [pc, #360]	; (8005fb4 <HAL_RCC_OscConfig+0x4cc>)
 8005e4c:	f023 0301 	bic.w	r3, r3, #1
 8005e50:	6713      	str	r3, [r2, #112]	; 0x70
 8005e52:	4b58      	ldr	r3, [pc, #352]	; (8005fb4 <HAL_RCC_OscConfig+0x4cc>)
 8005e54:	6f1b      	ldr	r3, [r3, #112]	; 0x70
 8005e56:	4a57      	ldr	r2, [pc, #348]	; (8005fb4 <HAL_RCC_OscConfig+0x4cc>)
 8005e58:	f023 0304 	bic.w	r3, r3, #4
 8005e5c:	6713      	str	r3, [r2, #112]	; 0x70
    /* Check the LSE State */
    if ((RCC_OscInitStruct->LSEState) != RCC_LSE_OFF)
 8005e5e:	687b      	ldr	r3, [r7, #4]
 8005e60:	689b      	ldr	r3, [r3, #8]
 8005e62:	2b00      	cmp	r3, #0
 8005e64:	d015      	beq.n	8005e92 <HAL_RCC_OscConfig+0x3aa>
    {
      /* Get Start Tick*/
      tickstart = HAL_GetTick();
 8005e66:	f7fe febd 	bl	8004be4 <HAL_GetTick>
 8005e6a:	6138      	str	r0, [r7, #16]

      /* Wait till LSE is ready */
      while (__HAL_RCC_GET_FLAG(RCC_FLAG_LSERDY) == RESET)
 8005e6c:	e00a      	b.n	8005e84 <HAL_RCC_OscConfig+0x39c>
      {
        if ((HAL_GetTick() - tickstart) > RCC_LSE_TIMEOUT_VALUE)
 8005e6e:	f7fe feb9 	bl	8004be4 <HAL_GetTick>
 8005e72:	4602      	mov	r2, r0
 8005e74:	693b      	ldr	r3, [r7, #16]
 8005e76:	1ad3      	subs	r3, r2, r3
 8005e78:	f241 3288 	movw	r2, #5000	; 0x1388
 8005e7c:	4293      	cmp	r3, r2
 8005e7e:	d901      	bls.n	8005e84 <HAL_RCC_OscConfig+0x39c>
        {
          return HAL_TIMEOUT;
 8005e80:	2303      	movs	r3, #3
 8005e82:	e0ce      	b.n	8006022 <HAL_RCC_OscConfig+0x53a>
      while (__HAL_RCC_GET_FLAG(RCC_FLAG_LSERDY) == RESET)
 8005e84:	4b4b      	ldr	r3, [pc, #300]	; (8005fb4 <HAL_RCC_OscConfig+0x4cc>)
 8005e86:	6f1b      	ldr	r3, [r3, #112]	; 0x70
 8005e88:	f003 0302 	and.w	r3, r3, #2
 8005e8c:	2b00      	cmp	r3, #0
 8005e8e:	d0ee      	beq.n	8005e6e <HAL_RCC_OscConfig+0x386>
 8005e90:	e014      	b.n	8005ebc <HAL_RCC_OscConfig+0x3d4>
      }
    }
    else
    {
      /* Get Start Tick*/
      tickstart = HAL_GetTick();
 8005e92:	f7fe fea7 	bl	8004be4 <HAL_GetTick>
 8005e96:	6138      	str	r0, [r7, #16]

      /* Wait till LSE is ready */
      while (__HAL_RCC_GET_FLAG(RCC_FLAG_LSERDY) != RESET)
 8005e98:	e00a      	b.n	8005eb0 <HAL_RCC_OscConfig+0x3c8>
      {
        if ((HAL_GetTick() - tickstart) > RCC_LSE_TIMEOUT_VALUE)
 8005e9a:	f7fe fea3 	bl	8004be4 <HAL_GetTick>
 8005e9e:	4602      	mov	r2, r0
 8005ea0:	693b      	ldr	r3, [r7, #16]
 8005ea2:	1ad3      	subs	r3, r2, r3
 8005ea4:	f241 3288 	movw	r2, #5000	; 0x1388
 8005ea8:	4293      	cmp	r3, r2
 8005eaa:	d901      	bls.n	8005eb0 <HAL_RCC_OscConfig+0x3c8>
        {
          return HAL_TIMEOUT;
 8005eac:	2303      	movs	r3, #3
 8005eae:	e0b8      	b.n	8006022 <HAL_RCC_OscConfig+0x53a>
      while (__HAL_RCC_GET_FLAG(RCC_FLAG_LSERDY) != RESET)
 8005eb0:	4b40      	ldr	r3, [pc, #256]	; (8005fb4 <HAL_RCC_OscConfig+0x4cc>)
 8005eb2:	6f1b      	ldr	r3, [r3, #112]	; 0x70
 8005eb4:	f003 0302 	and.w	r3, r3, #2
 8005eb8:	2b00      	cmp	r3, #0
 8005eba:	d1ee      	bne.n	8005e9a <HAL_RCC_OscConfig+0x3b2>
        }
      }
    }

    /* Restore clock configuration if changed */
    if (pwrclkchanged == SET)
 8005ebc:	7dfb      	ldrb	r3, [r7, #23]
 8005ebe:	2b01      	cmp	r3, #1
 8005ec0:	d105      	bne.n	8005ece <HAL_RCC_OscConfig+0x3e6>
    {
      __HAL_RCC_PWR_CLK_DISABLE();
 8005ec2:	4b3c      	ldr	r3, [pc, #240]	; (8005fb4 <HAL_RCC_OscConfig+0x4cc>)
 8005ec4:	6c1b      	ldr	r3, [r3, #64]	; 0x40
 8005ec6:	4a3b      	ldr	r2, [pc, #236]	; (8005fb4 <HAL_RCC_OscConfig+0x4cc>)
 8005ec8:	f023 5380 	bic.w	r3, r3, #268435456	; 0x10000000
 8005ecc:	6413      	str	r3, [r2, #64]	; 0x40
    }
  }
  /*-------------------------------- PLL Configuration -----------------------*/
  /* Check the parameters */
  assert_param(IS_RCC_PLL(RCC_OscInitStruct->PLL.PLLState));
  if ((RCC_OscInitStruct->PLL.PLLState) != RCC_PLL_NONE)
 8005ece:	687b      	ldr	r3, [r7, #4]
 8005ed0:	699b      	ldr	r3, [r3, #24]
 8005ed2:	2b00      	cmp	r3, #0
 8005ed4:	f000 80a4 	beq.w	8006020 <HAL_RCC_OscConfig+0x538>
  {
    /* Check if the PLL is used as system clock or not */
    if (__HAL_RCC_GET_SYSCLK_SOURCE() != RCC_SYSCLKSOURCE_STATUS_PLLCLK)
 8005ed8:	4b36      	ldr	r3, [pc, #216]	; (8005fb4 <HAL_RCC_OscConfig+0x4cc>)
 8005eda:	689b      	ldr	r3, [r3, #8]
 8005edc:	f003 030c 	and.w	r3, r3, #12
 8005ee0:	2b08      	cmp	r3, #8
 8005ee2:	d06b      	beq.n	8005fbc <HAL_RCC_OscConfig+0x4d4>
    {
      if ((RCC_OscInitStruct->PLL.PLLState) == RCC_PLL_ON)
 8005ee4:	687b      	ldr	r3, [r7, #4]
 8005ee6:	699b      	ldr	r3, [r3, #24]
 8005ee8:	2b02      	cmp	r3, #2
 8005eea:	d149      	bne.n	8005f80 <HAL_RCC_OscConfig+0x498>
#if defined (RCC_PLLCFGR_PLLR)
        assert_param(IS_RCC_PLLR_VALUE(RCC_OscInitStruct->PLL.PLLR));
#endif

        /* Disable the main PLL. */
        __HAL_RCC_PLL_DISABLE();
 8005eec:	4b31      	ldr	r3, [pc, #196]	; (8005fb4 <HAL_RCC_OscConfig+0x4cc>)
 8005eee:	681b      	ldr	r3, [r3, #0]
 8005ef0:	4a30      	ldr	r2, [pc, #192]	; (8005fb4 <HAL_RCC_OscConfig+0x4cc>)
 8005ef2:	f023 7380 	bic.w	r3, r3, #16777216	; 0x1000000
 8005ef6:	6013      	str	r3, [r2, #0]

        /* Get Start Tick*/
        tickstart = HAL_GetTick();
 8005ef8:	f7fe fe74 	bl	8004be4 <HAL_GetTick>
 8005efc:	6138      	str	r0, [r7, #16]

        /* Wait till PLL is ready */
        while (__HAL_RCC_GET_FLAG(RCC_FLAG_PLLRDY) != RESET)
 8005efe:	e008      	b.n	8005f12 <HAL_RCC_OscConfig+0x42a>
        {
          if ((HAL_GetTick() - tickstart) > PLL_TIMEOUT_VALUE)
 8005f00:	f7fe fe70 	bl	8004be4 <HAL_GetTick>
 8005f04:	4602      	mov	r2, r0
 8005f06:	693b      	ldr	r3, [r7, #16]
 8005f08:	1ad3      	subs	r3, r2, r3
 8005f0a:	2b02      	cmp	r3, #2
 8005f0c:	d901      	bls.n	8005f12 <HAL_RCC_OscConfig+0x42a>
          {
            return HAL_TIMEOUT;
 8005f0e:	2303      	movs	r3, #3
 8005f10:	e087      	b.n	8006022 <HAL_RCC_OscConfig+0x53a>
        while (__HAL_RCC_GET_FLAG(RCC_FLAG_PLLRDY) != RESET)
 8005f12:	4b28      	ldr	r3, [pc, #160]	; (8005fb4 <HAL_RCC_OscConfig+0x4cc>)
 8005f14:	681b      	ldr	r3, [r3, #0]
 8005f16:	f003 7300 	and.w	r3, r3, #33554432	; 0x2000000
 8005f1a:	2b00      	cmp	r3, #0
 8005f1c:	d1f0      	bne.n	8005f00 <HAL_RCC_OscConfig+0x418>
                             RCC_OscInitStruct->PLL.PLLN,
                             RCC_OscInitStruct->PLL.PLLP,
                             RCC_OscInitStruct->PLL.PLLQ,
                             RCC_OscInitStruct->PLL.PLLR);
#else
        __HAL_RCC_PLL_CONFIG(RCC_OscInitStruct->PLL.PLLSource,
 8005f1e:	687b      	ldr	r3, [r7, #4]
 8005f20:	69da      	ldr	r2, [r3, #28]
 8005f22:	687b      	ldr	r3, [r7, #4]
 8005f24:	6a1b      	ldr	r3, [r3, #32]
 8005f26:	431a      	orrs	r2, r3
 8005f28:	687b      	ldr	r3, [r7, #4]
 8005f2a:	6a5b      	ldr	r3, [r3, #36]	; 0x24
 8005f2c:	019b      	lsls	r3, r3, #6
 8005f2e:	431a      	orrs	r2, r3
 8005f30:	687b      	ldr	r3, [r7, #4]
 8005f32:	6a9b      	ldr	r3, [r3, #40]	; 0x28
 8005f34:	085b      	lsrs	r3, r3, #1
 8005f36:	3b01      	subs	r3, #1
 8005f38:	041b      	lsls	r3, r3, #16
 8005f3a:	431a      	orrs	r2, r3
 8005f3c:	687b      	ldr	r3, [r7, #4]
 8005f3e:	6adb      	ldr	r3, [r3, #44]	; 0x2c
 8005f40:	061b      	lsls	r3, r3, #24
 8005f42:	4313      	orrs	r3, r2
 8005f44:	4a1b      	ldr	r2, [pc, #108]	; (8005fb4 <HAL_RCC_OscConfig+0x4cc>)
 8005f46:	f043 5300 	orr.w	r3, r3, #536870912	; 0x20000000
 8005f4a:	6053      	str	r3, [r2, #4]
                             RCC_OscInitStruct->PLL.PLLP,
                             RCC_OscInitStruct->PLL.PLLQ);
#endif

        /* Enable the main PLL. */
        __HAL_RCC_PLL_ENABLE();
 8005f4c:	4b19      	ldr	r3, [pc, #100]	; (8005fb4 <HAL_RCC_OscConfig+0x4cc>)
 8005f4e:	681b      	ldr	r3, [r3, #0]
 8005f50:	4a18      	ldr	r2, [pc, #96]	; (8005fb4 <HAL_RCC_OscConfig+0x4cc>)
 8005f52:	f043 7380 	orr.w	r3, r3, #16777216	; 0x1000000
 8005f56:	6013      	str	r3, [r2, #0]

        /* Get Start Tick*/
        tickstart = HAL_GetTick();
 8005f58:	f7fe fe44 	bl	8004be4 <HAL_GetTick>
 8005f5c:	6138      	str	r0, [r7, #16]

        /* Wait till PLL is ready */
        while (__HAL_RCC_GET_FLAG(RCC_FLAG_PLLRDY) == RESET)
 8005f5e:	e008      	b.n	8005f72 <HAL_RCC_OscConfig+0x48a>
        {
          if ((HAL_GetTick() - tickstart) > PLL_TIMEOUT_VALUE)
 8005f60:	f7fe fe40 	bl	8004be4 <HAL_GetTick>
 8005f64:	4602      	mov	r2, r0
 8005f66:	693b      	ldr	r3, [r7, #16]
 8005f68:	1ad3      	subs	r3, r2, r3
 8005f6a:	2b02      	cmp	r3, #2
 8005f6c:	d901      	bls.n	8005f72 <HAL_RCC_OscConfig+0x48a>
          {
            return HAL_TIMEOUT;
 8005f6e:	2303      	movs	r3, #3
 8005f70:	e057      	b.n	8006022 <HAL_RCC_OscConfig+0x53a>
        while (__HAL_RCC_GET_FLAG(RCC_FLAG_PLLRDY) == RESET)
 8005f72:	4b10      	ldr	r3, [pc, #64]	; (8005fb4 <HAL_RCC_OscConfig+0x4cc>)
 8005f74:	681b      	ldr	r3, [r3, #0]
 8005f76:	f003 7300 	and.w	r3, r3, #33554432	; 0x2000000
 8005f7a:	2b00      	cmp	r3, #0
 8005f7c:	d0f0      	beq.n	8005f60 <HAL_RCC_OscConfig+0x478>
 8005f7e:	e04f      	b.n	8006020 <HAL_RCC_OscConfig+0x538>
        }
      }
      else
      {
        /* Disable the main PLL. */
        __HAL_RCC_PLL_DISABLE();
 8005f80:	4b0c      	ldr	r3, [pc, #48]	; (8005fb4 <HAL_RCC_OscConfig+0x4cc>)
 8005f82:	681b      	ldr	r3, [r3, #0]
 8005f84:	4a0b      	ldr	r2, [pc, #44]	; (8005fb4 <HAL_RCC_OscConfig+0x4cc>)
 8005f86:	f023 7380 	bic.w	r3, r3, #16777216	; 0x1000000
 8005f8a:	6013      	str	r3, [r2, #0]

        /* Get Start Tick*/
        tickstart = HAL_GetTick();
 8005f8c:	f7fe fe2a 	bl	8004be4 <HAL_GetTick>
 8005f90:	6138      	str	r0, [r7, #16]

        /* Wait till PLL is ready */
        while (__HAL_RCC_GET_FLAG(RCC_FLAG_PLLRDY) != RESET)
 8005f92:	e008      	b.n	8005fa6 <HAL_RCC_OscConfig+0x4be>
        {
          if ((HAL_GetTick() - tickstart) > PLL_TIMEOUT_VALUE)
 8005f94:	f7fe fe26 	bl	8004be4 <HAL_GetTick>
 8005f98:	4602      	mov	r2, r0
 8005f9a:	693b      	ldr	r3, [r7, #16]
 8005f9c:	1ad3      	subs	r3, r2, r3
 8005f9e:	2b02      	cmp	r3, #2
 8005fa0:	d901      	bls.n	8005fa6 <HAL_RCC_OscConfig+0x4be>
          {
            return HAL_TIMEOUT;
 8005fa2:	2303      	movs	r3, #3
 8005fa4:	e03d      	b.n	8006022 <HAL_RCC_OscConfig+0x53a>
        while (__HAL_RCC_GET_FLAG(RCC_FLAG_PLLRDY) != RESET)
 8005fa6:	4b03      	ldr	r3, [pc, #12]	; (8005fb4 <HAL_RCC_OscConfig+0x4cc>)
 8005fa8:	681b      	ldr	r3, [r3, #0]
 8005faa:	f003 7300 	and.w	r3, r3, #33554432	; 0x2000000
 8005fae:	2b00      	cmp	r3, #0
 8005fb0:	d1f0      	bne.n	8005f94 <HAL_RCC_OscConfig+0x4ac>
 8005fb2:	e035      	b.n	8006020 <HAL_RCC_OscConfig+0x538>
 8005fb4:	40023800 	.word	0x40023800
 8005fb8:	40007000 	.word	0x40007000
      }
    }
    else
    {
      /* Do not return HAL_ERROR if request repeats the current configuration */
      pll_config = RCC->PLLCFGR;
 8005fbc:	4b1b      	ldr	r3, [pc, #108]	; (800602c <HAL_RCC_OscConfig+0x544>)
 8005fbe:	685b      	ldr	r3, [r3, #4]
 8005fc0:	60fb      	str	r3, [r7, #12]
          (READ_BIT(pll_config, RCC_PLLCFGR_PLLN) != (RCC_OscInitStruct->PLL.PLLN << RCC_PLLCFGR_PLLN_Pos)) ||
          (READ_BIT(pll_config, RCC_PLLCFGR_PLLP) != ((((RCC_OscInitStruct->PLL.PLLP) >> 1U) - 1U) << RCC_PLLCFGR_PLLP_Pos)) ||
          (READ_BIT(pll_config, RCC_PLLCFGR_PLLQ) != (RCC_OscInitStruct->PLL.PLLQ << RCC_PLLCFGR_PLLQ_Pos)) ||
          (READ_BIT(pll_config, RCC_PLLCFGR_PLLR) != (RCC_OscInitStruct->PLL.PLLR << RCC_PLLCFGR_PLLR_Pos)))
#else
      if (((RCC_OscInitStruct->PLL.PLLState) == RCC_PLL_OFF) ||
 8005fc2:	687b      	ldr	r3, [r7, #4]
 8005fc4:	699b      	ldr	r3, [r3, #24]
 8005fc6:	2b01      	cmp	r3, #1
 8005fc8:	d028      	beq.n	800601c <HAL_RCC_OscConfig+0x534>
          (READ_BIT(pll_config, RCC_PLLCFGR_PLLSRC) != RCC_OscInitStruct->PLL.PLLSource) ||
 8005fca:	68fb      	ldr	r3, [r7, #12]
 8005fcc:	f403 0280 	and.w	r2, r3, #4194304	; 0x400000
 8005fd0:	687b      	ldr	r3, [r7, #4]
 8005fd2:	69db      	ldr	r3, [r3, #28]
      if (((RCC_OscInitStruct->PLL.PLLState) == RCC_PLL_OFF) ||
 8005fd4:	429a      	cmp	r2, r3
 8005fd6:	d121      	bne.n	800601c <HAL_RCC_OscConfig+0x534>
          (READ_BIT(pll_config, RCC_PLLCFGR_PLLM) != RCC_OscInitStruct->PLL.PLLM) ||
 8005fd8:	68fb      	ldr	r3, [r7, #12]
 8005fda:	f003 023f 	and.w	r2, r3, #63	; 0x3f
 8005fde:	687b      	ldr	r3, [r7, #4]
 8005fe0:	6a1b      	ldr	r3, [r3, #32]
          (READ_BIT(pll_config, RCC_PLLCFGR_PLLSRC) != RCC_OscInitStruct->PLL.PLLSource) ||
 8005fe2:	429a      	cmp	r2, r3
 8005fe4:	d11a      	bne.n	800601c <HAL_RCC_OscConfig+0x534>
          (READ_BIT(pll_config, RCC_PLLCFGR_PLLN) != (RCC_OscInitStruct->PLL.PLLN << RCC_PLLCFGR_PLLN_Pos)) ||
 8005fe6:	68fa      	ldr	r2, [r7, #12]
 8005fe8:	f647 73c0 	movw	r3, #32704	; 0x7fc0
 8005fec:	4013      	ands	r3, r2
 8005fee:	687a      	ldr	r2, [r7, #4]
 8005ff0:	6a52      	ldr	r2, [r2, #36]	; 0x24
 8005ff2:	0192      	lsls	r2, r2, #6
          (READ_BIT(pll_config, RCC_PLLCFGR_PLLM) != RCC_OscInitStruct->PLL.PLLM) ||
 8005ff4:	4293      	cmp	r3, r2
 8005ff6:	d111      	bne.n	800601c <HAL_RCC_OscConfig+0x534>
          (READ_BIT(pll_config, RCC_PLLCFGR_PLLP) != ((((RCC_OscInitStruct->PLL.PLLP) >> 1U) - 1U) << RCC_PLLCFGR_PLLP_Pos)) ||
 8005ff8:	68fb      	ldr	r3, [r7, #12]
 8005ffa:	f403 3240 	and.w	r2, r3, #196608	; 0x30000
 8005ffe:	687b      	ldr	r3, [r7, #4]
 8006000:	6a9b      	ldr	r3, [r3, #40]	; 0x28
 8006002:	085b      	lsrs	r3, r3, #1
 8006004:	3b01      	subs	r3, #1
 8006006:	041b      	lsls	r3, r3, #16
          (READ_BIT(pll_config, RCC_PLLCFGR_PLLN) != (RCC_OscInitStruct->PLL.PLLN << RCC_PLLCFGR_PLLN_Pos)) ||
 8006008:	429a      	cmp	r2, r3
 800600a:	d107      	bne.n	800601c <HAL_RCC_OscConfig+0x534>
          (READ_BIT(pll_config, RCC_PLLCFGR_PLLQ) != (RCC_OscInitStruct->PLL.PLLQ << RCC_PLLCFGR_PLLQ_Pos)))
 800600c:	68fb      	ldr	r3, [r7, #12]
 800600e:	f003 6270 	and.w	r2, r3, #251658240	; 0xf000000
 8006012:	687b      	ldr	r3, [r7, #4]
 8006014:	6adb      	ldr	r3, [r3, #44]	; 0x2c
 8006016:	061b      	lsls	r3, r3, #24
          (READ_BIT(pll_config, RCC_PLLCFGR_PLLP) != ((((RCC_OscInitStruct->PLL.PLLP) >> 1U) - 1U) << RCC_PLLCFGR_PLLP_Pos)) ||
 8006018:	429a      	cmp	r2, r3
 800601a:	d001      	beq.n	8006020 <HAL_RCC_OscConfig+0x538>
#endif
      {
        return HAL_ERROR;
 800601c:	2301      	movs	r3, #1
 800601e:	e000      	b.n	8006022 <HAL_RCC_OscConfig+0x53a>
      }
    }
  }
  return HAL_OK;
 8006020:	2300      	movs	r3, #0
}
 8006022:	4618      	mov	r0, r3
 8006024:	3718      	adds	r7, #24
 8006026:	46bd      	mov	sp, r7
 8006028:	bd80      	pop	{r7, pc}
 800602a:	bf00      	nop
 800602c:	40023800 	.word	0x40023800

08006030 <HAL_RCC_ClockConfig>:
  *         HPRE[3:0] bits to ensure that HCLK not exceed the maximum allowed frequency
  *         (for more details refer to section above "Initialization/de-initialization functions")
  * @retval None
  */
HAL_StatusTypeDef HAL_RCC_ClockConfig(RCC_ClkInitTypeDef  *RCC_ClkInitStruct, uint32_t FLatency)
{
 8006030:	b580      	push	{r7, lr}
 8006032:	b084      	sub	sp, #16
 8006034:	af00      	add	r7, sp, #0
 8006036:	6078      	str	r0, [r7, #4]
 8006038:	6039      	str	r1, [r7, #0]
  uint32_t tickstart = 0;
 800603a:	2300      	movs	r3, #0
 800603c:	60fb      	str	r3, [r7, #12]

  /* Check Null pointer */
  if (RCC_ClkInitStruct == NULL)
 800603e:	687b      	ldr	r3, [r7, #4]
 8006040:	2b00      	cmp	r3, #0
 8006042:	d101      	bne.n	8006048 <HAL_RCC_ClockConfig+0x18>
  {
    return HAL_ERROR;
 8006044:	2301      	movs	r3, #1
 8006046:	e0d0      	b.n	80061ea <HAL_RCC_ClockConfig+0x1ba>
  /* To correctly read data from FLASH memory, the number of wait states (LATENCY)
     must be correctly programmed according to the frequency of the CPU clock
     (HCLK) and the supply voltage of the device. */

  /* Increasing the CPU frequency */
  if (FLatency > __HAL_FLASH_GET_LATENCY())
 8006048:	4b6a      	ldr	r3, [pc, #424]	; (80061f4 <HAL_RCC_ClockConfig+0x1c4>)
 800604a:	681b      	ldr	r3, [r3, #0]
 800604c:	f003 030f 	and.w	r3, r3, #15
 8006050:	683a      	ldr	r2, [r7, #0]
 8006052:	429a      	cmp	r2, r3
 8006054:	d910      	bls.n	8006078 <HAL_RCC_ClockConfig+0x48>
  {
    /* Program the new number of wait states to the LATENCY bits in the FLASH_ACR register */
    __HAL_FLASH_SET_LATENCY(FLatency);
 8006056:	4b67      	ldr	r3, [pc, #412]	; (80061f4 <HAL_RCC_ClockConfig+0x1c4>)
 8006058:	681b      	ldr	r3, [r3, #0]
 800605a:	f023 020f 	bic.w	r2, r3, #15
 800605e:	4965      	ldr	r1, [pc, #404]	; (80061f4 <HAL_RCC_ClockConfig+0x1c4>)
 8006060:	683b      	ldr	r3, [r7, #0]
 8006062:	4313      	orrs	r3, r2
 8006064:	600b      	str	r3, [r1, #0]

    /* Check that the new number of wait states is taken into account to access the Flash
    memory by reading the FLASH_ACR register */
    if (__HAL_FLASH_GET_LATENCY() != FLatency)
 8006066:	4b63      	ldr	r3, [pc, #396]	; (80061f4 <HAL_RCC_ClockConfig+0x1c4>)
 8006068:	681b      	ldr	r3, [r3, #0]
 800606a:	f003 030f 	and.w	r3, r3, #15
 800606e:	683a      	ldr	r2, [r7, #0]
 8006070:	429a      	cmp	r2, r3
 8006072:	d001      	beq.n	8006078 <HAL_RCC_ClockConfig+0x48>
    {
      return HAL_ERROR;
 8006074:	2301      	movs	r3, #1
 8006076:	e0b8      	b.n	80061ea <HAL_RCC_ClockConfig+0x1ba>
    }
  }

  /*-------------------------- HCLK Configuration --------------------------*/
  if (((RCC_ClkInitStruct->ClockType) & RCC_CLOCKTYPE_HCLK) == RCC_CLOCKTYPE_HCLK)
 8006078:	687b      	ldr	r3, [r7, #4]
 800607a:	681b      	ldr	r3, [r3, #0]
 800607c:	f003 0302 	and.w	r3, r3, #2
 8006080:	2b00      	cmp	r3, #0
 8006082:	d020      	beq.n	80060c6 <HAL_RCC_ClockConfig+0x96>
  {
    /* Set the highest APBx dividers in order to ensure that we do not go through
       a non-spec phase whatever we decrease or increase HCLK. */
    if (((RCC_ClkInitStruct->ClockType) & RCC_CLOCKTYPE_PCLK1) == RCC_CLOCKTYPE_PCLK1)
 8006084:	687b      	ldr	r3, [r7, #4]
 8006086:	681b      	ldr	r3, [r3, #0]
 8006088:	f003 0304 	and.w	r3, r3, #4
 800608c:	2b00      	cmp	r3, #0
 800608e:	d005      	beq.n	800609c <HAL_RCC_ClockConfig+0x6c>
    {
      MODIFY_REG(RCC->CFGR, RCC_CFGR_PPRE1, RCC_HCLK_DIV16);
 8006090:	4b59      	ldr	r3, [pc, #356]	; (80061f8 <HAL_RCC_ClockConfig+0x1c8>)
 8006092:	689b      	ldr	r3, [r3, #8]
 8006094:	4a58      	ldr	r2, [pc, #352]	; (80061f8 <HAL_RCC_ClockConfig+0x1c8>)
 8006096:	f443 53e0 	orr.w	r3, r3, #7168	; 0x1c00
 800609a:	6093      	str	r3, [r2, #8]
    }

    if (((RCC_ClkInitStruct->ClockType) & RCC_CLOCKTYPE_PCLK2) == RCC_CLOCKTYPE_PCLK2)
 800609c:	687b      	ldr	r3, [r7, #4]
 800609e:	681b      	ldr	r3, [r3, #0]
 80060a0:	f003 0308 	and.w	r3, r3, #8
 80060a4:	2b00      	cmp	r3, #0
 80060a6:	d005      	beq.n	80060b4 <HAL_RCC_ClockConfig+0x84>
    {
      MODIFY_REG(RCC->CFGR, RCC_CFGR_PPRE2, (RCC_HCLK_DIV16 << 3));
 80060a8:	4b53      	ldr	r3, [pc, #332]	; (80061f8 <HAL_RCC_ClockConfig+0x1c8>)
 80060aa:	689b      	ldr	r3, [r3, #8]
 80060ac:	4a52      	ldr	r2, [pc, #328]	; (80061f8 <HAL_RCC_ClockConfig+0x1c8>)
 80060ae:	f443 4360 	orr.w	r3, r3, #57344	; 0xe000
 80060b2:	6093      	str	r3, [r2, #8]
    }

    /* Set the new HCLK clock divider */
    assert_param(IS_RCC_HCLK(RCC_ClkInitStruct->AHBCLKDivider));
    MODIFY_REG(RCC->CFGR, RCC_CFGR_HPRE, RCC_ClkInitStruct->AHBCLKDivider);
 80060b4:	4b50      	ldr	r3, [pc, #320]	; (80061f8 <HAL_RCC_ClockConfig+0x1c8>)
 80060b6:	689b      	ldr	r3, [r3, #8]
 80060b8:	f023 02f0 	bic.w	r2, r3, #240	; 0xf0
 80060bc:	687b      	ldr	r3, [r7, #4]
 80060be:	689b      	ldr	r3, [r3, #8]
 80060c0:	494d      	ldr	r1, [pc, #308]	; (80061f8 <HAL_RCC_ClockConfig+0x1c8>)
 80060c2:	4313      	orrs	r3, r2
 80060c4:	608b      	str	r3, [r1, #8]
  }

  /*------------------------- SYSCLK Configuration ---------------------------*/
  if (((RCC_ClkInitStruct->ClockType) & RCC_CLOCKTYPE_SYSCLK) == RCC_CLOCKTYPE_SYSCLK)
 80060c6:	687b      	ldr	r3, [r7, #4]
 80060c8:	681b      	ldr	r3, [r3, #0]
 80060ca:	f003 0301 	and.w	r3, r3, #1
 80060ce:	2b00      	cmp	r3, #0
 80060d0:	d040      	beq.n	8006154 <HAL_RCC_ClockConfig+0x124>
  {
    assert_param(IS_RCC_SYSCLKSOURCE(RCC_ClkInitStruct->SYSCLKSource));

    /* HSE is selected as System Clock Source */
    if (RCC_ClkInitStruct->SYSCLKSource == RCC_SYSCLKSOURCE_HSE)
 80060d2:	687b      	ldr	r3, [r7, #4]
 80060d4:	685b      	ldr	r3, [r3, #4]
 80060d6:	2b01      	cmp	r3, #1
 80060d8:	d107      	bne.n	80060ea <HAL_RCC_ClockConfig+0xba>
    {
      /* Check the HSE ready flag */
      if (__HAL_RCC_GET_FLAG(RCC_FLAG_HSERDY) == RESET)
 80060da:	4b47      	ldr	r3, [pc, #284]	; (80061f8 <HAL_RCC_ClockConfig+0x1c8>)
 80060dc:	681b      	ldr	r3, [r3, #0]
 80060de:	f403 3300 	and.w	r3, r3, #131072	; 0x20000
 80060e2:	2b00      	cmp	r3, #0
 80060e4:	d115      	bne.n	8006112 <HAL_RCC_ClockConfig+0xe2>
      {
        return HAL_ERROR;
 80060e6:	2301      	movs	r3, #1
 80060e8:	e07f      	b.n	80061ea <HAL_RCC_ClockConfig+0x1ba>
      }
    }
    /* PLL is selected as System Clock Source */
    else if (RCC_ClkInitStruct->SYSCLKSource == RCC_SYSCLKSOURCE_PLLCLK)
 80060ea:	687b      	ldr	r3, [r7, #4]
 80060ec:	685b      	ldr	r3, [r3, #4]
 80060ee:	2b02      	cmp	r3, #2
 80060f0:	d107      	bne.n	8006102 <HAL_RCC_ClockConfig+0xd2>
    {
      /* Check the PLL ready flag */
      if (__HAL_RCC_GET_FLAG(RCC_FLAG_PLLRDY) == RESET)
 80060f2:	4b41      	ldr	r3, [pc, #260]	; (80061f8 <HAL_RCC_ClockConfig+0x1c8>)
 80060f4:	681b      	ldr	r3, [r3, #0]
 80060f6:	f003 7300 	and.w	r3, r3, #33554432	; 0x2000000
 80060fa:	2b00      	cmp	r3, #0
 80060fc:	d109      	bne.n	8006112 <HAL_RCC_ClockConfig+0xe2>
      {
        return HAL_ERROR;
 80060fe:	2301      	movs	r3, #1
 8006100:	e073      	b.n	80061ea <HAL_RCC_ClockConfig+0x1ba>
    }
    /* HSI is selected as System Clock Source */
    else
    {
      /* Check the HSI ready flag */
      if (__HAL_RCC_GET_FLAG(RCC_FLAG_HSIRDY) == RESET)
 8006102:	4b3d      	ldr	r3, [pc, #244]	; (80061f8 <HAL_RCC_ClockConfig+0x1c8>)
 8006104:	681b      	ldr	r3, [r3, #0]
 8006106:	f003 0302 	and.w	r3, r3, #2
 800610a:	2b00      	cmp	r3, #0
 800610c:	d101      	bne.n	8006112 <HAL_RCC_ClockConfig+0xe2>
      {
        return HAL_ERROR;
 800610e:	2301      	movs	r3, #1
 8006110:	e06b      	b.n	80061ea <HAL_RCC_ClockConfig+0x1ba>
      }
    }

    __HAL_RCC_SYSCLK_CONFIG(RCC_ClkInitStruct->SYSCLKSource);
 8006112:	4b39      	ldr	r3, [pc, #228]	; (80061f8 <HAL_RCC_ClockConfig+0x1c8>)
 8006114:	689b      	ldr	r3, [r3, #8]
 8006116:	f023 0203 	bic.w	r2, r3, #3
 800611a:	687b      	ldr	r3, [r7, #4]
 800611c:	685b      	ldr	r3, [r3, #4]
 800611e:	4936      	ldr	r1, [pc, #216]	; (80061f8 <HAL_RCC_ClockConfig+0x1c8>)
 8006120:	4313      	orrs	r3, r2
 8006122:	608b      	str	r3, [r1, #8]

    /* Get Start Tick*/
    tickstart = HAL_GetTick();
 8006124:	f7fe fd5e 	bl	8004be4 <HAL_GetTick>
 8006128:	60f8      	str	r0, [r7, #12]

    while (__HAL_RCC_GET_SYSCLK_SOURCE() != (RCC_ClkInitStruct->SYSCLKSource << RCC_CFGR_SWS_Pos))
 800612a:	e00a      	b.n	8006142 <HAL_RCC_ClockConfig+0x112>
    {
      if ((HAL_GetTick() - tickstart) > CLOCKSWITCH_TIMEOUT_VALUE)
 800612c:	f7fe fd5a 	bl	8004be4 <HAL_GetTick>
 8006130:	4602      	mov	r2, r0
 8006132:	68fb      	ldr	r3, [r7, #12]
 8006134:	1ad3      	subs	r3, r2, r3
 8006136:	f241 3288 	movw	r2, #5000	; 0x1388
 800613a:	4293      	cmp	r3, r2
 800613c:	d901      	bls.n	8006142 <HAL_RCC_ClockConfig+0x112>
      {
        return HAL_TIMEOUT;
 800613e:	2303      	movs	r3, #3
 8006140:	e053      	b.n	80061ea <HAL_RCC_ClockConfig+0x1ba>
    while (__HAL_RCC_GET_SYSCLK_SOURCE() != (RCC_ClkInitStruct->SYSCLKSource << RCC_CFGR_SWS_Pos))
 8006142:	4b2d      	ldr	r3, [pc, #180]	; (80061f8 <HAL_RCC_ClockConfig+0x1c8>)
 8006144:	689b      	ldr	r3, [r3, #8]
 8006146:	f003 020c 	and.w	r2, r3, #12
 800614a:	687b      	ldr	r3, [r7, #4]
 800614c:	685b      	ldr	r3, [r3, #4]
 800614e:	009b      	lsls	r3, r3, #2
 8006150:	429a      	cmp	r2, r3
 8006152:	d1eb      	bne.n	800612c <HAL_RCC_ClockConfig+0xfc>
      }
    }
  }

  /* Decreasing the number of wait states because of lower CPU frequency */
  if (FLatency < __HAL_FLASH_GET_LATENCY())
 8006154:	4b27      	ldr	r3, [pc, #156]	; (80061f4 <HAL_RCC_ClockConfig+0x1c4>)
 8006156:	681b      	ldr	r3, [r3, #0]
 8006158:	f003 030f 	and.w	r3, r3, #15
 800615c:	683a      	ldr	r2, [r7, #0]
 800615e:	429a      	cmp	r2, r3
 8006160:	d210      	bcs.n	8006184 <HAL_RCC_ClockConfig+0x154>
  {
    /* Program the new number of wait states to the LATENCY bits in the FLASH_ACR register */
    __HAL_FLASH_SET_LATENCY(FLatency);
 8006162:	4b24      	ldr	r3, [pc, #144]	; (80061f4 <HAL_RCC_ClockConfig+0x1c4>)
 8006164:	681b      	ldr	r3, [r3, #0]
 8006166:	f023 020f 	bic.w	r2, r3, #15
 800616a:	4922      	ldr	r1, [pc, #136]	; (80061f4 <HAL_RCC_ClockConfig+0x1c4>)
 800616c:	683b      	ldr	r3, [r7, #0]
 800616e:	4313      	orrs	r3, r2
 8006170:	600b      	str	r3, [r1, #0]

    /* Check that the new number of wait states is taken into account to access the Flash
    memory by reading the FLASH_ACR register */
    if (__HAL_FLASH_GET_LATENCY() != FLatency)
 8006172:	4b20      	ldr	r3, [pc, #128]	; (80061f4 <HAL_RCC_ClockConfig+0x1c4>)
 8006174:	681b      	ldr	r3, [r3, #0]
 8006176:	f003 030f 	and.w	r3, r3, #15
 800617a:	683a      	ldr	r2, [r7, #0]
 800617c:	429a      	cmp	r2, r3
 800617e:	d001      	beq.n	8006184 <HAL_RCC_ClockConfig+0x154>
    {
      return HAL_ERROR;
 8006180:	2301      	movs	r3, #1
 8006182:	e032      	b.n	80061ea <HAL_RCC_ClockConfig+0x1ba>
    }
  }

  /*-------------------------- PCLK1 Configuration ---------------------------*/
  if (((RCC_ClkInitStruct->ClockType) & RCC_CLOCKTYPE_PCLK1) == RCC_CLOCKTYPE_PCLK1)
 8006184:	687b      	ldr	r3, [r7, #4]
 8006186:	681b      	ldr	r3, [r3, #0]
 8006188:	f003 0304 	and.w	r3, r3, #4
 800618c:	2b00      	cmp	r3, #0
 800618e:	d008      	beq.n	80061a2 <HAL_RCC_ClockConfig+0x172>
  {
    assert_param(IS_RCC_PCLK(RCC_ClkInitStruct->APB1CLKDivider));
    MODIFY_REG(RCC->CFGR, RCC_CFGR_PPRE1, RCC_ClkInitStruct->APB1CLKDivider);
 8006190:	4b19      	ldr	r3, [pc, #100]	; (80061f8 <HAL_RCC_ClockConfig+0x1c8>)
 8006192:	689b      	ldr	r3, [r3, #8]
 8006194:	f423 52e0 	bic.w	r2, r3, #7168	; 0x1c00
 8006198:	687b      	ldr	r3, [r7, #4]
 800619a:	68db      	ldr	r3, [r3, #12]
 800619c:	4916      	ldr	r1, [pc, #88]	; (80061f8 <HAL_RCC_ClockConfig+0x1c8>)
 800619e:	4313      	orrs	r3, r2
 80061a0:	608b      	str	r3, [r1, #8]
  }

  /*-------------------------- PCLK2 Configuration ---------------------------*/
  if (((RCC_ClkInitStruct->ClockType) & RCC_CLOCKTYPE_PCLK2) == RCC_CLOCKTYPE_PCLK2)
 80061a2:	687b      	ldr	r3, [r7, #4]
 80061a4:	681b      	ldr	r3, [r3, #0]
 80061a6:	f003 0308 	and.w	r3, r3, #8
 80061aa:	2b00      	cmp	r3, #0
 80061ac:	d009      	beq.n	80061c2 <HAL_RCC_ClockConfig+0x192>
  {
    assert_param(IS_RCC_PCLK(RCC_ClkInitStruct->APB2CLKDivider));
    MODIFY_REG(RCC->CFGR, RCC_CFGR_PPRE2, ((RCC_ClkInitStruct->APB2CLKDivider) << 3));
 80061ae:	4b12      	ldr	r3, [pc, #72]	; (80061f8 <HAL_RCC_ClockConfig+0x1c8>)
 80061b0:	689b      	ldr	r3, [r3, #8]
 80061b2:	f423 4260 	bic.w	r2, r3, #57344	; 0xe000
 80061b6:	687b      	ldr	r3, [r7, #4]
 80061b8:	691b      	ldr	r3, [r3, #16]
 80061ba:	00db      	lsls	r3, r3, #3
 80061bc:	490e      	ldr	r1, [pc, #56]	; (80061f8 <HAL_RCC_ClockConfig+0x1c8>)
 80061be:	4313      	orrs	r3, r2
 80061c0:	608b      	str	r3, [r1, #8]
  }

  /* Update the SystemCoreClock global variable */
  SystemCoreClock = HAL_RCC_GetSysClockFreq() >> AHBPrescTable[(RCC->CFGR & RCC_CFGR_HPRE) >> RCC_CFGR_HPRE_Pos];
 80061c2:	f000 f821 	bl	8006208 <HAL_RCC_GetSysClockFreq>
 80061c6:	4602      	mov	r2, r0
 80061c8:	4b0b      	ldr	r3, [pc, #44]	; (80061f8 <HAL_RCC_ClockConfig+0x1c8>)
 80061ca:	689b      	ldr	r3, [r3, #8]
 80061cc:	091b      	lsrs	r3, r3, #4
 80061ce:	f003 030f 	and.w	r3, r3, #15
 80061d2:	490a      	ldr	r1, [pc, #40]	; (80061fc <HAL_RCC_ClockConfig+0x1cc>)
 80061d4:	5ccb      	ldrb	r3, [r1, r3]
 80061d6:	fa22 f303 	lsr.w	r3, r2, r3
 80061da:	4a09      	ldr	r2, [pc, #36]	; (8006200 <HAL_RCC_ClockConfig+0x1d0>)
 80061dc:	6013      	str	r3, [r2, #0]

  /* Configure the source of time base considering new system clocks settings*/
  HAL_InitTick(uwTickPrio);
 80061de:	4b09      	ldr	r3, [pc, #36]	; (8006204 <HAL_RCC_ClockConfig+0x1d4>)
 80061e0:	681b      	ldr	r3, [r3, #0]
 80061e2:	4618      	mov	r0, r3
 80061e4:	f7fe fcba 	bl	8004b5c <HAL_InitTick>

  return HAL_OK;
 80061e8:	2300      	movs	r3, #0
}
 80061ea:	4618      	mov	r0, r3
 80061ec:	3710      	adds	r7, #16
 80061ee:	46bd      	mov	sp, r7
 80061f0:	bd80      	pop	{r7, pc}
 80061f2:	bf00      	nop
 80061f4:	40023c00 	.word	0x40023c00
 80061f8:	40023800 	.word	0x40023800
 80061fc:	0800989c 	.word	0x0800989c
 8006200:	20000134 	.word	0x20000134
 8006204:	20000138 	.word	0x20000138

08006208 <HAL_RCC_GetSysClockFreq>:
  *
  *
  * @retval SYSCLK frequency
  */
uint32_t HAL_RCC_GetSysClockFreq(void)
{
 8006208:	e92d 4fb0 	stmdb	sp!, {r4, r5, r7, r8, r9, sl, fp, lr}
 800620c:	b094      	sub	sp, #80	; 0x50
 800620e:	af00      	add	r7, sp, #0
  uint32_t pllm = 0, pllvco = 0, pllp = 0;
 8006210:	2300      	movs	r3, #0
 8006212:	647b      	str	r3, [r7, #68]	; 0x44
 8006214:	2300      	movs	r3, #0
 8006216:	64fb      	str	r3, [r7, #76]	; 0x4c
 8006218:	2300      	movs	r3, #0
 800621a:	643b      	str	r3, [r7, #64]	; 0x40
  uint32_t sysclockfreq = 0;
 800621c:	2300      	movs	r3, #0
 800621e:	64bb      	str	r3, [r7, #72]	; 0x48

  /* Get SYSCLK source -------------------------------------------------------*/
  switch (RCC->CFGR & RCC_CFGR_SWS)
 8006220:	4b79      	ldr	r3, [pc, #484]	; (8006408 <HAL_RCC_GetSysClockFreq+0x200>)
 8006222:	689b      	ldr	r3, [r3, #8]
 8006224:	f003 030c 	and.w	r3, r3, #12
 8006228:	2b08      	cmp	r3, #8
 800622a:	d00d      	beq.n	8006248 <HAL_RCC_GetSysClockFreq+0x40>
 800622c:	2b08      	cmp	r3, #8
 800622e:	f200 80e1 	bhi.w	80063f4 <HAL_RCC_GetSysClockFreq+0x1ec>
 8006232:	2b00      	cmp	r3, #0
 8006234:	d002      	beq.n	800623c <HAL_RCC_GetSysClockFreq+0x34>
 8006236:	2b04      	cmp	r3, #4
 8006238:	d003      	beq.n	8006242 <HAL_RCC_GetSysClockFreq+0x3a>
 800623a:	e0db      	b.n	80063f4 <HAL_RCC_GetSysClockFreq+0x1ec>
  {
    case RCC_SYSCLKSOURCE_STATUS_HSI:  /* HSI used as system clock source */
    {
      sysclockfreq = HSI_VALUE;
 800623c:	4b73      	ldr	r3, [pc, #460]	; (800640c <HAL_RCC_GetSysClockFreq+0x204>)
 800623e:	64bb      	str	r3, [r7, #72]	; 0x48
      break;
 8006240:	e0db      	b.n	80063fa <HAL_RCC_GetSysClockFreq+0x1f2>
    }
    case RCC_SYSCLKSOURCE_STATUS_HSE:  /* HSE used as system clock  source */
    {
      sysclockfreq = HSE_VALUE;
 8006242:	4b73      	ldr	r3, [pc, #460]	; (8006410 <HAL_RCC_GetSysClockFreq+0x208>)
 8006244:	64bb      	str	r3, [r7, #72]	; 0x48
      break;
 8006246:	e0d8      	b.n	80063fa <HAL_RCC_GetSysClockFreq+0x1f2>
    }
    case RCC_SYSCLKSOURCE_STATUS_PLLCLK:  /* PLL used as system clock  source */
    {
      /* PLL_VCO = (HSE_VALUE or HSI_VALUE / PLLM) * PLLN
      SYSCLK = PLL_VCO / PLLP */
      pllm = RCC->PLLCFGR & RCC_PLLCFGR_PLLM;
 8006248:	4b6f      	ldr	r3, [pc, #444]	; (8006408 <HAL_RCC_GetSysClockFreq+0x200>)
 800624a:	685b      	ldr	r3, [r3, #4]
 800624c:	f003 033f 	and.w	r3, r3, #63	; 0x3f
 8006250:	647b      	str	r3, [r7, #68]	; 0x44
      if (__HAL_RCC_GET_PLL_OSCSOURCE() != RCC_PLLCFGR_PLLSRC_HSI)
 8006252:	4b6d      	ldr	r3, [pc, #436]	; (8006408 <HAL_RCC_GetSysClockFreq+0x200>)
 8006254:	685b      	ldr	r3, [r3, #4]
 8006256:	f403 0380 	and.w	r3, r3, #4194304	; 0x400000
 800625a:	2b00      	cmp	r3, #0
 800625c:	d063      	beq.n	8006326 <HAL_RCC_GetSysClockFreq+0x11e>
      {
        /* HSE used as PLL clock source */
        pllvco = (uint32_t)((((uint64_t) HSE_VALUE * ((uint64_t)((RCC->PLLCFGR & RCC_PLLCFGR_PLLN) >> RCC_PLLCFGR_PLLN_Pos)))) / (uint64_t)pllm);
 800625e:	4b6a      	ldr	r3, [pc, #424]	; (8006408 <HAL_RCC_GetSysClockFreq+0x200>)
 8006260:	685b      	ldr	r3, [r3, #4]
 8006262:	099b      	lsrs	r3, r3, #6
 8006264:	2200      	movs	r2, #0
 8006266:	63bb      	str	r3, [r7, #56]	; 0x38
 8006268:	63fa      	str	r2, [r7, #60]	; 0x3c
 800626a:	6bbb      	ldr	r3, [r7, #56]	; 0x38
 800626c:	f3c3 0308 	ubfx	r3, r3, #0, #9
 8006270:	633b      	str	r3, [r7, #48]	; 0x30
 8006272:	2300      	movs	r3, #0
 8006274:	637b      	str	r3, [r7, #52]	; 0x34
 8006276:	e9d7 450c 	ldrd	r4, r5, [r7, #48]	; 0x30
 800627a:	4622      	mov	r2, r4
 800627c:	462b      	mov	r3, r5
 800627e:	f04f 0000 	mov.w	r0, #0
 8006282:	f04f 0100 	mov.w	r1, #0
 8006286:	0159      	lsls	r1, r3, #5
 8006288:	ea41 61d2 	orr.w	r1, r1, r2, lsr #27
 800628c:	0150      	lsls	r0, r2, #5
 800628e:	4602      	mov	r2, r0
 8006290:	460b      	mov	r3, r1
 8006292:	4621      	mov	r1, r4
 8006294:	1a51      	subs	r1, r2, r1
 8006296:	6139      	str	r1, [r7, #16]
 8006298:	4629      	mov	r1, r5
 800629a:	eb63 0301 	sbc.w	r3, r3, r1
 800629e:	617b      	str	r3, [r7, #20]
 80062a0:	f04f 0200 	mov.w	r2, #0
 80062a4:	f04f 0300 	mov.w	r3, #0
 80062a8:	e9d7 ab04 	ldrd	sl, fp, [r7, #16]
 80062ac:	4659      	mov	r1, fp
 80062ae:	018b      	lsls	r3, r1, #6
 80062b0:	4651      	mov	r1, sl
 80062b2:	ea43 6391 	orr.w	r3, r3, r1, lsr #26
 80062b6:	4651      	mov	r1, sl
 80062b8:	018a      	lsls	r2, r1, #6
 80062ba:	4651      	mov	r1, sl
 80062bc:	ebb2 0801 	subs.w	r8, r2, r1
 80062c0:	4659      	mov	r1, fp
 80062c2:	eb63 0901 	sbc.w	r9, r3, r1
 80062c6:	f04f 0200 	mov.w	r2, #0
 80062ca:	f04f 0300 	mov.w	r3, #0
 80062ce:	ea4f 03c9 	mov.w	r3, r9, lsl #3
 80062d2:	ea43 7358 	orr.w	r3, r3, r8, lsr #29
 80062d6:	ea4f 02c8 	mov.w	r2, r8, lsl #3
 80062da:	4690      	mov	r8, r2
 80062dc:	4699      	mov	r9, r3
 80062de:	4623      	mov	r3, r4
 80062e0:	eb18 0303 	adds.w	r3, r8, r3
 80062e4:	60bb      	str	r3, [r7, #8]
 80062e6:	462b      	mov	r3, r5
 80062e8:	eb49 0303 	adc.w	r3, r9, r3
 80062ec:	60fb      	str	r3, [r7, #12]
 80062ee:	f04f 0200 	mov.w	r2, #0
 80062f2:	f04f 0300 	mov.w	r3, #0
 80062f6:	e9d7 4502 	ldrd	r4, r5, [r7, #8]
 80062fa:	4629      	mov	r1, r5
 80062fc:	024b      	lsls	r3, r1, #9
 80062fe:	4621      	mov	r1, r4
 8006300:	ea43 53d1 	orr.w	r3, r3, r1, lsr #23
 8006304:	4621      	mov	r1, r4
 8006306:	024a      	lsls	r2, r1, #9
 8006308:	4610      	mov	r0, r2
 800630a:	4619      	mov	r1, r3
 800630c:	6c7b      	ldr	r3, [r7, #68]	; 0x44
 800630e:	2200      	movs	r2, #0
 8006310:	62bb      	str	r3, [r7, #40]	; 0x28
 8006312:	62fa      	str	r2, [r7, #44]	; 0x2c
 8006314:	e9d7 230a 	ldrd	r2, r3, [r7, #40]	; 0x28
 8006318:	f7f9 ff76 	bl	8000208 <__aeabi_uldivmod>
 800631c:	4602      	mov	r2, r0
 800631e:	460b      	mov	r3, r1
 8006320:	4613      	mov	r3, r2
 8006322:	64fb      	str	r3, [r7, #76]	; 0x4c
 8006324:	e058      	b.n	80063d8 <HAL_RCC_GetSysClockFreq+0x1d0>
      }
      else
      {
        /* HSI used as PLL clock source */
        pllvco = (uint32_t)((((uint64_t) HSI_VALUE * ((uint64_t)((RCC->PLLCFGR & RCC_PLLCFGR_PLLN) >> RCC_PLLCFGR_PLLN_Pos)))) / (uint64_t)pllm);
 8006326:	4b38      	ldr	r3, [pc, #224]	; (8006408 <HAL_RCC_GetSysClockFreq+0x200>)
 8006328:	685b      	ldr	r3, [r3, #4]
 800632a:	099b      	lsrs	r3, r3, #6
 800632c:	2200      	movs	r2, #0
 800632e:	4618      	mov	r0, r3
 8006330:	4611      	mov	r1, r2
 8006332:	f3c0 0308 	ubfx	r3, r0, #0, #9
 8006336:	623b      	str	r3, [r7, #32]
 8006338:	2300      	movs	r3, #0
 800633a:	627b      	str	r3, [r7, #36]	; 0x24
 800633c:	e9d7 8908 	ldrd	r8, r9, [r7, #32]
 8006340:	4642      	mov	r2, r8
 8006342:	464b      	mov	r3, r9
 8006344:	f04f 0000 	mov.w	r0, #0
 8006348:	f04f 0100 	mov.w	r1, #0
 800634c:	0159      	lsls	r1, r3, #5
 800634e:	ea41 61d2 	orr.w	r1, r1, r2, lsr #27
 8006352:	0150      	lsls	r0, r2, #5
 8006354:	4602      	mov	r2, r0
 8006356:	460b      	mov	r3, r1
 8006358:	4641      	mov	r1, r8
 800635a:	ebb2 0a01 	subs.w	sl, r2, r1
 800635e:	4649      	mov	r1, r9
 8006360:	eb63 0b01 	sbc.w	fp, r3, r1
 8006364:	f04f 0200 	mov.w	r2, #0
 8006368:	f04f 0300 	mov.w	r3, #0
 800636c:	ea4f 138b 	mov.w	r3, fp, lsl #6
 8006370:	ea43 639a 	orr.w	r3, r3, sl, lsr #26
 8006374:	ea4f 128a 	mov.w	r2, sl, lsl #6
 8006378:	ebb2 040a 	subs.w	r4, r2, sl
 800637c:	eb63 050b 	sbc.w	r5, r3, fp
 8006380:	f04f 0200 	mov.w	r2, #0
 8006384:	f04f 0300 	mov.w	r3, #0
 8006388:	00eb      	lsls	r3, r5, #3
 800638a:	ea43 7354 	orr.w	r3, r3, r4, lsr #29
 800638e:	00e2      	lsls	r2, r4, #3
 8006390:	4614      	mov	r4, r2
 8006392:	461d      	mov	r5, r3
 8006394:	4643      	mov	r3, r8
 8006396:	18e3      	adds	r3, r4, r3
 8006398:	603b      	str	r3, [r7, #0]
 800639a:	464b      	mov	r3, r9
 800639c:	eb45 0303 	adc.w	r3, r5, r3
 80063a0:	607b      	str	r3, [r7, #4]
 80063a2:	f04f 0200 	mov.w	r2, #0
 80063a6:	f04f 0300 	mov.w	r3, #0
 80063aa:	e9d7 4500 	ldrd	r4, r5, [r7]
 80063ae:	4629      	mov	r1, r5
 80063b0:	028b      	lsls	r3, r1, #10
 80063b2:	4621      	mov	r1, r4
 80063b4:	ea43 5391 	orr.w	r3, r3, r1, lsr #22
 80063b8:	4621      	mov	r1, r4
 80063ba:	028a      	lsls	r2, r1, #10
 80063bc:	4610      	mov	r0, r2
 80063be:	4619      	mov	r1, r3
 80063c0:	6c7b      	ldr	r3, [r7, #68]	; 0x44
 80063c2:	2200      	movs	r2, #0
 80063c4:	61bb      	str	r3, [r7, #24]
 80063c6:	61fa      	str	r2, [r7, #28]
 80063c8:	e9d7 2306 	ldrd	r2, r3, [r7, #24]
 80063cc:	f7f9 ff1c 	bl	8000208 <__aeabi_uldivmod>
 80063d0:	4602      	mov	r2, r0
 80063d2:	460b      	mov	r3, r1
 80063d4:	4613      	mov	r3, r2
 80063d6:	64fb      	str	r3, [r7, #76]	; 0x4c
      }
      pllp = ((((RCC->PLLCFGR & RCC_PLLCFGR_PLLP) >> RCC_PLLCFGR_PLLP_Pos) + 1) * 2);
 80063d8:	4b0b      	ldr	r3, [pc, #44]	; (8006408 <HAL_RCC_GetSysClockFreq+0x200>)
 80063da:	685b      	ldr	r3, [r3, #4]
 80063dc:	0c1b      	lsrs	r3, r3, #16
 80063de:	f003 0303 	and.w	r3, r3, #3
 80063e2:	3301      	adds	r3, #1
 80063e4:	005b      	lsls	r3, r3, #1
 80063e6:	643b      	str	r3, [r7, #64]	; 0x40

      sysclockfreq = pllvco / pllp;
 80063e8:	6cfa      	ldr	r2, [r7, #76]	; 0x4c
 80063ea:	6c3b      	ldr	r3, [r7, #64]	; 0x40
 80063ec:	fbb2 f3f3 	udiv	r3, r2, r3
 80063f0:	64bb      	str	r3, [r7, #72]	; 0x48
      break;
 80063f2:	e002      	b.n	80063fa <HAL_RCC_GetSysClockFreq+0x1f2>
    }
    default:
    {
      sysclockfreq = HSI_VALUE;
 80063f4:	4b05      	ldr	r3, [pc, #20]	; (800640c <HAL_RCC_GetSysClockFreq+0x204>)
 80063f6:	64bb      	str	r3, [r7, #72]	; 0x48
      break;
 80063f8:	bf00      	nop
    }
  }
  return sysclockfreq;
 80063fa:	6cbb      	ldr	r3, [r7, #72]	; 0x48
}
 80063fc:	4618      	mov	r0, r3
 80063fe:	3750      	adds	r7, #80	; 0x50
 8006400:	46bd      	mov	sp, r7
 8006402:	e8bd 8fb0 	ldmia.w	sp!, {r4, r5, r7, r8, r9, sl, fp, pc}
 8006406:	bf00      	nop
 8006408:	40023800 	.word	0x40023800
 800640c:	00f42400 	.word	0x00f42400
 8006410:	007a1200 	.word	0x007a1200

08006414 <HAL_RCC_GetHCLKFreq>:
  *         right HCLK value. Otherwise, any configuration based on this function will be incorrect.
  * @note   The SystemCoreClock CMSIS variable is used to store System Clock Frequency.
  * @retval HCLK frequency
  */
uint32_t HAL_RCC_GetHCLKFreq(void)
{
 8006414:	b480      	push	{r7}
 8006416:	af00      	add	r7, sp, #0
  return SystemCoreClock;
 8006418:	4b03      	ldr	r3, [pc, #12]	; (8006428 <HAL_RCC_GetHCLKFreq+0x14>)
 800641a:	681b      	ldr	r3, [r3, #0]
}
 800641c:	4618      	mov	r0, r3
 800641e:	46bd      	mov	sp, r7
 8006420:	f85d 7b04 	ldr.w	r7, [sp], #4
 8006424:	4770      	bx	lr
 8006426:	bf00      	nop
 8006428:	20000134 	.word	0x20000134

0800642c <HAL_RCC_GetPCLK1Freq>:
  * @note   Each time PCLK1 changes, this function must be called to update the
  *         right PCLK1 value. Otherwise, any configuration based on this function will be incorrect.
  * @retval PCLK1 frequency
  */
uint32_t HAL_RCC_GetPCLK1Freq(void)
{
 800642c:	b580      	push	{r7, lr}
 800642e:	af00      	add	r7, sp, #0
  /* Get HCLK source and Compute PCLK1 frequency ---------------------------*/
  return (HAL_RCC_GetHCLKFreq() >> APBPrescTable[(RCC->CFGR & RCC_CFGR_PPRE1) >> RCC_CFGR_PPRE1_Pos]);
 8006430:	f7ff fff0 	bl	8006414 <HAL_RCC_GetHCLKFreq>
 8006434:	4602      	mov	r2, r0
 8006436:	4b05      	ldr	r3, [pc, #20]	; (800644c <HAL_RCC_GetPCLK1Freq+0x20>)
 8006438:	689b      	ldr	r3, [r3, #8]
 800643a:	0a9b      	lsrs	r3, r3, #10
 800643c:	f003 0307 	and.w	r3, r3, #7
 8006440:	4903      	ldr	r1, [pc, #12]	; (8006450 <HAL_RCC_GetPCLK1Freq+0x24>)
 8006442:	5ccb      	ldrb	r3, [r1, r3]
 8006444:	fa22 f303 	lsr.w	r3, r2, r3
}
 8006448:	4618      	mov	r0, r3
 800644a:	bd80      	pop	{r7, pc}
 800644c:	40023800 	.word	0x40023800
 8006450:	080098ac 	.word	0x080098ac

08006454 <HAL_RCC_GetPCLK2Freq>:
  * @note   Each time PCLK2 changes, this function must be called to update the
  *         right PCLK2 value. Otherwise, any configuration based on this function will be incorrect.
  * @retval PCLK2 frequency
  */
uint32_t HAL_RCC_GetPCLK2Freq(void)
{
 8006454:	b580      	push	{r7, lr}
 8006456:	af00      	add	r7, sp, #0
  /* Get HCLK source and Compute PCLK2 frequency ---------------------------*/
  return (HAL_RCC_GetHCLKFreq() >> APBPrescTable[(RCC->CFGR & RCC_CFGR_PPRE2) >> RCC_CFGR_PPRE2_Pos]);
 8006458:	f7ff ffdc 	bl	8006414 <HAL_RCC_GetHCLKFreq>
 800645c:	4602      	mov	r2, r0
 800645e:	4b05      	ldr	r3, [pc, #20]	; (8006474 <HAL_RCC_GetPCLK2Freq+0x20>)
 8006460:	689b      	ldr	r3, [r3, #8]
 8006462:	0b5b      	lsrs	r3, r3, #13
 8006464:	f003 0307 	and.w	r3, r3, #7
 8006468:	4903      	ldr	r1, [pc, #12]	; (8006478 <HAL_RCC_GetPCLK2Freq+0x24>)
 800646a:	5ccb      	ldrb	r3, [r1, r3]
 800646c:	fa22 f303 	lsr.w	r3, r2, r3
}
 8006470:	4618      	mov	r0, r3
 8006472:	bd80      	pop	{r7, pc}
 8006474:	40023800 	.word	0x40023800
 8006478:	080098ac 	.word	0x080098ac

0800647c <HAL_RCCEx_PeriphCLKConfig>:
  *         the backup registers) are set to their reset values.
  *
  * @retval HAL status
  */
HAL_StatusTypeDef HAL_RCCEx_PeriphCLKConfig(RCC_PeriphCLKInitTypeDef  *PeriphClkInit)
{
 800647c:	b580      	push	{r7, lr}
 800647e:	b088      	sub	sp, #32
 8006480:	af00      	add	r7, sp, #0
 8006482:	6078      	str	r0, [r7, #4]
  uint32_t tickstart = 0;
 8006484:	2300      	movs	r3, #0
 8006486:	617b      	str	r3, [r7, #20]
  uint32_t tmpreg0 = 0;
 8006488:	2300      	movs	r3, #0
 800648a:	613b      	str	r3, [r7, #16]
  uint32_t tmpreg1 = 0;
 800648c:	2300      	movs	r3, #0
 800648e:	60fb      	str	r3, [r7, #12]
  uint32_t plli2sused = 0;
 8006490:	2300      	movs	r3, #0
 8006492:	61fb      	str	r3, [r7, #28]
  uint32_t pllsaiused = 0;
 8006494:	2300      	movs	r3, #0
 8006496:	61bb      	str	r3, [r7, #24]

  /* Check the parameters */
  assert_param(IS_RCC_PERIPHCLOCK(PeriphClkInit->PeriphClockSelection));

  /*----------------------------------- I2S configuration ----------------------------------*/
  if(((PeriphClkInit->PeriphClockSelection) & RCC_PERIPHCLK_I2S) == (RCC_PERIPHCLK_I2S))
 8006498:	687b      	ldr	r3, [r7, #4]
 800649a:	681b      	ldr	r3, [r3, #0]
 800649c:	f003 0301 	and.w	r3, r3, #1
 80064a0:	2b00      	cmp	r3, #0
 80064a2:	d012      	beq.n	80064ca <HAL_RCCEx_PeriphCLKConfig+0x4e>
  {
    /* Check the parameters */
    assert_param(IS_RCC_I2SCLKSOURCE(PeriphClkInit->I2sClockSelection));

    /* Configure I2S Clock source */
    __HAL_RCC_I2S_CONFIG(PeriphClkInit->I2sClockSelection);
 80064a4:	4b69      	ldr	r3, [pc, #420]	; (800664c <HAL_RCCEx_PeriphCLKConfig+0x1d0>)
 80064a6:	689b      	ldr	r3, [r3, #8]
 80064a8:	4a68      	ldr	r2, [pc, #416]	; (800664c <HAL_RCCEx_PeriphCLKConfig+0x1d0>)
 80064aa:	f423 0300 	bic.w	r3, r3, #8388608	; 0x800000
 80064ae:	6093      	str	r3, [r2, #8]
 80064b0:	4b66      	ldr	r3, [pc, #408]	; (800664c <HAL_RCCEx_PeriphCLKConfig+0x1d0>)
 80064b2:	689a      	ldr	r2, [r3, #8]
 80064b4:	687b      	ldr	r3, [r7, #4]
 80064b6:	6b5b      	ldr	r3, [r3, #52]	; 0x34
 80064b8:	4964      	ldr	r1, [pc, #400]	; (800664c <HAL_RCCEx_PeriphCLKConfig+0x1d0>)
 80064ba:	4313      	orrs	r3, r2
 80064bc:	608b      	str	r3, [r1, #8]

    /* Enable the PLLI2S when it's used as clock source for I2S */
    if(PeriphClkInit->I2sClockSelection == RCC_I2SCLKSOURCE_PLLI2S)
 80064be:	687b      	ldr	r3, [r7, #4]
 80064c0:	6b5b      	ldr	r3, [r3, #52]	; 0x34
 80064c2:	2b00      	cmp	r3, #0
 80064c4:	d101      	bne.n	80064ca <HAL_RCCEx_PeriphCLKConfig+0x4e>
    {
      plli2sused = 1;
 80064c6:	2301      	movs	r3, #1
 80064c8:	61fb      	str	r3, [r7, #28]
    }
  }

  /*------------------------------------ SAI1 configuration --------------------------------------*/
  if(((PeriphClkInit->PeriphClockSelection) & RCC_PERIPHCLK_SAI1) == (RCC_PERIPHCLK_SAI1))
 80064ca:	687b      	ldr	r3, [r7, #4]
 80064cc:	681b      	ldr	r3, [r3, #0]
 80064ce:	f403 2300 	and.w	r3, r3, #524288	; 0x80000
 80064d2:	2b00      	cmp	r3, #0
 80064d4:	d017      	beq.n	8006506 <HAL_RCCEx_PeriphCLKConfig+0x8a>
  {
    /* Check the parameters */
    assert_param(IS_RCC_SAI1CLKSOURCE(PeriphClkInit->Sai1ClockSelection));

    /* Configure SAI1 Clock source */
    __HAL_RCC_SAI1_CONFIG(PeriphClkInit->Sai1ClockSelection);
 80064d6:	4b5d      	ldr	r3, [pc, #372]	; (800664c <HAL_RCCEx_PeriphCLKConfig+0x1d0>)
 80064d8:	f8d3 308c 	ldr.w	r3, [r3, #140]	; 0x8c
 80064dc:	f423 1240 	bic.w	r2, r3, #3145728	; 0x300000
 80064e0:	687b      	ldr	r3, [r7, #4]
 80064e2:	6bdb      	ldr	r3, [r3, #60]	; 0x3c
 80064e4:	4959      	ldr	r1, [pc, #356]	; (800664c <HAL_RCCEx_PeriphCLKConfig+0x1d0>)
 80064e6:	4313      	orrs	r3, r2
 80064e8:	f8c1 308c 	str.w	r3, [r1, #140]	; 0x8c
    /* Enable the PLLI2S when it's used as clock source for SAI */
    if(PeriphClkInit->Sai1ClockSelection == RCC_SAI1CLKSOURCE_PLLI2S)
 80064ec:	687b      	ldr	r3, [r7, #4]
 80064ee:	6bdb      	ldr	r3, [r3, #60]	; 0x3c
 80064f0:	f5b3 1f80 	cmp.w	r3, #1048576	; 0x100000
 80064f4:	d101      	bne.n	80064fa <HAL_RCCEx_PeriphCLKConfig+0x7e>
    {
      plli2sused = 1;
 80064f6:	2301      	movs	r3, #1
 80064f8:	61fb      	str	r3, [r7, #28]
    }
    /* Enable the PLLSAI when it's used as clock source for SAI */
    if(PeriphClkInit->Sai1ClockSelection == RCC_SAI1CLKSOURCE_PLLSAI)
 80064fa:	687b      	ldr	r3, [r7, #4]
 80064fc:	6bdb      	ldr	r3, [r3, #60]	; 0x3c
 80064fe:	2b00      	cmp	r3, #0
 8006500:	d101      	bne.n	8006506 <HAL_RCCEx_PeriphCLKConfig+0x8a>
    {
      pllsaiused = 1;
 8006502:	2301      	movs	r3, #1
 8006504:	61bb      	str	r3, [r7, #24]
    }
  }

  /*------------------------------------ SAI2 configuration --------------------------------------*/
  if(((PeriphClkInit->PeriphClockSelection) & RCC_PERIPHCLK_SAI2) == (RCC_PERIPHCLK_SAI2))
 8006506:	687b      	ldr	r3, [r7, #4]
 8006508:	681b      	ldr	r3, [r3, #0]
 800650a:	f403 1380 	and.w	r3, r3, #1048576	; 0x100000
 800650e:	2b00      	cmp	r3, #0
 8006510:	d017      	beq.n	8006542 <HAL_RCCEx_PeriphCLKConfig+0xc6>
  {
    /* Check the parameters */
    assert_param(IS_RCC_SAI2CLKSOURCE(PeriphClkInit->Sai2ClockSelection));

    /* Configure SAI2 Clock source */
    __HAL_RCC_SAI2_CONFIG(PeriphClkInit->Sai2ClockSelection);
 8006512:	4b4e      	ldr	r3, [pc, #312]	; (800664c <HAL_RCCEx_PeriphCLKConfig+0x1d0>)
 8006514:	f8d3 308c 	ldr.w	r3, [r3, #140]	; 0x8c
 8006518:	f423 0240 	bic.w	r2, r3, #12582912	; 0xc00000
 800651c:	687b      	ldr	r3, [r7, #4]
 800651e:	6c1b      	ldr	r3, [r3, #64]	; 0x40
 8006520:	494a      	ldr	r1, [pc, #296]	; (800664c <HAL_RCCEx_PeriphCLKConfig+0x1d0>)
 8006522:	4313      	orrs	r3, r2
 8006524:	f8c1 308c 	str.w	r3, [r1, #140]	; 0x8c

    /* Enable the PLLI2S when it's used as clock source for SAI */
    if(PeriphClkInit->Sai2ClockSelection == RCC_SAI2CLKSOURCE_PLLI2S)
 8006528:	687b      	ldr	r3, [r7, #4]
 800652a:	6c1b      	ldr	r3, [r3, #64]	; 0x40
 800652c:	f5b3 0f80 	cmp.w	r3, #4194304	; 0x400000
 8006530:	d101      	bne.n	8006536 <HAL_RCCEx_PeriphCLKConfig+0xba>
    {
      plli2sused = 1;
 8006532:	2301      	movs	r3, #1
 8006534:	61fb      	str	r3, [r7, #28]
    }
    /* Enable the PLLSAI when it's used as clock source for SAI */
    if(PeriphClkInit->Sai2ClockSelection == RCC_SAI2CLKSOURCE_PLLSAI)
 8006536:	687b      	ldr	r3, [r7, #4]
 8006538:	6c1b      	ldr	r3, [r3, #64]	; 0x40
 800653a:	2b00      	cmp	r3, #0
 800653c:	d101      	bne.n	8006542 <HAL_RCCEx_PeriphCLKConfig+0xc6>
    {
      pllsaiused = 1;
 800653e:	2301      	movs	r3, #1
 8006540:	61bb      	str	r3, [r7, #24]
    }
  }

  /*-------------------------------------- SPDIF-RX Configuration -----------------------------------*/
  if(((PeriphClkInit->PeriphClockSelection) & RCC_PERIPHCLK_SPDIFRX) == RCC_PERIPHCLK_SPDIFRX)
 8006542:	687b      	ldr	r3, [r7, #4]
 8006544:	681b      	ldr	r3, [r3, #0]
 8006546:	f003 7380 	and.w	r3, r3, #16777216	; 0x1000000
 800654a:	2b00      	cmp	r3, #0
 800654c:	d001      	beq.n	8006552 <HAL_RCCEx_PeriphCLKConfig+0xd6>
  {
      plli2sused = 1;
 800654e:	2301      	movs	r3, #1
 8006550:	61fb      	str	r3, [r7, #28]
  }

  /*------------------------------------ RTC configuration --------------------------------------*/
  if(((PeriphClkInit->PeriphClockSelection) & RCC_PERIPHCLK_RTC) == (RCC_PERIPHCLK_RTC))
 8006552:	687b      	ldr	r3, [r7, #4]
 8006554:	681b      	ldr	r3, [r3, #0]
 8006556:	f003 0320 	and.w	r3, r3, #32
 800655a:	2b00      	cmp	r3, #0
 800655c:	f000 808b 	beq.w	8006676 <HAL_RCCEx_PeriphCLKConfig+0x1fa>
  {
    /* Check for RTC Parameters used to output RTCCLK */
    assert_param(IS_RCC_RTCCLKSOURCE(PeriphClkInit->RTCClockSelection));

    /* Enable Power Clock*/
    __HAL_RCC_PWR_CLK_ENABLE();
 8006560:	4b3a      	ldr	r3, [pc, #232]	; (800664c <HAL_RCCEx_PeriphCLKConfig+0x1d0>)
 8006562:	6c1b      	ldr	r3, [r3, #64]	; 0x40
 8006564:	4a39      	ldr	r2, [pc, #228]	; (800664c <HAL_RCCEx_PeriphCLKConfig+0x1d0>)
 8006566:	f043 5380 	orr.w	r3, r3, #268435456	; 0x10000000
 800656a:	6413      	str	r3, [r2, #64]	; 0x40
 800656c:	4b37      	ldr	r3, [pc, #220]	; (800664c <HAL_RCCEx_PeriphCLKConfig+0x1d0>)
 800656e:	6c1b      	ldr	r3, [r3, #64]	; 0x40
 8006570:	f003 5380 	and.w	r3, r3, #268435456	; 0x10000000
 8006574:	60bb      	str	r3, [r7, #8]
 8006576:	68bb      	ldr	r3, [r7, #8]

    /* Enable write access to Backup domain */
    PWR->CR1 |= PWR_CR1_DBP;
 8006578:	4b35      	ldr	r3, [pc, #212]	; (8006650 <HAL_RCCEx_PeriphCLKConfig+0x1d4>)
 800657a:	681b      	ldr	r3, [r3, #0]
 800657c:	4a34      	ldr	r2, [pc, #208]	; (8006650 <HAL_RCCEx_PeriphCLKConfig+0x1d4>)
 800657e:	f443 7380 	orr.w	r3, r3, #256	; 0x100
 8006582:	6013      	str	r3, [r2, #0]

    /* Get Start Tick*/
    tickstart = HAL_GetTick();
 8006584:	f7fe fb2e 	bl	8004be4 <HAL_GetTick>
 8006588:	6178      	str	r0, [r7, #20]

    /* Wait for Backup domain Write protection disable */
    while((PWR->CR1 & PWR_CR1_DBP) == RESET)
 800658a:	e008      	b.n	800659e <HAL_RCCEx_PeriphCLKConfig+0x122>
    {
      if((HAL_GetTick() - tickstart) > RCC_DBP_TIMEOUT_VALUE)
 800658c:	f7fe fb2a 	bl	8004be4 <HAL_GetTick>
 8006590:	4602      	mov	r2, r0
 8006592:	697b      	ldr	r3, [r7, #20]
 8006594:	1ad3      	subs	r3, r2, r3
 8006596:	2b64      	cmp	r3, #100	; 0x64
 8006598:	d901      	bls.n	800659e <HAL_RCCEx_PeriphCLKConfig+0x122>
      {
        return HAL_TIMEOUT;
 800659a:	2303      	movs	r3, #3
 800659c:	e357      	b.n	8006c4e <HAL_RCCEx_PeriphCLKConfig+0x7d2>
    while((PWR->CR1 & PWR_CR1_DBP) == RESET)
 800659e:	4b2c      	ldr	r3, [pc, #176]	; (8006650 <HAL_RCCEx_PeriphCLKConfig+0x1d4>)
 80065a0:	681b      	ldr	r3, [r3, #0]
 80065a2:	f403 7380 	and.w	r3, r3, #256	; 0x100
 80065a6:	2b00      	cmp	r3, #0
 80065a8:	d0f0      	beq.n	800658c <HAL_RCCEx_PeriphCLKConfig+0x110>
      }
    }

    /* Reset the Backup domain only if the RTC Clock source selection is modified */
    tmpreg0 = (RCC->BDCR & RCC_BDCR_RTCSEL);
 80065aa:	4b28      	ldr	r3, [pc, #160]	; (800664c <HAL_RCCEx_PeriphCLKConfig+0x1d0>)
 80065ac:	6f1b      	ldr	r3, [r3, #112]	; 0x70
 80065ae:	f403 7340 	and.w	r3, r3, #768	; 0x300
 80065b2:	613b      	str	r3, [r7, #16]

    if((tmpreg0 != 0x00000000U) && (tmpreg0 != (PeriphClkInit->RTCClockSelection & RCC_BDCR_RTCSEL)))
 80065b4:	693b      	ldr	r3, [r7, #16]
 80065b6:	2b00      	cmp	r3, #0
 80065b8:	d035      	beq.n	8006626 <HAL_RCCEx_PeriphCLKConfig+0x1aa>
 80065ba:	687b      	ldr	r3, [r7, #4]
 80065bc:	6b1b      	ldr	r3, [r3, #48]	; 0x30
 80065be:	f403 7340 	and.w	r3, r3, #768	; 0x300
 80065c2:	693a      	ldr	r2, [r7, #16]
 80065c4:	429a      	cmp	r2, r3
 80065c6:	d02e      	beq.n	8006626 <HAL_RCCEx_PeriphCLKConfig+0x1aa>
    {
      /* Store the content of BDCR register before the reset of Backup Domain */
      tmpreg0 = (RCC->BDCR & ~(RCC_BDCR_RTCSEL));
 80065c8:	4b20      	ldr	r3, [pc, #128]	; (800664c <HAL_RCCEx_PeriphCLKConfig+0x1d0>)
 80065ca:	6f1b      	ldr	r3, [r3, #112]	; 0x70
 80065cc:	f423 7340 	bic.w	r3, r3, #768	; 0x300
 80065d0:	613b      	str	r3, [r7, #16]

      /* RTC Clock selection can be changed only if the Backup Domain is reset */
      __HAL_RCC_BACKUPRESET_FORCE();
 80065d2:	4b1e      	ldr	r3, [pc, #120]	; (800664c <HAL_RCCEx_PeriphCLKConfig+0x1d0>)
 80065d4:	6f1b      	ldr	r3, [r3, #112]	; 0x70
 80065d6:	4a1d      	ldr	r2, [pc, #116]	; (800664c <HAL_RCCEx_PeriphCLKConfig+0x1d0>)
 80065d8:	f443 3380 	orr.w	r3, r3, #65536	; 0x10000
 80065dc:	6713      	str	r3, [r2, #112]	; 0x70
      __HAL_RCC_BACKUPRESET_RELEASE();
 80065de:	4b1b      	ldr	r3, [pc, #108]	; (800664c <HAL_RCCEx_PeriphCLKConfig+0x1d0>)
 80065e0:	6f1b      	ldr	r3, [r3, #112]	; 0x70
 80065e2:	4a1a      	ldr	r2, [pc, #104]	; (800664c <HAL_RCCEx_PeriphCLKConfig+0x1d0>)
 80065e4:	f423 3380 	bic.w	r3, r3, #65536	; 0x10000
 80065e8:	6713      	str	r3, [r2, #112]	; 0x70

      /* Restore the Content of BDCR register */
      RCC->BDCR = tmpreg0;
 80065ea:	4a18      	ldr	r2, [pc, #96]	; (800664c <HAL_RCCEx_PeriphCLKConfig+0x1d0>)
 80065ec:	693b      	ldr	r3, [r7, #16]
 80065ee:	6713      	str	r3, [r2, #112]	; 0x70

      /* Wait for LSE reactivation if LSE was enable prior to Backup Domain reset */
      if (HAL_IS_BIT_SET(RCC->BDCR, RCC_BDCR_LSEON))
 80065f0:	4b16      	ldr	r3, [pc, #88]	; (800664c <HAL_RCCEx_PeriphCLKConfig+0x1d0>)
 80065f2:	6f1b      	ldr	r3, [r3, #112]	; 0x70
 80065f4:	f003 0301 	and.w	r3, r3, #1
 80065f8:	2b01      	cmp	r3, #1
 80065fa:	d114      	bne.n	8006626 <HAL_RCCEx_PeriphCLKConfig+0x1aa>
      {
        /* Get Start Tick*/
        tickstart = HAL_GetTick();
 80065fc:	f7fe faf2 	bl	8004be4 <HAL_GetTick>
 8006600:	6178      	str	r0, [r7, #20]

        /* Wait till LSE is ready */
        while(__HAL_RCC_GET_FLAG(RCC_FLAG_LSERDY) == RESET)
 8006602:	e00a      	b.n	800661a <HAL_RCCEx_PeriphCLKConfig+0x19e>
        {
          if((HAL_GetTick() - tickstart ) > RCC_LSE_TIMEOUT_VALUE)
 8006604:	f7fe faee 	bl	8004be4 <HAL_GetTick>
 8006608:	4602      	mov	r2, r0
 800660a:	697b      	ldr	r3, [r7, #20]
 800660c:	1ad3      	subs	r3, r2, r3
 800660e:	f241 3288 	movw	r2, #5000	; 0x1388
 8006612:	4293      	cmp	r3, r2
 8006614:	d901      	bls.n	800661a <HAL_RCCEx_PeriphCLKConfig+0x19e>
          {
            return HAL_TIMEOUT;
 8006616:	2303      	movs	r3, #3
 8006618:	e319      	b.n	8006c4e <HAL_RCCEx_PeriphCLKConfig+0x7d2>
        while(__HAL_RCC_GET_FLAG(RCC_FLAG_LSERDY) == RESET)
 800661a:	4b0c      	ldr	r3, [pc, #48]	; (800664c <HAL_RCCEx_PeriphCLKConfig+0x1d0>)
 800661c:	6f1b      	ldr	r3, [r3, #112]	; 0x70
 800661e:	f003 0302 	and.w	r3, r3, #2
 8006622:	2b00      	cmp	r3, #0
 8006624:	d0ee      	beq.n	8006604 <HAL_RCCEx_PeriphCLKConfig+0x188>
          }
        }
      }
    }
    __HAL_RCC_RTC_CONFIG(PeriphClkInit->RTCClockSelection);
 8006626:	687b      	ldr	r3, [r7, #4]
 8006628:	6b1b      	ldr	r3, [r3, #48]	; 0x30
 800662a:	f403 7340 	and.w	r3, r3, #768	; 0x300
 800662e:	f5b3 7f40 	cmp.w	r3, #768	; 0x300
 8006632:	d111      	bne.n	8006658 <HAL_RCCEx_PeriphCLKConfig+0x1dc>
 8006634:	4b05      	ldr	r3, [pc, #20]	; (800664c <HAL_RCCEx_PeriphCLKConfig+0x1d0>)
 8006636:	689b      	ldr	r3, [r3, #8]
 8006638:	f423 12f8 	bic.w	r2, r3, #2031616	; 0x1f0000
 800663c:	687b      	ldr	r3, [r7, #4]
 800663e:	6b19      	ldr	r1, [r3, #48]	; 0x30
 8006640:	4b04      	ldr	r3, [pc, #16]	; (8006654 <HAL_RCCEx_PeriphCLKConfig+0x1d8>)
 8006642:	400b      	ands	r3, r1
 8006644:	4901      	ldr	r1, [pc, #4]	; (800664c <HAL_RCCEx_PeriphCLKConfig+0x1d0>)
 8006646:	4313      	orrs	r3, r2
 8006648:	608b      	str	r3, [r1, #8]
 800664a:	e00b      	b.n	8006664 <HAL_RCCEx_PeriphCLKConfig+0x1e8>
 800664c:	40023800 	.word	0x40023800
 8006650:	40007000 	.word	0x40007000
 8006654:	0ffffcff 	.word	0x0ffffcff
 8006658:	4baa      	ldr	r3, [pc, #680]	; (8006904 <HAL_RCCEx_PeriphCLKConfig+0x488>)
 800665a:	689b      	ldr	r3, [r3, #8]
 800665c:	4aa9      	ldr	r2, [pc, #676]	; (8006904 <HAL_RCCEx_PeriphCLKConfig+0x488>)
 800665e:	f423 13f8 	bic.w	r3, r3, #2031616	; 0x1f0000
 8006662:	6093      	str	r3, [r2, #8]
 8006664:	4ba7      	ldr	r3, [pc, #668]	; (8006904 <HAL_RCCEx_PeriphCLKConfig+0x488>)
 8006666:	6f1a      	ldr	r2, [r3, #112]	; 0x70
 8006668:	687b      	ldr	r3, [r7, #4]
 800666a:	6b1b      	ldr	r3, [r3, #48]	; 0x30
 800666c:	f3c3 030b 	ubfx	r3, r3, #0, #12
 8006670:	49a4      	ldr	r1, [pc, #656]	; (8006904 <HAL_RCCEx_PeriphCLKConfig+0x488>)
 8006672:	4313      	orrs	r3, r2
 8006674:	670b      	str	r3, [r1, #112]	; 0x70
  }

  /*------------------------------------ TIM configuration --------------------------------------*/
  if(((PeriphClkInit->PeriphClockSelection) & RCC_PERIPHCLK_TIM) == (RCC_PERIPHCLK_TIM))
 8006676:	687b      	ldr	r3, [r7, #4]
 8006678:	681b      	ldr	r3, [r3, #0]
 800667a:	f003 0310 	and.w	r3, r3, #16
 800667e:	2b00      	cmp	r3, #0
 8006680:	d010      	beq.n	80066a4 <HAL_RCCEx_PeriphCLKConfig+0x228>
  {
    /* Check the parameters */
    assert_param(IS_RCC_TIMPRES(PeriphClkInit->TIMPresSelection));

    /* Configure Timer Prescaler */
    __HAL_RCC_TIMCLKPRESCALER(PeriphClkInit->TIMPresSelection);
 8006682:	4ba0      	ldr	r3, [pc, #640]	; (8006904 <HAL_RCCEx_PeriphCLKConfig+0x488>)
 8006684:	f8d3 308c 	ldr.w	r3, [r3, #140]	; 0x8c
 8006688:	4a9e      	ldr	r2, [pc, #632]	; (8006904 <HAL_RCCEx_PeriphCLKConfig+0x488>)
 800668a:	f023 7380 	bic.w	r3, r3, #16777216	; 0x1000000
 800668e:	f8c2 308c 	str.w	r3, [r2, #140]	; 0x8c
 8006692:	4b9c      	ldr	r3, [pc, #624]	; (8006904 <HAL_RCCEx_PeriphCLKConfig+0x488>)
 8006694:	f8d3 208c 	ldr.w	r2, [r3, #140]	; 0x8c
 8006698:	687b      	ldr	r3, [r7, #4]
 800669a:	6b9b      	ldr	r3, [r3, #56]	; 0x38
 800669c:	4999      	ldr	r1, [pc, #612]	; (8006904 <HAL_RCCEx_PeriphCLKConfig+0x488>)
 800669e:	4313      	orrs	r3, r2
 80066a0:	f8c1 308c 	str.w	r3, [r1, #140]	; 0x8c
  }

  /*-------------------------------------- I2C1 Configuration -----------------------------------*/
  if(((PeriphClkInit->PeriphClockSelection) & RCC_PERIPHCLK_I2C1) == RCC_PERIPHCLK_I2C1)
 80066a4:	687b      	ldr	r3, [r7, #4]
 80066a6:	681b      	ldr	r3, [r3, #0]
 80066a8:	f403 4380 	and.w	r3, r3, #16384	; 0x4000
 80066ac:	2b00      	cmp	r3, #0
 80066ae:	d00a      	beq.n	80066c6 <HAL_RCCEx_PeriphCLKConfig+0x24a>
  {
    /* Check the parameters */
    assert_param(IS_RCC_I2C1CLKSOURCE(PeriphClkInit->I2c1ClockSelection));

    /* Configure the I2C1 clock source */
    __HAL_RCC_I2C1_CONFIG(PeriphClkInit->I2c1ClockSelection);
 80066b0:	4b94      	ldr	r3, [pc, #592]	; (8006904 <HAL_RCCEx_PeriphCLKConfig+0x488>)
 80066b2:	f8d3 3090 	ldr.w	r3, [r3, #144]	; 0x90
 80066b6:	f423 3240 	bic.w	r2, r3, #196608	; 0x30000
 80066ba:	687b      	ldr	r3, [r7, #4]
 80066bc:	6e5b      	ldr	r3, [r3, #100]	; 0x64
 80066be:	4991      	ldr	r1, [pc, #580]	; (8006904 <HAL_RCCEx_PeriphCLKConfig+0x488>)
 80066c0:	4313      	orrs	r3, r2
 80066c2:	f8c1 3090 	str.w	r3, [r1, #144]	; 0x90
  }

  /*-------------------------------------- I2C2 Configuration -----------------------------------*/
  if(((PeriphClkInit->PeriphClockSelection) & RCC_PERIPHCLK_I2C2) == RCC_PERIPHCLK_I2C2)
 80066c6:	687b      	ldr	r3, [r7, #4]
 80066c8:	681b      	ldr	r3, [r3, #0]
 80066ca:	f403 4300 	and.w	r3, r3, #32768	; 0x8000
 80066ce:	2b00      	cmp	r3, #0
 80066d0:	d00a      	beq.n	80066e8 <HAL_RCCEx_PeriphCLKConfig+0x26c>
  {
    /* Check the parameters */
    assert_param(IS_RCC_I2C2CLKSOURCE(PeriphClkInit->I2c2ClockSelection));

    /* Configure the I2C2 clock source */
    __HAL_RCC_I2C2_CONFIG(PeriphClkInit->I2c2ClockSelection);
 80066d2:	4b8c      	ldr	r3, [pc, #560]	; (8006904 <HAL_RCCEx_PeriphCLKConfig+0x488>)
 80066d4:	f8d3 3090 	ldr.w	r3, [r3, #144]	; 0x90
 80066d8:	f423 2240 	bic.w	r2, r3, #786432	; 0xc0000
 80066dc:	687b      	ldr	r3, [r7, #4]
 80066de:	6e9b      	ldr	r3, [r3, #104]	; 0x68
 80066e0:	4988      	ldr	r1, [pc, #544]	; (8006904 <HAL_RCCEx_PeriphCLKConfig+0x488>)
 80066e2:	4313      	orrs	r3, r2
 80066e4:	f8c1 3090 	str.w	r3, [r1, #144]	; 0x90
  }

  /*-------------------------------------- I2C3 Configuration -----------------------------------*/
  if(((PeriphClkInit->PeriphClockSelection) & RCC_PERIPHCLK_I2C3) == RCC_PERIPHCLK_I2C3)
 80066e8:	687b      	ldr	r3, [r7, #4]
 80066ea:	681b      	ldr	r3, [r3, #0]
 80066ec:	f403 3380 	and.w	r3, r3, #65536	; 0x10000
 80066f0:	2b00      	cmp	r3, #0
 80066f2:	d00a      	beq.n	800670a <HAL_RCCEx_PeriphCLKConfig+0x28e>
  {
    /* Check the parameters */
    assert_param(IS_RCC_I2C3CLKSOURCE(PeriphClkInit->I2c3ClockSelection));

    /* Configure the I2C3 clock source */
    __HAL_RCC_I2C3_CONFIG(PeriphClkInit->I2c3ClockSelection);
 80066f4:	4b83      	ldr	r3, [pc, #524]	; (8006904 <HAL_RCCEx_PeriphCLKConfig+0x488>)
 80066f6:	f8d3 3090 	ldr.w	r3, [r3, #144]	; 0x90
 80066fa:	f423 1240 	bic.w	r2, r3, #3145728	; 0x300000
 80066fe:	687b      	ldr	r3, [r7, #4]
 8006700:	6edb      	ldr	r3, [r3, #108]	; 0x6c
 8006702:	4980      	ldr	r1, [pc, #512]	; (8006904 <HAL_RCCEx_PeriphCLKConfig+0x488>)
 8006704:	4313      	orrs	r3, r2
 8006706:	f8c1 3090 	str.w	r3, [r1, #144]	; 0x90
  }

  /*-------------------------------------- I2C4 Configuration -----------------------------------*/
  if(((PeriphClkInit->PeriphClockSelection) & RCC_PERIPHCLK_I2C4) == RCC_PERIPHCLK_I2C4)
 800670a:	687b      	ldr	r3, [r7, #4]
 800670c:	681b      	ldr	r3, [r3, #0]
 800670e:	f403 3300 	and.w	r3, r3, #131072	; 0x20000
 8006712:	2b00      	cmp	r3, #0
 8006714:	d00a      	beq.n	800672c <HAL_RCCEx_PeriphCLKConfig+0x2b0>
  {
    /* Check the parameters */
    assert_param(IS_RCC_I2C4CLKSOURCE(PeriphClkInit->I2c4ClockSelection));

    /* Configure the I2C4 clock source */
    __HAL_RCC_I2C4_CONFIG(PeriphClkInit->I2c4ClockSelection);
 8006716:	4b7b      	ldr	r3, [pc, #492]	; (8006904 <HAL_RCCEx_PeriphCLKConfig+0x488>)
 8006718:	f8d3 3090 	ldr.w	r3, [r3, #144]	; 0x90
 800671c:	f423 0240 	bic.w	r2, r3, #12582912	; 0xc00000
 8006720:	687b      	ldr	r3, [r7, #4]
 8006722:	6f1b      	ldr	r3, [r3, #112]	; 0x70
 8006724:	4977      	ldr	r1, [pc, #476]	; (8006904 <HAL_RCCEx_PeriphCLKConfig+0x488>)
 8006726:	4313      	orrs	r3, r2
 8006728:	f8c1 3090 	str.w	r3, [r1, #144]	; 0x90
  }

  /*-------------------------------------- USART1 Configuration -----------------------------------*/
  if(((PeriphClkInit->PeriphClockSelection) & RCC_PERIPHCLK_USART1) == RCC_PERIPHCLK_USART1)
 800672c:	687b      	ldr	r3, [r7, #4]
 800672e:	681b      	ldr	r3, [r3, #0]
 8006730:	f003 0340 	and.w	r3, r3, #64	; 0x40
 8006734:	2b00      	cmp	r3, #0
 8006736:	d00a      	beq.n	800674e <HAL_RCCEx_PeriphCLKConfig+0x2d2>
  {
    /* Check the parameters */
    assert_param(IS_RCC_USART1CLKSOURCE(PeriphClkInit->Usart1ClockSelection));

    /* Configure the USART1 clock source */
    __HAL_RCC_USART1_CONFIG(PeriphClkInit->Usart1ClockSelection);
 8006738:	4b72      	ldr	r3, [pc, #456]	; (8006904 <HAL_RCCEx_PeriphCLKConfig+0x488>)
 800673a:	f8d3 3090 	ldr.w	r3, [r3, #144]	; 0x90
 800673e:	f023 0203 	bic.w	r2, r3, #3
 8006742:	687b      	ldr	r3, [r7, #4]
 8006744:	6c5b      	ldr	r3, [r3, #68]	; 0x44
 8006746:	496f      	ldr	r1, [pc, #444]	; (8006904 <HAL_RCCEx_PeriphCLKConfig+0x488>)
 8006748:	4313      	orrs	r3, r2
 800674a:	f8c1 3090 	str.w	r3, [r1, #144]	; 0x90
  }

  /*-------------------------------------- USART2 Configuration -----------------------------------*/
  if(((PeriphClkInit->PeriphClockSelection) & RCC_PERIPHCLK_USART2) == RCC_PERIPHCLK_USART2)
 800674e:	687b      	ldr	r3, [r7, #4]
 8006750:	681b      	ldr	r3, [r3, #0]
 8006752:	f003 0380 	and.w	r3, r3, #128	; 0x80
 8006756:	2b00      	cmp	r3, #0
 8006758:	d00a      	beq.n	8006770 <HAL_RCCEx_PeriphCLKConfig+0x2f4>
  {
    /* Check the parameters */
    assert_param(IS_RCC_USART2CLKSOURCE(PeriphClkInit->Usart2ClockSelection));

    /* Configure the USART2 clock source */
    __HAL_RCC_USART2_CONFIG(PeriphClkInit->Usart2ClockSelection);
 800675a:	4b6a      	ldr	r3, [pc, #424]	; (8006904 <HAL_RCCEx_PeriphCLKConfig+0x488>)
 800675c:	f8d3 3090 	ldr.w	r3, [r3, #144]	; 0x90
 8006760:	f023 020c 	bic.w	r2, r3, #12
 8006764:	687b      	ldr	r3, [r7, #4]
 8006766:	6c9b      	ldr	r3, [r3, #72]	; 0x48
 8006768:	4966      	ldr	r1, [pc, #408]	; (8006904 <HAL_RCCEx_PeriphCLKConfig+0x488>)
 800676a:	4313      	orrs	r3, r2
 800676c:	f8c1 3090 	str.w	r3, [r1, #144]	; 0x90
  }

  /*-------------------------------------- USART3 Configuration -----------------------------------*/
  if(((PeriphClkInit->PeriphClockSelection) & RCC_PERIPHCLK_USART3) == RCC_PERIPHCLK_USART3)
 8006770:	687b      	ldr	r3, [r7, #4]
 8006772:	681b      	ldr	r3, [r3, #0]
 8006774:	f403 7380 	and.w	r3, r3, #256	; 0x100
 8006778:	2b00      	cmp	r3, #0
 800677a:	d00a      	beq.n	8006792 <HAL_RCCEx_PeriphCLKConfig+0x316>
  {
    /* Check the parameters */
    assert_param(IS_RCC_USART3CLKSOURCE(PeriphClkInit->Usart3ClockSelection));

    /* Configure the USART3 clock source */
    __HAL_RCC_USART3_CONFIG(PeriphClkInit->Usart3ClockSelection);
 800677c:	4b61      	ldr	r3, [pc, #388]	; (8006904 <HAL_RCCEx_PeriphCLKConfig+0x488>)
 800677e:	f8d3 3090 	ldr.w	r3, [r3, #144]	; 0x90
 8006782:	f023 0230 	bic.w	r2, r3, #48	; 0x30
 8006786:	687b      	ldr	r3, [r7, #4]
 8006788:	6cdb      	ldr	r3, [r3, #76]	; 0x4c
 800678a:	495e      	ldr	r1, [pc, #376]	; (8006904 <HAL_RCCEx_PeriphCLKConfig+0x488>)
 800678c:	4313      	orrs	r3, r2
 800678e:	f8c1 3090 	str.w	r3, [r1, #144]	; 0x90
  }

  /*-------------------------------------- UART4 Configuration -----------------------------------*/
  if(((PeriphClkInit->PeriphClockSelection) & RCC_PERIPHCLK_UART4) == RCC_PERIPHCLK_UART4)
 8006792:	687b      	ldr	r3, [r7, #4]
 8006794:	681b      	ldr	r3, [r3, #0]
 8006796:	f403 7300 	and.w	r3, r3, #512	; 0x200
 800679a:	2b00      	cmp	r3, #0
 800679c:	d00a      	beq.n	80067b4 <HAL_RCCEx_PeriphCLKConfig+0x338>
  {
    /* Check the parameters */
    assert_param(IS_RCC_UART4CLKSOURCE(PeriphClkInit->Uart4ClockSelection));

    /* Configure the UART4 clock source */
    __HAL_RCC_UART4_CONFIG(PeriphClkInit->Uart4ClockSelection);
 800679e:	4b59      	ldr	r3, [pc, #356]	; (8006904 <HAL_RCCEx_PeriphCLKConfig+0x488>)
 80067a0:	f8d3 3090 	ldr.w	r3, [r3, #144]	; 0x90
 80067a4:	f023 02c0 	bic.w	r2, r3, #192	; 0xc0
 80067a8:	687b      	ldr	r3, [r7, #4]
 80067aa:	6d1b      	ldr	r3, [r3, #80]	; 0x50
 80067ac:	4955      	ldr	r1, [pc, #340]	; (8006904 <HAL_RCCEx_PeriphCLKConfig+0x488>)
 80067ae:	4313      	orrs	r3, r2
 80067b0:	f8c1 3090 	str.w	r3, [r1, #144]	; 0x90
  }

  /*-------------------------------------- UART5 Configuration -----------------------------------*/
  if(((PeriphClkInit->PeriphClockSelection) & RCC_PERIPHCLK_UART5) == RCC_PERIPHCLK_UART5)
 80067b4:	687b      	ldr	r3, [r7, #4]
 80067b6:	681b      	ldr	r3, [r3, #0]
 80067b8:	f403 6380 	and.w	r3, r3, #1024	; 0x400
 80067bc:	2b00      	cmp	r3, #0
 80067be:	d00a      	beq.n	80067d6 <HAL_RCCEx_PeriphCLKConfig+0x35a>
  {
    /* Check the parameters */
    assert_param(IS_RCC_UART5CLKSOURCE(PeriphClkInit->Uart5ClockSelection));

    /* Configure the UART5 clock source */
    __HAL_RCC_UART5_CONFIG(PeriphClkInit->Uart5ClockSelection);
 80067c0:	4b50      	ldr	r3, [pc, #320]	; (8006904 <HAL_RCCEx_PeriphCLKConfig+0x488>)
 80067c2:	f8d3 3090 	ldr.w	r3, [r3, #144]	; 0x90
 80067c6:	f423 7240 	bic.w	r2, r3, #768	; 0x300
 80067ca:	687b      	ldr	r3, [r7, #4]
 80067cc:	6d5b      	ldr	r3, [r3, #84]	; 0x54
 80067ce:	494d      	ldr	r1, [pc, #308]	; (8006904 <HAL_RCCEx_PeriphCLKConfig+0x488>)
 80067d0:	4313      	orrs	r3, r2
 80067d2:	f8c1 3090 	str.w	r3, [r1, #144]	; 0x90
  }

  /*-------------------------------------- USART6 Configuration -----------------------------------*/
  if(((PeriphClkInit->PeriphClockSelection) & RCC_PERIPHCLK_USART6) == RCC_PERIPHCLK_USART6)
 80067d6:	687b      	ldr	r3, [r7, #4]
 80067d8:	681b      	ldr	r3, [r3, #0]
 80067da:	f403 6300 	and.w	r3, r3, #2048	; 0x800
 80067de:	2b00      	cmp	r3, #0
 80067e0:	d00a      	beq.n	80067f8 <HAL_RCCEx_PeriphCLKConfig+0x37c>
  {
    /* Check the parameters */
    assert_param(IS_RCC_USART6CLKSOURCE(PeriphClkInit->Usart6ClockSelection));

    /* Configure the USART6 clock source */
    __HAL_RCC_USART6_CONFIG(PeriphClkInit->Usart6ClockSelection);
 80067e2:	4b48      	ldr	r3, [pc, #288]	; (8006904 <HAL_RCCEx_PeriphCLKConfig+0x488>)
 80067e4:	f8d3 3090 	ldr.w	r3, [r3, #144]	; 0x90
 80067e8:	f423 6240 	bic.w	r2, r3, #3072	; 0xc00
 80067ec:	687b      	ldr	r3, [r7, #4]
 80067ee:	6d9b      	ldr	r3, [r3, #88]	; 0x58
 80067f0:	4944      	ldr	r1, [pc, #272]	; (8006904 <HAL_RCCEx_PeriphCLKConfig+0x488>)
 80067f2:	4313      	orrs	r3, r2
 80067f4:	f8c1 3090 	str.w	r3, [r1, #144]	; 0x90
  }

  /*-------------------------------------- UART7 Configuration -----------------------------------*/
  if(((PeriphClkInit->PeriphClockSelection) & RCC_PERIPHCLK_UART7) == RCC_PERIPHCLK_UART7)
 80067f8:	687b      	ldr	r3, [r7, #4]
 80067fa:	681b      	ldr	r3, [r3, #0]
 80067fc:	f403 5380 	and.w	r3, r3, #4096	; 0x1000
 8006800:	2b00      	cmp	r3, #0
 8006802:	d00a      	beq.n	800681a <HAL_RCCEx_PeriphCLKConfig+0x39e>
  {
    /* Check the parameters */
    assert_param(IS_RCC_UART7CLKSOURCE(PeriphClkInit->Uart7ClockSelection));

    /* Configure the UART7 clock source */
    __HAL_RCC_UART7_CONFIG(PeriphClkInit->Uart7ClockSelection);
 8006804:	4b3f      	ldr	r3, [pc, #252]	; (8006904 <HAL_RCCEx_PeriphCLKConfig+0x488>)
 8006806:	f8d3 3090 	ldr.w	r3, [r3, #144]	; 0x90
 800680a:	f423 5240 	bic.w	r2, r3, #12288	; 0x3000
 800680e:	687b      	ldr	r3, [r7, #4]
 8006810:	6ddb      	ldr	r3, [r3, #92]	; 0x5c
 8006812:	493c      	ldr	r1, [pc, #240]	; (8006904 <HAL_RCCEx_PeriphCLKConfig+0x488>)
 8006814:	4313      	orrs	r3, r2
 8006816:	f8c1 3090 	str.w	r3, [r1, #144]	; 0x90
  }

  /*-------------------------------------- UART8 Configuration -----------------------------------*/
  if(((PeriphClkInit->PeriphClockSelection) & RCC_PERIPHCLK_UART8) == RCC_PERIPHCLK_UART8)
 800681a:	687b      	ldr	r3, [r7, #4]
 800681c:	681b      	ldr	r3, [r3, #0]
 800681e:	f403 5300 	and.w	r3, r3, #8192	; 0x2000
 8006822:	2b00      	cmp	r3, #0
 8006824:	d00a      	beq.n	800683c <HAL_RCCEx_PeriphCLKConfig+0x3c0>
  {
    /* Check the parameters */
    assert_param(IS_RCC_UART8CLKSOURCE(PeriphClkInit->Uart8ClockSelection));

    /* Configure the UART8 clock source */
    __HAL_RCC_UART8_CONFIG(PeriphClkInit->Uart8ClockSelection);
 8006826:	4b37      	ldr	r3, [pc, #220]	; (8006904 <HAL_RCCEx_PeriphCLKConfig+0x488>)
 8006828:	f8d3 3090 	ldr.w	r3, [r3, #144]	; 0x90
 800682c:	f423 4240 	bic.w	r2, r3, #49152	; 0xc000
 8006830:	687b      	ldr	r3, [r7, #4]
 8006832:	6e1b      	ldr	r3, [r3, #96]	; 0x60
 8006834:	4933      	ldr	r1, [pc, #204]	; (8006904 <HAL_RCCEx_PeriphCLKConfig+0x488>)
 8006836:	4313      	orrs	r3, r2
 8006838:	f8c1 3090 	str.w	r3, [r1, #144]	; 0x90
  }

  /*--------------------------------------- CEC Configuration -----------------------------------*/
  if(((PeriphClkInit->PeriphClockSelection) & RCC_PERIPHCLK_CEC) == RCC_PERIPHCLK_CEC)
 800683c:	687b      	ldr	r3, [r7, #4]
 800683e:	681b      	ldr	r3, [r3, #0]
 8006840:	f403 0380 	and.w	r3, r3, #4194304	; 0x400000
 8006844:	2b00      	cmp	r3, #0
 8006846:	d00a      	beq.n	800685e <HAL_RCCEx_PeriphCLKConfig+0x3e2>
  {
    /* Check the parameters */
    assert_param(IS_RCC_CECCLKSOURCE(PeriphClkInit->CecClockSelection));

    /* Configure the CEC clock source */
    __HAL_RCC_CEC_CONFIG(PeriphClkInit->CecClockSelection);
 8006848:	4b2e      	ldr	r3, [pc, #184]	; (8006904 <HAL_RCCEx_PeriphCLKConfig+0x488>)
 800684a:	f8d3 3090 	ldr.w	r3, [r3, #144]	; 0x90
 800684e:	f023 6280 	bic.w	r2, r3, #67108864	; 0x4000000
 8006852:	687b      	ldr	r3, [r7, #4]
 8006854:	6f9b      	ldr	r3, [r3, #120]	; 0x78
 8006856:	492b      	ldr	r1, [pc, #172]	; (8006904 <HAL_RCCEx_PeriphCLKConfig+0x488>)
 8006858:	4313      	orrs	r3, r2
 800685a:	f8c1 3090 	str.w	r3, [r1, #144]	; 0x90
  }

  /*-------------------------------------- CK48 Configuration -----------------------------------*/
  if(((PeriphClkInit->PeriphClockSelection) & RCC_PERIPHCLK_CLK48) == RCC_PERIPHCLK_CLK48)
 800685e:	687b      	ldr	r3, [r7, #4]
 8006860:	681b      	ldr	r3, [r3, #0]
 8006862:	f403 1300 	and.w	r3, r3, #2097152	; 0x200000
 8006866:	2b00      	cmp	r3, #0
 8006868:	d011      	beq.n	800688e <HAL_RCCEx_PeriphCLKConfig+0x412>
  {
    /* Check the parameters */
    assert_param(IS_RCC_CLK48SOURCE(PeriphClkInit->Clk48ClockSelection));

    /* Configure the CLK48 source */
    __HAL_RCC_CLK48_CONFIG(PeriphClkInit->Clk48ClockSelection);
 800686a:	4b26      	ldr	r3, [pc, #152]	; (8006904 <HAL_RCCEx_PeriphCLKConfig+0x488>)
 800686c:	f8d3 3090 	ldr.w	r3, [r3, #144]	; 0x90
 8006870:	f023 6200 	bic.w	r2, r3, #134217728	; 0x8000000
 8006874:	687b      	ldr	r3, [r7, #4]
 8006876:	6fdb      	ldr	r3, [r3, #124]	; 0x7c
 8006878:	4922      	ldr	r1, [pc, #136]	; (8006904 <HAL_RCCEx_PeriphCLKConfig+0x488>)
 800687a:	4313      	orrs	r3, r2
 800687c:	f8c1 3090 	str.w	r3, [r1, #144]	; 0x90

    /* Enable the PLLSAI when it's used as clock source for CK48 */
    if(PeriphClkInit->Clk48ClockSelection == RCC_CLK48SOURCE_PLLSAIP)
 8006880:	687b      	ldr	r3, [r7, #4]
 8006882:	6fdb      	ldr	r3, [r3, #124]	; 0x7c
 8006884:	f1b3 6f00 	cmp.w	r3, #134217728	; 0x8000000
 8006888:	d101      	bne.n	800688e <HAL_RCCEx_PeriphCLKConfig+0x412>
    {
      pllsaiused = 1;
 800688a:	2301      	movs	r3, #1
 800688c:	61bb      	str	r3, [r7, #24]
    }
  }

  /*-------------------------------------- LTDC Configuration -----------------------------------*/
#if defined(STM32F746xx) || defined(STM32F756xx) || defined (STM32F767xx) || defined (STM32F769xx) || defined (STM32F777xx) || defined (STM32F779xx) || defined (STM32F750xx)
  if(((PeriphClkInit->PeriphClockSelection) & RCC_PERIPHCLK_LTDC) == RCC_PERIPHCLK_LTDC)
 800688e:	687b      	ldr	r3, [r7, #4]
 8006890:	681b      	ldr	r3, [r3, #0]
 8006892:	f003 0308 	and.w	r3, r3, #8
 8006896:	2b00      	cmp	r3, #0
 8006898:	d001      	beq.n	800689e <HAL_RCCEx_PeriphCLKConfig+0x422>
  {
    pllsaiused = 1;
 800689a:	2301      	movs	r3, #1
 800689c:	61bb      	str	r3, [r7, #24]
  }
#endif /* STM32F746xx || STM32F756xx || STM32F767xx || STM32F769xx || STM32F777xx || STM32F779xx || STM32F750xx */

  /*-------------------------------------- LPTIM1 Configuration -----------------------------------*/
  if(((PeriphClkInit->PeriphClockSelection) & RCC_PERIPHCLK_LPTIM1) == RCC_PERIPHCLK_LPTIM1)
 800689e:	687b      	ldr	r3, [r7, #4]
 80068a0:	681b      	ldr	r3, [r3, #0]
 80068a2:	f403 2380 	and.w	r3, r3, #262144	; 0x40000
 80068a6:	2b00      	cmp	r3, #0
 80068a8:	d00a      	beq.n	80068c0 <HAL_RCCEx_PeriphCLKConfig+0x444>
  {
    /* Check the parameters */
    assert_param(IS_RCC_LPTIM1CLK(PeriphClkInit->Lptim1ClockSelection));

    /* Configure the LTPIM1 clock source */
    __HAL_RCC_LPTIM1_CONFIG(PeriphClkInit->Lptim1ClockSelection);
 80068aa:	4b16      	ldr	r3, [pc, #88]	; (8006904 <HAL_RCCEx_PeriphCLKConfig+0x488>)
 80068ac:	f8d3 3090 	ldr.w	r3, [r3, #144]	; 0x90
 80068b0:	f023 7240 	bic.w	r2, r3, #50331648	; 0x3000000
 80068b4:	687b      	ldr	r3, [r7, #4]
 80068b6:	6f5b      	ldr	r3, [r3, #116]	; 0x74
 80068b8:	4912      	ldr	r1, [pc, #72]	; (8006904 <HAL_RCCEx_PeriphCLKConfig+0x488>)
 80068ba:	4313      	orrs	r3, r2
 80068bc:	f8c1 3090 	str.w	r3, [r1, #144]	; 0x90
   }

  /*------------------------------------- SDMMC1 Configuration ------------------------------------*/
  if(((PeriphClkInit->PeriphClockSelection) & RCC_PERIPHCLK_SDMMC1) == RCC_PERIPHCLK_SDMMC1)
 80068c0:	687b      	ldr	r3, [r7, #4]
 80068c2:	681b      	ldr	r3, [r3, #0]
 80068c4:	f403 0300 	and.w	r3, r3, #8388608	; 0x800000
 80068c8:	2b00      	cmp	r3, #0
 80068ca:	d00b      	beq.n	80068e4 <HAL_RCCEx_PeriphCLKConfig+0x468>
  {
    /* Check the parameters */
    assert_param(IS_RCC_SDMMC1CLKSOURCE(PeriphClkInit->Sdmmc1ClockSelection));

    /* Configure the SDMMC1 clock source */
    __HAL_RCC_SDMMC1_CONFIG(PeriphClkInit->Sdmmc1ClockSelection);
 80068cc:	4b0d      	ldr	r3, [pc, #52]	; (8006904 <HAL_RCCEx_PeriphCLKConfig+0x488>)
 80068ce:	f8d3 3090 	ldr.w	r3, [r3, #144]	; 0x90
 80068d2:	f023 5280 	bic.w	r2, r3, #268435456	; 0x10000000
 80068d6:	687b      	ldr	r3, [r7, #4]
 80068d8:	f8d3 3080 	ldr.w	r3, [r3, #128]	; 0x80
 80068dc:	4909      	ldr	r1, [pc, #36]	; (8006904 <HAL_RCCEx_PeriphCLKConfig+0x488>)
 80068de:	4313      	orrs	r3, r2
 80068e0:	f8c1 3090 	str.w	r3, [r1, #144]	; 0x90
  }
#endif /* STM32F767xx || STM32F769xx || STM32F777xx || STM32F779xx */

  /*-------------------------------------- PLLI2S Configuration ---------------------------------*/
  /* PLLI2S is configured when a peripheral will use it as source clock : SAI1, SAI2, I2S or SPDIF-RX */
  if((plli2sused == 1) || ((PeriphClkInit->PeriphClockSelection & RCC_PERIPHCLK_PLLI2S) == RCC_PERIPHCLK_PLLI2S))
 80068e4:	69fb      	ldr	r3, [r7, #28]
 80068e6:	2b01      	cmp	r3, #1
 80068e8:	d006      	beq.n	80068f8 <HAL_RCCEx_PeriphCLKConfig+0x47c>
 80068ea:	687b      	ldr	r3, [r7, #4]
 80068ec:	681b      	ldr	r3, [r3, #0]
 80068ee:	f003 7300 	and.w	r3, r3, #33554432	; 0x2000000
 80068f2:	2b00      	cmp	r3, #0
 80068f4:	f000 80d9 	beq.w	8006aaa <HAL_RCCEx_PeriphCLKConfig+0x62e>
  {
    /* Disable the PLLI2S */
    __HAL_RCC_PLLI2S_DISABLE();
 80068f8:	4b02      	ldr	r3, [pc, #8]	; (8006904 <HAL_RCCEx_PeriphCLKConfig+0x488>)
 80068fa:	681b      	ldr	r3, [r3, #0]
 80068fc:	4a01      	ldr	r2, [pc, #4]	; (8006904 <HAL_RCCEx_PeriphCLKConfig+0x488>)
 80068fe:	f023 6380 	bic.w	r3, r3, #67108864	; 0x4000000
 8006902:	e001      	b.n	8006908 <HAL_RCCEx_PeriphCLKConfig+0x48c>
 8006904:	40023800 	.word	0x40023800
 8006908:	6013      	str	r3, [r2, #0]

    /* Get Start Tick*/
    tickstart = HAL_GetTick();
 800690a:	f7fe f96b 	bl	8004be4 <HAL_GetTick>
 800690e:	6178      	str	r0, [r7, #20]

    /* Wait till PLLI2S is disabled */
    while(__HAL_RCC_GET_FLAG(RCC_FLAG_PLLI2SRDY)  != RESET)
 8006910:	e008      	b.n	8006924 <HAL_RCCEx_PeriphCLKConfig+0x4a8>
    {
      if((HAL_GetTick() - tickstart) > PLLI2S_TIMEOUT_VALUE)
 8006912:	f7fe f967 	bl	8004be4 <HAL_GetTick>
 8006916:	4602      	mov	r2, r0
 8006918:	697b      	ldr	r3, [r7, #20]
 800691a:	1ad3      	subs	r3, r2, r3
 800691c:	2b64      	cmp	r3, #100	; 0x64
 800691e:	d901      	bls.n	8006924 <HAL_RCCEx_PeriphCLKConfig+0x4a8>
      {
        /* return in case of Timeout detected */
        return HAL_TIMEOUT;
 8006920:	2303      	movs	r3, #3
 8006922:	e194      	b.n	8006c4e <HAL_RCCEx_PeriphCLKConfig+0x7d2>
    while(__HAL_RCC_GET_FLAG(RCC_FLAG_PLLI2SRDY)  != RESET)
 8006924:	4b6c      	ldr	r3, [pc, #432]	; (8006ad8 <HAL_RCCEx_PeriphCLKConfig+0x65c>)
 8006926:	681b      	ldr	r3, [r3, #0]
 8006928:	f003 6300 	and.w	r3, r3, #134217728	; 0x8000000
 800692c:	2b00      	cmp	r3, #0
 800692e:	d1f0      	bne.n	8006912 <HAL_RCCEx_PeriphCLKConfig+0x496>

    /* check for common PLLI2S Parameters */
    assert_param(IS_RCC_PLLI2SN_VALUE(PeriphClkInit->PLLI2S.PLLI2SN));

    /*----------------- In Case of PLLI2S is selected as source clock for I2S -------------------*/
    if(((((PeriphClkInit->PeriphClockSelection) & RCC_PERIPHCLK_I2S) == RCC_PERIPHCLK_I2S) && (PeriphClkInit->I2sClockSelection == RCC_I2SCLKSOURCE_PLLI2S)))
 8006930:	687b      	ldr	r3, [r7, #4]
 8006932:	681b      	ldr	r3, [r3, #0]
 8006934:	f003 0301 	and.w	r3, r3, #1
 8006938:	2b00      	cmp	r3, #0
 800693a:	d021      	beq.n	8006980 <HAL_RCCEx_PeriphCLKConfig+0x504>
 800693c:	687b      	ldr	r3, [r7, #4]
 800693e:	6b5b      	ldr	r3, [r3, #52]	; 0x34
 8006940:	2b00      	cmp	r3, #0
 8006942:	d11d      	bne.n	8006980 <HAL_RCCEx_PeriphCLKConfig+0x504>
    {
      /* check for Parameters */
      assert_param(IS_RCC_PLLI2SR_VALUE(PeriphClkInit->PLLI2S.PLLI2SR));

      /* Read PLLI2SP and PLLI2SQ value from PLLI2SCFGR register (this value is not needed for I2S configuration) */
      tmpreg0 = ((RCC->PLLI2SCFGR & RCC_PLLI2SCFGR_PLLI2SP) >> RCC_PLLI2SCFGR_PLLI2SP_Pos);
 8006944:	4b64      	ldr	r3, [pc, #400]	; (8006ad8 <HAL_RCCEx_PeriphCLKConfig+0x65c>)
 8006946:	f8d3 3084 	ldr.w	r3, [r3, #132]	; 0x84
 800694a:	0c1b      	lsrs	r3, r3, #16
 800694c:	f003 0303 	and.w	r3, r3, #3
 8006950:	613b      	str	r3, [r7, #16]
      tmpreg1 = ((RCC->PLLI2SCFGR & RCC_PLLI2SCFGR_PLLI2SQ) >> RCC_PLLI2SCFGR_PLLI2SQ_Pos);
 8006952:	4b61      	ldr	r3, [pc, #388]	; (8006ad8 <HAL_RCCEx_PeriphCLKConfig+0x65c>)
 8006954:	f8d3 3084 	ldr.w	r3, [r3, #132]	; 0x84
 8006958:	0e1b      	lsrs	r3, r3, #24
 800695a:	f003 030f 	and.w	r3, r3, #15
 800695e:	60fb      	str	r3, [r7, #12]
      /* Configure the PLLI2S division factors */
      /* PLLI2S_VCO = f(VCO clock) = f(PLLI2S clock input) x (PLLI2SN/PLLM) */
      /* I2SCLK = f(PLLI2S clock output) = f(VCO clock) / PLLI2SR */
      __HAL_RCC_PLLI2S_CONFIG(PeriphClkInit->PLLI2S.PLLI2SN , tmpreg0, tmpreg1, PeriphClkInit->PLLI2S.PLLI2SR);
 8006960:	687b      	ldr	r3, [r7, #4]
 8006962:	685b      	ldr	r3, [r3, #4]
 8006964:	019a      	lsls	r2, r3, #6
 8006966:	693b      	ldr	r3, [r7, #16]
 8006968:	041b      	lsls	r3, r3, #16
 800696a:	431a      	orrs	r2, r3
 800696c:	68fb      	ldr	r3, [r7, #12]
 800696e:	061b      	lsls	r3, r3, #24
 8006970:	431a      	orrs	r2, r3
 8006972:	687b      	ldr	r3, [r7, #4]
 8006974:	689b      	ldr	r3, [r3, #8]
 8006976:	071b      	lsls	r3, r3, #28
 8006978:	4957      	ldr	r1, [pc, #348]	; (8006ad8 <HAL_RCCEx_PeriphCLKConfig+0x65c>)
 800697a:	4313      	orrs	r3, r2
 800697c:	f8c1 3084 	str.w	r3, [r1, #132]	; 0x84
    }

    /*----------------- In Case of PLLI2S is selected as source clock for SAI -------------------*/
    if(((((PeriphClkInit->PeriphClockSelection) & RCC_PERIPHCLK_SAI1) == RCC_PERIPHCLK_SAI1) && (PeriphClkInit->Sai1ClockSelection == RCC_SAI1CLKSOURCE_PLLI2S)) ||
 8006980:	687b      	ldr	r3, [r7, #4]
 8006982:	681b      	ldr	r3, [r3, #0]
 8006984:	f403 2300 	and.w	r3, r3, #524288	; 0x80000
 8006988:	2b00      	cmp	r3, #0
 800698a:	d004      	beq.n	8006996 <HAL_RCCEx_PeriphCLKConfig+0x51a>
 800698c:	687b      	ldr	r3, [r7, #4]
 800698e:	6bdb      	ldr	r3, [r3, #60]	; 0x3c
 8006990:	f5b3 1f80 	cmp.w	r3, #1048576	; 0x100000
 8006994:	d00a      	beq.n	80069ac <HAL_RCCEx_PeriphCLKConfig+0x530>
       ((((PeriphClkInit->PeriphClockSelection) & RCC_PERIPHCLK_SAI2) == RCC_PERIPHCLK_SAI2) && (PeriphClkInit->Sai2ClockSelection == RCC_SAI2CLKSOURCE_PLLI2S)))
 8006996:	687b      	ldr	r3, [r7, #4]
 8006998:	681b      	ldr	r3, [r3, #0]
 800699a:	f403 1380 	and.w	r3, r3, #1048576	; 0x100000
    if(((((PeriphClkInit->PeriphClockSelection) & RCC_PERIPHCLK_SAI1) == RCC_PERIPHCLK_SAI1) && (PeriphClkInit->Sai1ClockSelection == RCC_SAI1CLKSOURCE_PLLI2S)) ||
 800699e:	2b00      	cmp	r3, #0
 80069a0:	d02e      	beq.n	8006a00 <HAL_RCCEx_PeriphCLKConfig+0x584>
       ((((PeriphClkInit->PeriphClockSelection) & RCC_PERIPHCLK_SAI2) == RCC_PERIPHCLK_SAI2) && (PeriphClkInit->Sai2ClockSelection == RCC_SAI2CLKSOURCE_PLLI2S)))
 80069a2:	687b      	ldr	r3, [r7, #4]
 80069a4:	6c1b      	ldr	r3, [r3, #64]	; 0x40
 80069a6:	f5b3 0f80 	cmp.w	r3, #4194304	; 0x400000
 80069aa:	d129      	bne.n	8006a00 <HAL_RCCEx_PeriphCLKConfig+0x584>
      assert_param(IS_RCC_PLLI2SQ_VALUE(PeriphClkInit->PLLI2S.PLLI2SQ));
      /* Check for PLLI2S/DIVQ parameters */
      assert_param(IS_RCC_PLLI2S_DIVQ_VALUE(PeriphClkInit->PLLI2SDivQ));

      /* Read PLLI2SP and PLLI2SR values from PLLI2SCFGR register (this value is not needed for SAI configuration) */
      tmpreg0 = ((RCC->PLLI2SCFGR & RCC_PLLI2SCFGR_PLLI2SP) >> RCC_PLLI2SCFGR_PLLI2SP_Pos);
 80069ac:	4b4a      	ldr	r3, [pc, #296]	; (8006ad8 <HAL_RCCEx_PeriphCLKConfig+0x65c>)
 80069ae:	f8d3 3084 	ldr.w	r3, [r3, #132]	; 0x84
 80069b2:	0c1b      	lsrs	r3, r3, #16
 80069b4:	f003 0303 	and.w	r3, r3, #3
 80069b8:	613b      	str	r3, [r7, #16]
      tmpreg1 = ((RCC->PLLI2SCFGR & RCC_PLLI2SCFGR_PLLI2SR) >> RCC_PLLI2SCFGR_PLLI2SR_Pos);
 80069ba:	4b47      	ldr	r3, [pc, #284]	; (8006ad8 <HAL_RCCEx_PeriphCLKConfig+0x65c>)
 80069bc:	f8d3 3084 	ldr.w	r3, [r3, #132]	; 0x84
 80069c0:	0f1b      	lsrs	r3, r3, #28
 80069c2:	f003 0307 	and.w	r3, r3, #7
 80069c6:	60fb      	str	r3, [r7, #12]
      /* Configure the PLLI2S division factors */
      /* PLLI2S_VCO Input  = PLL_SOURCE/PLLM */
      /* PLLI2S_VCO Output = PLLI2S_VCO Input * PLLI2SN */
      /* SAI_CLK(first level) = PLLI2S_VCO Output/PLLI2SQ */
      __HAL_RCC_PLLI2S_CONFIG(PeriphClkInit->PLLI2S.PLLI2SN, tmpreg0, PeriphClkInit->PLLI2S.PLLI2SQ, tmpreg1);
 80069c8:	687b      	ldr	r3, [r7, #4]
 80069ca:	685b      	ldr	r3, [r3, #4]
 80069cc:	019a      	lsls	r2, r3, #6
 80069ce:	693b      	ldr	r3, [r7, #16]
 80069d0:	041b      	lsls	r3, r3, #16
 80069d2:	431a      	orrs	r2, r3
 80069d4:	687b      	ldr	r3, [r7, #4]
 80069d6:	68db      	ldr	r3, [r3, #12]
 80069d8:	061b      	lsls	r3, r3, #24
 80069da:	431a      	orrs	r2, r3
 80069dc:	68fb      	ldr	r3, [r7, #12]
 80069de:	071b      	lsls	r3, r3, #28
 80069e0:	493d      	ldr	r1, [pc, #244]	; (8006ad8 <HAL_RCCEx_PeriphCLKConfig+0x65c>)
 80069e2:	4313      	orrs	r3, r2
 80069e4:	f8c1 3084 	str.w	r3, [r1, #132]	; 0x84

      /* SAI_CLK_x = SAI_CLK(first level)/PLLI2SDIVQ */
      __HAL_RCC_PLLI2S_PLLSAICLKDIVQ_CONFIG(PeriphClkInit->PLLI2SDivQ);
 80069e8:	4b3b      	ldr	r3, [pc, #236]	; (8006ad8 <HAL_RCCEx_PeriphCLKConfig+0x65c>)
 80069ea:	f8d3 308c 	ldr.w	r3, [r3, #140]	; 0x8c
 80069ee:	f023 021f 	bic.w	r2, r3, #31
 80069f2:	687b      	ldr	r3, [r7, #4]
 80069f4:	6a5b      	ldr	r3, [r3, #36]	; 0x24
 80069f6:	3b01      	subs	r3, #1
 80069f8:	4937      	ldr	r1, [pc, #220]	; (8006ad8 <HAL_RCCEx_PeriphCLKConfig+0x65c>)
 80069fa:	4313      	orrs	r3, r2
 80069fc:	f8c1 308c 	str.w	r3, [r1, #140]	; 0x8c
    }

    /*----------------- In Case of PLLI2S is selected as source clock for SPDIF-RX -------------------*/
    if(((PeriphClkInit->PeriphClockSelection) & RCC_PERIPHCLK_SPDIFRX) == RCC_PERIPHCLK_SPDIFRX)
 8006a00:	687b      	ldr	r3, [r7, #4]
 8006a02:	681b      	ldr	r3, [r3, #0]
 8006a04:	f003 7380 	and.w	r3, r3, #16777216	; 0x1000000
 8006a08:	2b00      	cmp	r3, #0
 8006a0a:	d01d      	beq.n	8006a48 <HAL_RCCEx_PeriphCLKConfig+0x5cc>
    {
      /* check for Parameters */
      assert_param(IS_RCC_PLLI2SP_VALUE(PeriphClkInit->PLLI2S.PLLI2SP));

     /* Read PLLI2SR value from PLLI2SCFGR register (this value is not needed for SPDIF-RX configuration) */
      tmpreg0 = ((RCC->PLLI2SCFGR & RCC_PLLI2SCFGR_PLLI2SQ) >> RCC_PLLI2SCFGR_PLLI2SQ_Pos);
 8006a0c:	4b32      	ldr	r3, [pc, #200]	; (8006ad8 <HAL_RCCEx_PeriphCLKConfig+0x65c>)
 8006a0e:	f8d3 3084 	ldr.w	r3, [r3, #132]	; 0x84
 8006a12:	0e1b      	lsrs	r3, r3, #24
 8006a14:	f003 030f 	and.w	r3, r3, #15
 8006a18:	613b      	str	r3, [r7, #16]
      tmpreg1 = ((RCC->PLLI2SCFGR & RCC_PLLI2SCFGR_PLLI2SR) >> RCC_PLLI2SCFGR_PLLI2SR_Pos);
 8006a1a:	4b2f      	ldr	r3, [pc, #188]	; (8006ad8 <HAL_RCCEx_PeriphCLKConfig+0x65c>)
 8006a1c:	f8d3 3084 	ldr.w	r3, [r3, #132]	; 0x84
 8006a20:	0f1b      	lsrs	r3, r3, #28
 8006a22:	f003 0307 	and.w	r3, r3, #7
 8006a26:	60fb      	str	r3, [r7, #12]
      /* Configure the PLLI2S division factors */
      /* PLLI2S_VCO = f(VCO clock) = f(PLLI2S clock input) x (PLLI2SN/PLLM) */
      /* SPDIFCLK = f(PLLI2S clock output) = f(VCO clock) / PLLI2SP */
      __HAL_RCC_PLLI2S_CONFIG(PeriphClkInit->PLLI2S.PLLI2SN , PeriphClkInit->PLLI2S.PLLI2SP, tmpreg0, tmpreg1);
 8006a28:	687b      	ldr	r3, [r7, #4]
 8006a2a:	685b      	ldr	r3, [r3, #4]
 8006a2c:	019a      	lsls	r2, r3, #6
 8006a2e:	687b      	ldr	r3, [r7, #4]
 8006a30:	691b      	ldr	r3, [r3, #16]
 8006a32:	041b      	lsls	r3, r3, #16
 8006a34:	431a      	orrs	r2, r3
 8006a36:	693b      	ldr	r3, [r7, #16]
 8006a38:	061b      	lsls	r3, r3, #24
 8006a3a:	431a      	orrs	r2, r3
 8006a3c:	68fb      	ldr	r3, [r7, #12]
 8006a3e:	071b      	lsls	r3, r3, #28
 8006a40:	4925      	ldr	r1, [pc, #148]	; (8006ad8 <HAL_RCCEx_PeriphCLKConfig+0x65c>)
 8006a42:	4313      	orrs	r3, r2
 8006a44:	f8c1 3084 	str.w	r3, [r1, #132]	; 0x84
    }

    /*----------------- In Case of PLLI2S is just selected  -----------------*/
    if((PeriphClkInit->PeriphClockSelection & RCC_PERIPHCLK_PLLI2S) == RCC_PERIPHCLK_PLLI2S)
 8006a48:	687b      	ldr	r3, [r7, #4]
 8006a4a:	681b      	ldr	r3, [r3, #0]
 8006a4c:	f003 7300 	and.w	r3, r3, #33554432	; 0x2000000
 8006a50:	2b00      	cmp	r3, #0
 8006a52:	d011      	beq.n	8006a78 <HAL_RCCEx_PeriphCLKConfig+0x5fc>
      assert_param(IS_RCC_PLLI2SQ_VALUE(PeriphClkInit->PLLI2S.PLLI2SQ));

      /* Configure the PLLI2S division factors */
      /* PLLI2S_VCO = f(VCO clock) = f(PLLI2S clock input) x (PLLI2SN/PLLI2SM) */
      /* SPDIFRXCLK = f(PLLI2S clock output) = f(VCO clock) / PLLI2SP */
      __HAL_RCC_PLLI2S_CONFIG(PeriphClkInit->PLLI2S.PLLI2SN , PeriphClkInit->PLLI2S.PLLI2SP, PeriphClkInit->PLLI2S.PLLI2SQ, PeriphClkInit->PLLI2S.PLLI2SR);
 8006a54:	687b      	ldr	r3, [r7, #4]
 8006a56:	685b      	ldr	r3, [r3, #4]
 8006a58:	019a      	lsls	r2, r3, #6
 8006a5a:	687b      	ldr	r3, [r7, #4]
 8006a5c:	691b      	ldr	r3, [r3, #16]
 8006a5e:	041b      	lsls	r3, r3, #16
 8006a60:	431a      	orrs	r2, r3
 8006a62:	687b      	ldr	r3, [r7, #4]
 8006a64:	68db      	ldr	r3, [r3, #12]
 8006a66:	061b      	lsls	r3, r3, #24
 8006a68:	431a      	orrs	r2, r3
 8006a6a:	687b      	ldr	r3, [r7, #4]
 8006a6c:	689b      	ldr	r3, [r3, #8]
 8006a6e:	071b      	lsls	r3, r3, #28
 8006a70:	4919      	ldr	r1, [pc, #100]	; (8006ad8 <HAL_RCCEx_PeriphCLKConfig+0x65c>)
 8006a72:	4313      	orrs	r3, r2
 8006a74:	f8c1 3084 	str.w	r3, [r1, #132]	; 0x84
    }

    /* Enable the PLLI2S */
    __HAL_RCC_PLLI2S_ENABLE();
 8006a78:	4b17      	ldr	r3, [pc, #92]	; (8006ad8 <HAL_RCCEx_PeriphCLKConfig+0x65c>)
 8006a7a:	681b      	ldr	r3, [r3, #0]
 8006a7c:	4a16      	ldr	r2, [pc, #88]	; (8006ad8 <HAL_RCCEx_PeriphCLKConfig+0x65c>)
 8006a7e:	f043 6380 	orr.w	r3, r3, #67108864	; 0x4000000
 8006a82:	6013      	str	r3, [r2, #0]

    /* Get Start Tick*/
    tickstart = HAL_GetTick();
 8006a84:	f7fe f8ae 	bl	8004be4 <HAL_GetTick>
 8006a88:	6178      	str	r0, [r7, #20]

    /* Wait till PLLI2S is ready */
    while(__HAL_RCC_GET_FLAG(RCC_FLAG_PLLI2SRDY)  == RESET)
 8006a8a:	e008      	b.n	8006a9e <HAL_RCCEx_PeriphCLKConfig+0x622>
    {
      if((HAL_GetTick() - tickstart) > PLLI2S_TIMEOUT_VALUE)
 8006a8c:	f7fe f8aa 	bl	8004be4 <HAL_GetTick>
 8006a90:	4602      	mov	r2, r0
 8006a92:	697b      	ldr	r3, [r7, #20]
 8006a94:	1ad3      	subs	r3, r2, r3
 8006a96:	2b64      	cmp	r3, #100	; 0x64
 8006a98:	d901      	bls.n	8006a9e <HAL_RCCEx_PeriphCLKConfig+0x622>
      {
        /* return in case of Timeout detected */
        return HAL_TIMEOUT;
 8006a9a:	2303      	movs	r3, #3
 8006a9c:	e0d7      	b.n	8006c4e <HAL_RCCEx_PeriphCLKConfig+0x7d2>
    while(__HAL_RCC_GET_FLAG(RCC_FLAG_PLLI2SRDY)  == RESET)
 8006a9e:	4b0e      	ldr	r3, [pc, #56]	; (8006ad8 <HAL_RCCEx_PeriphCLKConfig+0x65c>)
 8006aa0:	681b      	ldr	r3, [r3, #0]
 8006aa2:	f003 6300 	and.w	r3, r3, #134217728	; 0x8000000
 8006aa6:	2b00      	cmp	r3, #0
 8006aa8:	d0f0      	beq.n	8006a8c <HAL_RCCEx_PeriphCLKConfig+0x610>
    }
  }

  /*-------------------------------------- PLLSAI Configuration ---------------------------------*/
  /* PLLSAI is configured when a peripheral will use it as source clock : SAI1, SAI2, LTDC or CK48 */
  if(pllsaiused == 1)
 8006aaa:	69bb      	ldr	r3, [r7, #24]
 8006aac:	2b01      	cmp	r3, #1
 8006aae:	f040 80cd 	bne.w	8006c4c <HAL_RCCEx_PeriphCLKConfig+0x7d0>
  {
    /* Disable PLLSAI Clock */
    __HAL_RCC_PLLSAI_DISABLE();
 8006ab2:	4b09      	ldr	r3, [pc, #36]	; (8006ad8 <HAL_RCCEx_PeriphCLKConfig+0x65c>)
 8006ab4:	681b      	ldr	r3, [r3, #0]
 8006ab6:	4a08      	ldr	r2, [pc, #32]	; (8006ad8 <HAL_RCCEx_PeriphCLKConfig+0x65c>)
 8006ab8:	f023 5380 	bic.w	r3, r3, #268435456	; 0x10000000
 8006abc:	6013      	str	r3, [r2, #0]

    /* Get Start Tick*/
    tickstart = HAL_GetTick();
 8006abe:	f7fe f891 	bl	8004be4 <HAL_GetTick>
 8006ac2:	6178      	str	r0, [r7, #20]

    /* Wait till PLLSAI is disabled */
    while(__HAL_RCC_PLLSAI_GET_FLAG() != RESET)
 8006ac4:	e00a      	b.n	8006adc <HAL_RCCEx_PeriphCLKConfig+0x660>
    {
      if((HAL_GetTick() - tickstart) > PLLSAI_TIMEOUT_VALUE)
 8006ac6:	f7fe f88d 	bl	8004be4 <HAL_GetTick>
 8006aca:	4602      	mov	r2, r0
 8006acc:	697b      	ldr	r3, [r7, #20]
 8006ace:	1ad3      	subs	r3, r2, r3
 8006ad0:	2b64      	cmp	r3, #100	; 0x64
 8006ad2:	d903      	bls.n	8006adc <HAL_RCCEx_PeriphCLKConfig+0x660>
      {
        /* return in case of Timeout detected */
        return HAL_TIMEOUT;
 8006ad4:	2303      	movs	r3, #3
 8006ad6:	e0ba      	b.n	8006c4e <HAL_RCCEx_PeriphCLKConfig+0x7d2>
 8006ad8:	40023800 	.word	0x40023800
    while(__HAL_RCC_PLLSAI_GET_FLAG() != RESET)
 8006adc:	4b5e      	ldr	r3, [pc, #376]	; (8006c58 <HAL_RCCEx_PeriphCLKConfig+0x7dc>)
 8006ade:	681b      	ldr	r3, [r3, #0]
 8006ae0:	f003 5300 	and.w	r3, r3, #536870912	; 0x20000000
 8006ae4:	f1b3 5f00 	cmp.w	r3, #536870912	; 0x20000000
 8006ae8:	d0ed      	beq.n	8006ac6 <HAL_RCCEx_PeriphCLKConfig+0x64a>

    /* Check the PLLSAI division factors */
    assert_param(IS_RCC_PLLSAIN_VALUE(PeriphClkInit->PLLSAI.PLLSAIN));

    /*----------------- In Case of PLLSAI is selected as source clock for SAI -------------------*/
    if(((((PeriphClkInit->PeriphClockSelection) & RCC_PERIPHCLK_SAI1) == RCC_PERIPHCLK_SAI1) && (PeriphClkInit->Sai1ClockSelection == RCC_SAI1CLKSOURCE_PLLSAI)) ||\
 8006aea:	687b      	ldr	r3, [r7, #4]
 8006aec:	681b      	ldr	r3, [r3, #0]
 8006aee:	f403 2300 	and.w	r3, r3, #524288	; 0x80000
 8006af2:	2b00      	cmp	r3, #0
 8006af4:	d003      	beq.n	8006afe <HAL_RCCEx_PeriphCLKConfig+0x682>
 8006af6:	687b      	ldr	r3, [r7, #4]
 8006af8:	6bdb      	ldr	r3, [r3, #60]	; 0x3c
 8006afa:	2b00      	cmp	r3, #0
 8006afc:	d009      	beq.n	8006b12 <HAL_RCCEx_PeriphCLKConfig+0x696>
       ((((PeriphClkInit->PeriphClockSelection) & RCC_PERIPHCLK_SAI2) == RCC_PERIPHCLK_SAI2) && (PeriphClkInit->Sai2ClockSelection == RCC_SAI2CLKSOURCE_PLLSAI)))
 8006afe:	687b      	ldr	r3, [r7, #4]
 8006b00:	681b      	ldr	r3, [r3, #0]
 8006b02:	f403 1380 	and.w	r3, r3, #1048576	; 0x100000
    if(((((PeriphClkInit->PeriphClockSelection) & RCC_PERIPHCLK_SAI1) == RCC_PERIPHCLK_SAI1) && (PeriphClkInit->Sai1ClockSelection == RCC_SAI1CLKSOURCE_PLLSAI)) ||\
 8006b06:	2b00      	cmp	r3, #0
 8006b08:	d02e      	beq.n	8006b68 <HAL_RCCEx_PeriphCLKConfig+0x6ec>
       ((((PeriphClkInit->PeriphClockSelection) & RCC_PERIPHCLK_SAI2) == RCC_PERIPHCLK_SAI2) && (PeriphClkInit->Sai2ClockSelection == RCC_SAI2CLKSOURCE_PLLSAI)))
 8006b0a:	687b      	ldr	r3, [r7, #4]
 8006b0c:	6c1b      	ldr	r3, [r3, #64]	; 0x40
 8006b0e:	2b00      	cmp	r3, #0
 8006b10:	d12a      	bne.n	8006b68 <HAL_RCCEx_PeriphCLKConfig+0x6ec>
      assert_param(IS_RCC_PLLSAIQ_VALUE(PeriphClkInit->PLLSAI.PLLSAIQ));
      /* check for PLLSAI/DIVQ Parameter */
      assert_param(IS_RCC_PLLSAI_DIVQ_VALUE(PeriphClkInit->PLLSAIDivQ));

      /* Read PLLSAIP value from PLLSAICFGR register (this value is not needed for SAI configuration) */
      tmpreg0 = ((RCC->PLLSAICFGR & RCC_PLLSAICFGR_PLLSAIP) >> RCC_PLLSAICFGR_PLLSAIP_Pos);
 8006b12:	4b51      	ldr	r3, [pc, #324]	; (8006c58 <HAL_RCCEx_PeriphCLKConfig+0x7dc>)
 8006b14:	f8d3 3088 	ldr.w	r3, [r3, #136]	; 0x88
 8006b18:	0c1b      	lsrs	r3, r3, #16
 8006b1a:	f003 0303 	and.w	r3, r3, #3
 8006b1e:	613b      	str	r3, [r7, #16]
      tmpreg1 = ((RCC->PLLSAICFGR & RCC_PLLI2SCFGR_PLLI2SR) >> RCC_PLLSAICFGR_PLLSAIR_Pos);
 8006b20:	4b4d      	ldr	r3, [pc, #308]	; (8006c58 <HAL_RCCEx_PeriphCLKConfig+0x7dc>)
 8006b22:	f8d3 3088 	ldr.w	r3, [r3, #136]	; 0x88
 8006b26:	0f1b      	lsrs	r3, r3, #28
 8006b28:	f003 0307 	and.w	r3, r3, #7
 8006b2c:	60fb      	str	r3, [r7, #12]
      /* PLLSAI_VCO Input  = PLL_SOURCE/PLLM */
      /* PLLSAI_VCO Output = PLLSAI_VCO Input * PLLSAIN */
      /* SAI_CLK(first level) = PLLSAI_VCO Output/PLLSAIQ */
      __HAL_RCC_PLLSAI_CONFIG(PeriphClkInit->PLLSAI.PLLSAIN , tmpreg0, PeriphClkInit->PLLSAI.PLLSAIQ, tmpreg1);
 8006b2e:	687b      	ldr	r3, [r7, #4]
 8006b30:	695b      	ldr	r3, [r3, #20]
 8006b32:	019a      	lsls	r2, r3, #6
 8006b34:	693b      	ldr	r3, [r7, #16]
 8006b36:	041b      	lsls	r3, r3, #16
 8006b38:	431a      	orrs	r2, r3
 8006b3a:	687b      	ldr	r3, [r7, #4]
 8006b3c:	699b      	ldr	r3, [r3, #24]
 8006b3e:	061b      	lsls	r3, r3, #24
 8006b40:	431a      	orrs	r2, r3
 8006b42:	68fb      	ldr	r3, [r7, #12]
 8006b44:	071b      	lsls	r3, r3, #28
 8006b46:	4944      	ldr	r1, [pc, #272]	; (8006c58 <HAL_RCCEx_PeriphCLKConfig+0x7dc>)
 8006b48:	4313      	orrs	r3, r2
 8006b4a:	f8c1 3088 	str.w	r3, [r1, #136]	; 0x88

      /* SAI_CLK_x = SAI_CLK(first level)/PLLSAIDIVQ */
      __HAL_RCC_PLLSAI_PLLSAICLKDIVQ_CONFIG(PeriphClkInit->PLLSAIDivQ);
 8006b4e:	4b42      	ldr	r3, [pc, #264]	; (8006c58 <HAL_RCCEx_PeriphCLKConfig+0x7dc>)
 8006b50:	f8d3 308c 	ldr.w	r3, [r3, #140]	; 0x8c
 8006b54:	f423 52f8 	bic.w	r2, r3, #7936	; 0x1f00
 8006b58:	687b      	ldr	r3, [r7, #4]
 8006b5a:	6a9b      	ldr	r3, [r3, #40]	; 0x28
 8006b5c:	3b01      	subs	r3, #1
 8006b5e:	021b      	lsls	r3, r3, #8
 8006b60:	493d      	ldr	r1, [pc, #244]	; (8006c58 <HAL_RCCEx_PeriphCLKConfig+0x7dc>)
 8006b62:	4313      	orrs	r3, r2
 8006b64:	f8c1 308c 	str.w	r3, [r1, #140]	; 0x8c
    }

    /*----------------- In Case of PLLSAI is selected as source clock for CLK48 -------------------*/
    /* In Case of PLLI2S is selected as source clock for CK48 */
    if((((PeriphClkInit->PeriphClockSelection) & RCC_PERIPHCLK_CLK48) == RCC_PERIPHCLK_CLK48) && (PeriphClkInit->Clk48ClockSelection == RCC_CLK48SOURCE_PLLSAIP))
 8006b68:	687b      	ldr	r3, [r7, #4]
 8006b6a:	681b      	ldr	r3, [r3, #0]
 8006b6c:	f403 1300 	and.w	r3, r3, #2097152	; 0x200000
 8006b70:	2b00      	cmp	r3, #0
 8006b72:	d022      	beq.n	8006bba <HAL_RCCEx_PeriphCLKConfig+0x73e>
 8006b74:	687b      	ldr	r3, [r7, #4]
 8006b76:	6fdb      	ldr	r3, [r3, #124]	; 0x7c
 8006b78:	f1b3 6f00 	cmp.w	r3, #134217728	; 0x8000000
 8006b7c:	d11d      	bne.n	8006bba <HAL_RCCEx_PeriphCLKConfig+0x73e>
    {
      /* check for Parameters */
      assert_param(IS_RCC_PLLSAIP_VALUE(PeriphClkInit->PLLSAI.PLLSAIP));
      /* Read PLLSAIQ and PLLSAIR value from PLLSAICFGR register (this value is not needed for CK48 configuration) */
      tmpreg0 = ((RCC->PLLSAICFGR & RCC_PLLSAICFGR_PLLSAIQ) >> RCC_PLLSAICFGR_PLLSAIQ_Pos);
 8006b7e:	4b36      	ldr	r3, [pc, #216]	; (8006c58 <HAL_RCCEx_PeriphCLKConfig+0x7dc>)
 8006b80:	f8d3 3088 	ldr.w	r3, [r3, #136]	; 0x88
 8006b84:	0e1b      	lsrs	r3, r3, #24
 8006b86:	f003 030f 	and.w	r3, r3, #15
 8006b8a:	613b      	str	r3, [r7, #16]
      tmpreg1 = ((RCC->PLLSAICFGR & RCC_PLLSAICFGR_PLLSAIR) >> RCC_PLLSAICFGR_PLLSAIR_Pos);
 8006b8c:	4b32      	ldr	r3, [pc, #200]	; (8006c58 <HAL_RCCEx_PeriphCLKConfig+0x7dc>)
 8006b8e:	f8d3 3088 	ldr.w	r3, [r3, #136]	; 0x88
 8006b92:	0f1b      	lsrs	r3, r3, #28
 8006b94:	f003 0307 	and.w	r3, r3, #7
 8006b98:	60fb      	str	r3, [r7, #12]

      /* Configure the PLLSAI division factors */
      /* PLLSAI_VCO = f(VCO clock) = f(PLLSAI clock input) x (PLLI2SN/PLLM) */
      /* 48CLK = f(PLLSAI clock output) = f(VCO clock) / PLLSAIP */
      __HAL_RCC_PLLSAI_CONFIG(PeriphClkInit->PLLSAI.PLLSAIN , PeriphClkInit->PLLSAI.PLLSAIP, tmpreg0, tmpreg1);
 8006b9a:	687b      	ldr	r3, [r7, #4]
 8006b9c:	695b      	ldr	r3, [r3, #20]
 8006b9e:	019a      	lsls	r2, r3, #6
 8006ba0:	687b      	ldr	r3, [r7, #4]
 8006ba2:	6a1b      	ldr	r3, [r3, #32]
 8006ba4:	041b      	lsls	r3, r3, #16
 8006ba6:	431a      	orrs	r2, r3
 8006ba8:	693b      	ldr	r3, [r7, #16]
 8006baa:	061b      	lsls	r3, r3, #24
 8006bac:	431a      	orrs	r2, r3
 8006bae:	68fb      	ldr	r3, [r7, #12]
 8006bb0:	071b      	lsls	r3, r3, #28
 8006bb2:	4929      	ldr	r1, [pc, #164]	; (8006c58 <HAL_RCCEx_PeriphCLKConfig+0x7dc>)
 8006bb4:	4313      	orrs	r3, r2
 8006bb6:	f8c1 3088 	str.w	r3, [r1, #136]	; 0x88
    }

#if defined(STM32F746xx) || defined(STM32F756xx) || defined (STM32F767xx) || defined (STM32F769xx) || defined (STM32F777xx) || defined (STM32F779xx) || defined (STM32F750xx)
    /*---------------------------- LTDC configuration -------------------------------*/
    if(((PeriphClkInit->PeriphClockSelection) & RCC_PERIPHCLK_LTDC) == (RCC_PERIPHCLK_LTDC))
 8006bba:	687b      	ldr	r3, [r7, #4]
 8006bbc:	681b      	ldr	r3, [r3, #0]
 8006bbe:	f003 0308 	and.w	r3, r3, #8
 8006bc2:	2b00      	cmp	r3, #0
 8006bc4:	d028      	beq.n	8006c18 <HAL_RCCEx_PeriphCLKConfig+0x79c>
    {
      assert_param(IS_RCC_PLLSAIR_VALUE(PeriphClkInit->PLLSAI.PLLSAIR));
      assert_param(IS_RCC_PLLSAI_DIVR_VALUE(PeriphClkInit->PLLSAIDivR));

      /* Read PLLSAIP and PLLSAIQ value from PLLSAICFGR register (these value are not needed for LTDC configuration) */
      tmpreg0 = ((RCC->PLLSAICFGR & RCC_PLLSAICFGR_PLLSAIQ) >> RCC_PLLSAICFGR_PLLSAIQ_Pos);
 8006bc6:	4b24      	ldr	r3, [pc, #144]	; (8006c58 <HAL_RCCEx_PeriphCLKConfig+0x7dc>)
 8006bc8:	f8d3 3088 	ldr.w	r3, [r3, #136]	; 0x88
 8006bcc:	0e1b      	lsrs	r3, r3, #24
 8006bce:	f003 030f 	and.w	r3, r3, #15
 8006bd2:	613b      	str	r3, [r7, #16]
      tmpreg1 = ((RCC->PLLSAICFGR & RCC_PLLSAICFGR_PLLSAIP) >> RCC_PLLSAICFGR_PLLSAIP_Pos);
 8006bd4:	4b20      	ldr	r3, [pc, #128]	; (8006c58 <HAL_RCCEx_PeriphCLKConfig+0x7dc>)
 8006bd6:	f8d3 3088 	ldr.w	r3, [r3, #136]	; 0x88
 8006bda:	0c1b      	lsrs	r3, r3, #16
 8006bdc:	f003 0303 	and.w	r3, r3, #3
 8006be0:	60fb      	str	r3, [r7, #12]

      /* PLLSAI_VCO Input  = PLL_SOURCE/PLLM */
      /* PLLSAI_VCO Output = PLLSAI_VCO Input * PLLSAIN */
      /* LTDC_CLK(first level) = PLLSAI_VCO Output/PLLSAIR */
      __HAL_RCC_PLLSAI_CONFIG(PeriphClkInit->PLLSAI.PLLSAIN , tmpreg1, tmpreg0, PeriphClkInit->PLLSAI.PLLSAIR);
 8006be2:	687b      	ldr	r3, [r7, #4]
 8006be4:	695b      	ldr	r3, [r3, #20]
 8006be6:	019a      	lsls	r2, r3, #6
 8006be8:	68fb      	ldr	r3, [r7, #12]
 8006bea:	041b      	lsls	r3, r3, #16
 8006bec:	431a      	orrs	r2, r3
 8006bee:	693b      	ldr	r3, [r7, #16]
 8006bf0:	061b      	lsls	r3, r3, #24
 8006bf2:	431a      	orrs	r2, r3
 8006bf4:	687b      	ldr	r3, [r7, #4]
 8006bf6:	69db      	ldr	r3, [r3, #28]
 8006bf8:	071b      	lsls	r3, r3, #28
 8006bfa:	4917      	ldr	r1, [pc, #92]	; (8006c58 <HAL_RCCEx_PeriphCLKConfig+0x7dc>)
 8006bfc:	4313      	orrs	r3, r2
 8006bfe:	f8c1 3088 	str.w	r3, [r1, #136]	; 0x88

      /* LTDC_CLK = LTDC_CLK(first level)/PLLSAIDIVR */
      __HAL_RCC_PLLSAI_PLLSAICLKDIVR_CONFIG(PeriphClkInit->PLLSAIDivR);
 8006c02:	4b15      	ldr	r3, [pc, #84]	; (8006c58 <HAL_RCCEx_PeriphCLKConfig+0x7dc>)
 8006c04:	f8d3 308c 	ldr.w	r3, [r3, #140]	; 0x8c
 8006c08:	f423 3240 	bic.w	r2, r3, #196608	; 0x30000
 8006c0c:	687b      	ldr	r3, [r7, #4]
 8006c0e:	6adb      	ldr	r3, [r3, #44]	; 0x2c
 8006c10:	4911      	ldr	r1, [pc, #68]	; (8006c58 <HAL_RCCEx_PeriphCLKConfig+0x7dc>)
 8006c12:	4313      	orrs	r3, r2
 8006c14:	f8c1 308c 	str.w	r3, [r1, #140]	; 0x8c
    }
#endif /* STM32F746xx || STM32F756xx || STM32F767xx || STM32F769xx || STM32F777xx || STM32F779xx || STM32F750xx  */

    /* Enable PLLSAI Clock */
    __HAL_RCC_PLLSAI_ENABLE();
 8006c18:	4b0f      	ldr	r3, [pc, #60]	; (8006c58 <HAL_RCCEx_PeriphCLKConfig+0x7dc>)
 8006c1a:	681b      	ldr	r3, [r3, #0]
 8006c1c:	4a0e      	ldr	r2, [pc, #56]	; (8006c58 <HAL_RCCEx_PeriphCLKConfig+0x7dc>)
 8006c1e:	f043 5380 	orr.w	r3, r3, #268435456	; 0x10000000
 8006c22:	6013      	str	r3, [r2, #0]

    /* Get Start Tick*/
    tickstart = HAL_GetTick();
 8006c24:	f7fd ffde 	bl	8004be4 <HAL_GetTick>
 8006c28:	6178      	str	r0, [r7, #20]

    /* Wait till PLLSAI is ready */
    while(__HAL_RCC_PLLSAI_GET_FLAG() == RESET)
 8006c2a:	e008      	b.n	8006c3e <HAL_RCCEx_PeriphCLKConfig+0x7c2>
    {
      if((HAL_GetTick() - tickstart) > PLLSAI_TIMEOUT_VALUE)
 8006c2c:	f7fd ffda 	bl	8004be4 <HAL_GetTick>
 8006c30:	4602      	mov	r2, r0
 8006c32:	697b      	ldr	r3, [r7, #20]
 8006c34:	1ad3      	subs	r3, r2, r3
 8006c36:	2b64      	cmp	r3, #100	; 0x64
 8006c38:	d901      	bls.n	8006c3e <HAL_RCCEx_PeriphCLKConfig+0x7c2>
      {
        /* return in case of Timeout detected */
        return HAL_TIMEOUT;
 8006c3a:	2303      	movs	r3, #3
 8006c3c:	e007      	b.n	8006c4e <HAL_RCCEx_PeriphCLKConfig+0x7d2>
    while(__HAL_RCC_PLLSAI_GET_FLAG() == RESET)
 8006c3e:	4b06      	ldr	r3, [pc, #24]	; (8006c58 <HAL_RCCEx_PeriphCLKConfig+0x7dc>)
 8006c40:	681b      	ldr	r3, [r3, #0]
 8006c42:	f003 5300 	and.w	r3, r3, #536870912	; 0x20000000
 8006c46:	f1b3 5f00 	cmp.w	r3, #536870912	; 0x20000000
 8006c4a:	d1ef      	bne.n	8006c2c <HAL_RCCEx_PeriphCLKConfig+0x7b0>
      }
    }
  }
  return HAL_OK;
 8006c4c:	2300      	movs	r3, #0
}
 8006c4e:	4618      	mov	r0, r3
 8006c50:	3720      	adds	r7, #32
 8006c52:	46bd      	mov	sp, r7
 8006c54:	bd80      	pop	{r7, pc}
 8006c56:	bf00      	nop
 8006c58:	40023800 	.word	0x40023800

08006c5c <HAL_SPI_Init>:
  * @param  hspi pointer to a SPI_HandleTypeDef structure that contains
  *               the configuration information for SPI module.
  * @retval HAL status
  */
HAL_StatusTypeDef HAL_SPI_Init(SPI_HandleTypeDef *hspi)
{
 8006c5c:	b580      	push	{r7, lr}
 8006c5e:	b084      	sub	sp, #16
 8006c60:	af00      	add	r7, sp, #0
 8006c62:	6078      	str	r0, [r7, #4]
  uint32_t frxth;

  /* Check the SPI handle allocation */
  if (hspi == NULL)
 8006c64:	687b      	ldr	r3, [r7, #4]
 8006c66:	2b00      	cmp	r3, #0
 8006c68:	d101      	bne.n	8006c6e <HAL_SPI_Init+0x12>
  {
    return HAL_ERROR;
 8006c6a:	2301      	movs	r3, #1
 8006c6c:	e09d      	b.n	8006daa <HAL_SPI_Init+0x14e>
  assert_param(IS_SPI_NSS(hspi->Init.NSS));
  assert_param(IS_SPI_NSSP(hspi->Init.NSSPMode));
  assert_param(IS_SPI_BAUDRATE_PRESCALER(hspi->Init.BaudRatePrescaler));
  assert_param(IS_SPI_FIRST_BIT(hspi->Init.FirstBit));
  assert_param(IS_SPI_TIMODE(hspi->Init.TIMode));
  if (hspi->Init.TIMode == SPI_TIMODE_DISABLE)
 8006c6e:	687b      	ldr	r3, [r7, #4]
 8006c70:	6a5b      	ldr	r3, [r3, #36]	; 0x24
 8006c72:	2b00      	cmp	r3, #0
 8006c74:	d108      	bne.n	8006c88 <HAL_SPI_Init+0x2c>
  {
    assert_param(IS_SPI_CPOL(hspi->Init.CLKPolarity));
    assert_param(IS_SPI_CPHA(hspi->Init.CLKPhase));

    if (hspi->Init.Mode == SPI_MODE_MASTER)
 8006c76:	687b      	ldr	r3, [r7, #4]
 8006c78:	685b      	ldr	r3, [r3, #4]
 8006c7a:	f5b3 7f82 	cmp.w	r3, #260	; 0x104
 8006c7e:	d009      	beq.n	8006c94 <HAL_SPI_Init+0x38>
      assert_param(IS_SPI_BAUDRATE_PRESCALER(hspi->Init.BaudRatePrescaler));
    }
    else
    {
      /* Baudrate prescaler not use in Motoraola Slave mode. force to default value */
      hspi->Init.BaudRatePrescaler = SPI_BAUDRATEPRESCALER_2;
 8006c80:	687b      	ldr	r3, [r7, #4]
 8006c82:	2200      	movs	r2, #0
 8006c84:	61da      	str	r2, [r3, #28]
 8006c86:	e005      	b.n	8006c94 <HAL_SPI_Init+0x38>
  else
  {
    assert_param(IS_SPI_BAUDRATE_PRESCALER(hspi->Init.BaudRatePrescaler));

    /* Force polarity and phase to TI protocaol requirements */
    hspi->Init.CLKPolarity = SPI_POLARITY_LOW;
 8006c88:	687b      	ldr	r3, [r7, #4]
 8006c8a:	2200      	movs	r2, #0
 8006c8c:	611a      	str	r2, [r3, #16]
    hspi->Init.CLKPhase    = SPI_PHASE_1EDGE;
 8006c8e:	687b      	ldr	r3, [r7, #4]
 8006c90:	2200      	movs	r2, #0
 8006c92:	615a      	str	r2, [r3, #20]
  {
    assert_param(IS_SPI_CRC_POLYNOMIAL(hspi->Init.CRCPolynomial));
    assert_param(IS_SPI_CRC_LENGTH(hspi->Init.CRCLength));
  }
#else
  hspi->Init.CRCCalculation = SPI_CRCCALCULATION_DISABLE;
 8006c94:	687b      	ldr	r3, [r7, #4]
 8006c96:	2200      	movs	r2, #0
 8006c98:	629a      	str	r2, [r3, #40]	; 0x28
#endif /* USE_SPI_CRC */

  if (hspi->State == HAL_SPI_STATE_RESET)
 8006c9a:	687b      	ldr	r3, [r7, #4]
 8006c9c:	f893 305d 	ldrb.w	r3, [r3, #93]	; 0x5d
 8006ca0:	b2db      	uxtb	r3, r3
 8006ca2:	2b00      	cmp	r3, #0
 8006ca4:	d106      	bne.n	8006cb4 <HAL_SPI_Init+0x58>
  {
    /* Allocate lock resource and initialize it */
    hspi->Lock = HAL_UNLOCKED;
 8006ca6:	687b      	ldr	r3, [r7, #4]
 8006ca8:	2200      	movs	r2, #0
 8006caa:	f883 205c 	strb.w	r2, [r3, #92]	; 0x5c

    /* Init the low level hardware : GPIO, CLOCK, NVIC... */
    hspi->MspInitCallback(hspi);
#else
    /* Init the low level hardware : GPIO, CLOCK, NVIC... */
    HAL_SPI_MspInit(hspi);
 8006cae:	6878      	ldr	r0, [r7, #4]
 8006cb0:	f7fd fa30 	bl	8004114 <HAL_SPI_MspInit>
#endif /* USE_HAL_SPI_REGISTER_CALLBACKS */
  }

  hspi->State = HAL_SPI_STATE_BUSY;
 8006cb4:	687b      	ldr	r3, [r7, #4]
 8006cb6:	2202      	movs	r2, #2
 8006cb8:	f883 205d 	strb.w	r2, [r3, #93]	; 0x5d

  /* Disable the selected SPI peripheral */
  __HAL_SPI_DISABLE(hspi);
 8006cbc:	687b      	ldr	r3, [r7, #4]
 8006cbe:	681b      	ldr	r3, [r3, #0]
 8006cc0:	681a      	ldr	r2, [r3, #0]
 8006cc2:	687b      	ldr	r3, [r7, #4]
 8006cc4:	681b      	ldr	r3, [r3, #0]
 8006cc6:	f022 0240 	bic.w	r2, r2, #64	; 0x40
 8006cca:	601a      	str	r2, [r3, #0]

  /* Align by default the rs fifo threshold on the data size */
  if (hspi->Init.DataSize > SPI_DATASIZE_8BIT)
 8006ccc:	687b      	ldr	r3, [r7, #4]
 8006cce:	68db      	ldr	r3, [r3, #12]
 8006cd0:	f5b3 6fe0 	cmp.w	r3, #1792	; 0x700
 8006cd4:	d902      	bls.n	8006cdc <HAL_SPI_Init+0x80>
  {
    frxth = SPI_RXFIFO_THRESHOLD_HF;
 8006cd6:	2300      	movs	r3, #0
 8006cd8:	60fb      	str	r3, [r7, #12]
 8006cda:	e002      	b.n	8006ce2 <HAL_SPI_Init+0x86>
  }
  else
  {
    frxth = SPI_RXFIFO_THRESHOLD_QF;
 8006cdc:	f44f 5380 	mov.w	r3, #4096	; 0x1000
 8006ce0:	60fb      	str	r3, [r7, #12]
  }

  /* CRC calculation is valid only for 16Bit and 8 Bit */
  if ((hspi->Init.DataSize != SPI_DATASIZE_16BIT) && (hspi->Init.DataSize != SPI_DATASIZE_8BIT))
 8006ce2:	687b      	ldr	r3, [r7, #4]
 8006ce4:	68db      	ldr	r3, [r3, #12]
 8006ce6:	f5b3 6f70 	cmp.w	r3, #3840	; 0xf00
 8006cea:	d007      	beq.n	8006cfc <HAL_SPI_Init+0xa0>
 8006cec:	687b      	ldr	r3, [r7, #4]
 8006cee:	68db      	ldr	r3, [r3, #12]
 8006cf0:	f5b3 6fe0 	cmp.w	r3, #1792	; 0x700
 8006cf4:	d002      	beq.n	8006cfc <HAL_SPI_Init+0xa0>
  {
    /* CRC must be disabled */
    hspi->Init.CRCCalculation = SPI_CRCCALCULATION_DISABLE;
 8006cf6:	687b      	ldr	r3, [r7, #4]
 8006cf8:	2200      	movs	r2, #0
 8006cfa:	629a      	str	r2, [r3, #40]	; 0x28
  }

  /*----------------------- SPIx CR1 & CR2 Configuration ---------------------*/
  /* Configure : SPI Mode, Communication Mode, Clock polarity and phase, NSS management,
  Communication speed, First bit and CRC calculation state */
  WRITE_REG(hspi->Instance->CR1, ((hspi->Init.Mode & (SPI_CR1_MSTR | SPI_CR1_SSI)) |
 8006cfc:	687b      	ldr	r3, [r7, #4]
 8006cfe:	685b      	ldr	r3, [r3, #4]
 8006d00:	f403 7282 	and.w	r2, r3, #260	; 0x104
 8006d04:	687b      	ldr	r3, [r7, #4]
 8006d06:	689b      	ldr	r3, [r3, #8]
 8006d08:	f403 4304 	and.w	r3, r3, #33792	; 0x8400
 8006d0c:	431a      	orrs	r2, r3
 8006d0e:	687b      	ldr	r3, [r7, #4]
 8006d10:	691b      	ldr	r3, [r3, #16]
 8006d12:	f003 0302 	and.w	r3, r3, #2
 8006d16:	431a      	orrs	r2, r3
 8006d18:	687b      	ldr	r3, [r7, #4]
 8006d1a:	695b      	ldr	r3, [r3, #20]
 8006d1c:	f003 0301 	and.w	r3, r3, #1
 8006d20:	431a      	orrs	r2, r3
 8006d22:	687b      	ldr	r3, [r7, #4]
 8006d24:	699b      	ldr	r3, [r3, #24]
 8006d26:	f403 7300 	and.w	r3, r3, #512	; 0x200
 8006d2a:	431a      	orrs	r2, r3
 8006d2c:	687b      	ldr	r3, [r7, #4]
 8006d2e:	69db      	ldr	r3, [r3, #28]
 8006d30:	f003 0338 	and.w	r3, r3, #56	; 0x38
 8006d34:	431a      	orrs	r2, r3
 8006d36:	687b      	ldr	r3, [r7, #4]
 8006d38:	6a1b      	ldr	r3, [r3, #32]
 8006d3a:	f003 0380 	and.w	r3, r3, #128	; 0x80
 8006d3e:	ea42 0103 	orr.w	r1, r2, r3
 8006d42:	687b      	ldr	r3, [r7, #4]
 8006d44:	6a9b      	ldr	r3, [r3, #40]	; 0x28
 8006d46:	f403 5200 	and.w	r2, r3, #8192	; 0x2000
 8006d4a:	687b      	ldr	r3, [r7, #4]
 8006d4c:	681b      	ldr	r3, [r3, #0]
 8006d4e:	430a      	orrs	r2, r1
 8006d50:	601a      	str	r2, [r3, #0]
    }
  }
#endif /* USE_SPI_CRC */

  /* Configure : NSS management, TI Mode, NSS Pulse, Data size and Rx Fifo threshold */
  WRITE_REG(hspi->Instance->CR2, (((hspi->Init.NSS >> 16U) & SPI_CR2_SSOE) |
 8006d52:	687b      	ldr	r3, [r7, #4]
 8006d54:	699b      	ldr	r3, [r3, #24]
 8006d56:	0c1b      	lsrs	r3, r3, #16
 8006d58:	f003 0204 	and.w	r2, r3, #4
 8006d5c:	687b      	ldr	r3, [r7, #4]
 8006d5e:	6a5b      	ldr	r3, [r3, #36]	; 0x24
 8006d60:	f003 0310 	and.w	r3, r3, #16
 8006d64:	431a      	orrs	r2, r3
 8006d66:	687b      	ldr	r3, [r7, #4]
 8006d68:	6b5b      	ldr	r3, [r3, #52]	; 0x34
 8006d6a:	f003 0308 	and.w	r3, r3, #8
 8006d6e:	431a      	orrs	r2, r3
 8006d70:	687b      	ldr	r3, [r7, #4]
 8006d72:	68db      	ldr	r3, [r3, #12]
 8006d74:	f403 6370 	and.w	r3, r3, #3840	; 0xf00
 8006d78:	ea42 0103 	orr.w	r1, r2, r3
 8006d7c:	68fb      	ldr	r3, [r7, #12]
 8006d7e:	f403 5280 	and.w	r2, r3, #4096	; 0x1000
 8006d82:	687b      	ldr	r3, [r7, #4]
 8006d84:	681b      	ldr	r3, [r3, #0]
 8006d86:	430a      	orrs	r2, r1
 8006d88:	605a      	str	r2, [r3, #4]
  }
#endif /* USE_SPI_CRC */

#if defined(SPI_I2SCFGR_I2SMOD)
  /* Activate the SPI mode (Make sure that I2SMOD bit in I2SCFGR register is reset) */
  CLEAR_BIT(hspi->Instance->I2SCFGR, SPI_I2SCFGR_I2SMOD);
 8006d8a:	687b      	ldr	r3, [r7, #4]
 8006d8c:	681b      	ldr	r3, [r3, #0]
 8006d8e:	69da      	ldr	r2, [r3, #28]
 8006d90:	687b      	ldr	r3, [r7, #4]
 8006d92:	681b      	ldr	r3, [r3, #0]
 8006d94:	f422 6200 	bic.w	r2, r2, #2048	; 0x800
 8006d98:	61da      	str	r2, [r3, #28]
#endif /* SPI_I2SCFGR_I2SMOD */

  hspi->ErrorCode = HAL_SPI_ERROR_NONE;
 8006d9a:	687b      	ldr	r3, [r7, #4]
 8006d9c:	2200      	movs	r2, #0
 8006d9e:	661a      	str	r2, [r3, #96]	; 0x60
  hspi->State     = HAL_SPI_STATE_READY;
 8006da0:	687b      	ldr	r3, [r7, #4]
 8006da2:	2201      	movs	r2, #1
 8006da4:	f883 205d 	strb.w	r2, [r3, #93]	; 0x5d

  return HAL_OK;
 8006da8:	2300      	movs	r3, #0
}
 8006daa:	4618      	mov	r0, r3
 8006dac:	3710      	adds	r7, #16
 8006dae:	46bd      	mov	sp, r7
 8006db0:	bd80      	pop	{r7, pc}

08006db2 <HAL_SPI_TransmitReceive>:
  * @param  Timeout Timeout duration
  * @retval HAL status
  */
HAL_StatusTypeDef HAL_SPI_TransmitReceive(SPI_HandleTypeDef *hspi, uint8_t *pTxData, uint8_t *pRxData, uint16_t Size,
                                          uint32_t Timeout)
{
 8006db2:	b580      	push	{r7, lr}
 8006db4:	b08a      	sub	sp, #40	; 0x28
 8006db6:	af00      	add	r7, sp, #0
 8006db8:	60f8      	str	r0, [r7, #12]
 8006dba:	60b9      	str	r1, [r7, #8]
 8006dbc:	607a      	str	r2, [r7, #4]
 8006dbe:	807b      	strh	r3, [r7, #2]
  __IO uint8_t  *ptmpreg8;
  __IO uint8_t  tmpreg8 = 0;
#endif /* USE_SPI_CRC */

  /* Variable used to alternate Rx and Tx during transfer */
  uint32_t             txallowed = 1U;
 8006dc0:	2301      	movs	r3, #1
 8006dc2:	627b      	str	r3, [r7, #36]	; 0x24
  HAL_StatusTypeDef    errorcode = HAL_OK;
 8006dc4:	2300      	movs	r3, #0
 8006dc6:	f887 3023 	strb.w	r3, [r7, #35]	; 0x23

  /* Check Direction parameter */
  assert_param(IS_SPI_DIRECTION_2LINES(hspi->Init.Direction));

  /* Process Locked */
  __HAL_LOCK(hspi);
 8006dca:	68fb      	ldr	r3, [r7, #12]
 8006dcc:	f893 305c 	ldrb.w	r3, [r3, #92]	; 0x5c
 8006dd0:	2b01      	cmp	r3, #1
 8006dd2:	d101      	bne.n	8006dd8 <HAL_SPI_TransmitReceive+0x26>
 8006dd4:	2302      	movs	r3, #2
 8006dd6:	e1fb      	b.n	80071d0 <HAL_SPI_TransmitReceive+0x41e>
 8006dd8:	68fb      	ldr	r3, [r7, #12]
 8006dda:	2201      	movs	r2, #1
 8006ddc:	f883 205c 	strb.w	r2, [r3, #92]	; 0x5c

  /* Init tickstart for timeout management*/
  tickstart = HAL_GetTick();
 8006de0:	f7fd ff00 	bl	8004be4 <HAL_GetTick>
 8006de4:	61f8      	str	r0, [r7, #28]

  /* Init temporary variables */
  tmp_state           = hspi->State;
 8006de6:	68fb      	ldr	r3, [r7, #12]
 8006de8:	f893 305d 	ldrb.w	r3, [r3, #93]	; 0x5d
 8006dec:	76fb      	strb	r3, [r7, #27]
  tmp_mode            = hspi->Init.Mode;
 8006dee:	68fb      	ldr	r3, [r7, #12]
 8006df0:	685b      	ldr	r3, [r3, #4]
 8006df2:	617b      	str	r3, [r7, #20]
  initial_TxXferCount = Size;
 8006df4:	887b      	ldrh	r3, [r7, #2]
 8006df6:	827b      	strh	r3, [r7, #18]
  initial_RxXferCount = Size;
 8006df8:	887b      	ldrh	r3, [r7, #2]
 8006dfa:	823b      	strh	r3, [r7, #16]
#if (USE_SPI_CRC != 0U)
  spi_cr1             = READ_REG(hspi->Instance->CR1);
  spi_cr2             = READ_REG(hspi->Instance->CR2);
#endif /* USE_SPI_CRC */

  if (!((tmp_state == HAL_SPI_STATE_READY) || \
 8006dfc:	7efb      	ldrb	r3, [r7, #27]
 8006dfe:	2b01      	cmp	r3, #1
 8006e00:	d00e      	beq.n	8006e20 <HAL_SPI_TransmitReceive+0x6e>
 8006e02:	697b      	ldr	r3, [r7, #20]
 8006e04:	f5b3 7f82 	cmp.w	r3, #260	; 0x104
 8006e08:	d106      	bne.n	8006e18 <HAL_SPI_TransmitReceive+0x66>
        ((tmp_mode == SPI_MODE_MASTER) && (hspi->Init.Direction == SPI_DIRECTION_2LINES) && (tmp_state == HAL_SPI_STATE_BUSY_RX))))
 8006e0a:	68fb      	ldr	r3, [r7, #12]
 8006e0c:	689b      	ldr	r3, [r3, #8]
 8006e0e:	2b00      	cmp	r3, #0
 8006e10:	d102      	bne.n	8006e18 <HAL_SPI_TransmitReceive+0x66>
 8006e12:	7efb      	ldrb	r3, [r7, #27]
 8006e14:	2b04      	cmp	r3, #4
 8006e16:	d003      	beq.n	8006e20 <HAL_SPI_TransmitReceive+0x6e>
  {
    errorcode = HAL_BUSY;
 8006e18:	2302      	movs	r3, #2
 8006e1a:	f887 3023 	strb.w	r3, [r7, #35]	; 0x23
    goto error;
 8006e1e:	e1cd      	b.n	80071bc <HAL_SPI_TransmitReceive+0x40a>
  }

  if ((pTxData == NULL) || (pRxData == NULL) || (Size == 0U))
 8006e20:	68bb      	ldr	r3, [r7, #8]
 8006e22:	2b00      	cmp	r3, #0
 8006e24:	d005      	beq.n	8006e32 <HAL_SPI_TransmitReceive+0x80>
 8006e26:	687b      	ldr	r3, [r7, #4]
 8006e28:	2b00      	cmp	r3, #0
 8006e2a:	d002      	beq.n	8006e32 <HAL_SPI_TransmitReceive+0x80>
 8006e2c:	887b      	ldrh	r3, [r7, #2]
 8006e2e:	2b00      	cmp	r3, #0
 8006e30:	d103      	bne.n	8006e3a <HAL_SPI_TransmitReceive+0x88>
  {
    errorcode = HAL_ERROR;
 8006e32:	2301      	movs	r3, #1
 8006e34:	f887 3023 	strb.w	r3, [r7, #35]	; 0x23
    goto error;
 8006e38:	e1c0      	b.n	80071bc <HAL_SPI_TransmitReceive+0x40a>
  }

  /* Don't overwrite in case of HAL_SPI_STATE_BUSY_RX */
  if (hspi->State != HAL_SPI_STATE_BUSY_RX)
 8006e3a:	68fb      	ldr	r3, [r7, #12]
 8006e3c:	f893 305d 	ldrb.w	r3, [r3, #93]	; 0x5d
 8006e40:	b2db      	uxtb	r3, r3
 8006e42:	2b04      	cmp	r3, #4
 8006e44:	d003      	beq.n	8006e4e <HAL_SPI_TransmitReceive+0x9c>
  {
    hspi->State = HAL_SPI_STATE_BUSY_TX_RX;
 8006e46:	68fb      	ldr	r3, [r7, #12]
 8006e48:	2205      	movs	r2, #5
 8006e4a:	f883 205d 	strb.w	r2, [r3, #93]	; 0x5d
  }

  /* Set the transaction information */
  hspi->ErrorCode   = HAL_SPI_ERROR_NONE;
 8006e4e:	68fb      	ldr	r3, [r7, #12]
 8006e50:	2200      	movs	r2, #0
 8006e52:	661a      	str	r2, [r3, #96]	; 0x60
  hspi->pRxBuffPtr  = (uint8_t *)pRxData;
 8006e54:	68fb      	ldr	r3, [r7, #12]
 8006e56:	687a      	ldr	r2, [r7, #4]
 8006e58:	641a      	str	r2, [r3, #64]	; 0x40
  hspi->RxXferCount = Size;
 8006e5a:	68fb      	ldr	r3, [r7, #12]
 8006e5c:	887a      	ldrh	r2, [r7, #2]
 8006e5e:	f8a3 2046 	strh.w	r2, [r3, #70]	; 0x46
  hspi->RxXferSize  = Size;
 8006e62:	68fb      	ldr	r3, [r7, #12]
 8006e64:	887a      	ldrh	r2, [r7, #2]
 8006e66:	f8a3 2044 	strh.w	r2, [r3, #68]	; 0x44
  hspi->pTxBuffPtr  = (uint8_t *)pTxData;
 8006e6a:	68fb      	ldr	r3, [r7, #12]
 8006e6c:	68ba      	ldr	r2, [r7, #8]
 8006e6e:	639a      	str	r2, [r3, #56]	; 0x38
  hspi->TxXferCount = Size;
 8006e70:	68fb      	ldr	r3, [r7, #12]
 8006e72:	887a      	ldrh	r2, [r7, #2]
 8006e74:	87da      	strh	r2, [r3, #62]	; 0x3e
  hspi->TxXferSize  = Size;
 8006e76:	68fb      	ldr	r3, [r7, #12]
 8006e78:	887a      	ldrh	r2, [r7, #2]
 8006e7a:	879a      	strh	r2, [r3, #60]	; 0x3c

  /*Init field not used in handle to zero */
  hspi->RxISR       = NULL;
 8006e7c:	68fb      	ldr	r3, [r7, #12]
 8006e7e:	2200      	movs	r2, #0
 8006e80:	64da      	str	r2, [r3, #76]	; 0x4c
  hspi->TxISR       = NULL;
 8006e82:	68fb      	ldr	r3, [r7, #12]
 8006e84:	2200      	movs	r2, #0
 8006e86:	651a      	str	r2, [r3, #80]	; 0x50
    SPI_RESET_CRC(hspi);
  }
#endif /* USE_SPI_CRC */

  /* Set the Rx Fifo threshold */
  if ((hspi->Init.DataSize > SPI_DATASIZE_8BIT) || (initial_RxXferCount > 1U))
 8006e88:	68fb      	ldr	r3, [r7, #12]
 8006e8a:	68db      	ldr	r3, [r3, #12]
 8006e8c:	f5b3 6fe0 	cmp.w	r3, #1792	; 0x700
 8006e90:	d802      	bhi.n	8006e98 <HAL_SPI_TransmitReceive+0xe6>
 8006e92:	8a3b      	ldrh	r3, [r7, #16]
 8006e94:	2b01      	cmp	r3, #1
 8006e96:	d908      	bls.n	8006eaa <HAL_SPI_TransmitReceive+0xf8>
  {
    /* Set fiforxthreshold according the reception data length: 16bit */
    CLEAR_BIT(hspi->Instance->CR2, SPI_RXFIFO_THRESHOLD);
 8006e98:	68fb      	ldr	r3, [r7, #12]
 8006e9a:	681b      	ldr	r3, [r3, #0]
 8006e9c:	685a      	ldr	r2, [r3, #4]
 8006e9e:	68fb      	ldr	r3, [r7, #12]
 8006ea0:	681b      	ldr	r3, [r3, #0]
 8006ea2:	f422 5280 	bic.w	r2, r2, #4096	; 0x1000
 8006ea6:	605a      	str	r2, [r3, #4]
 8006ea8:	e007      	b.n	8006eba <HAL_SPI_TransmitReceive+0x108>
  }
  else
  {
    /* Set fiforxthreshold according the reception data length: 8bit */
    SET_BIT(hspi->Instance->CR2, SPI_RXFIFO_THRESHOLD);
 8006eaa:	68fb      	ldr	r3, [r7, #12]
 8006eac:	681b      	ldr	r3, [r3, #0]
 8006eae:	685a      	ldr	r2, [r3, #4]
 8006eb0:	68fb      	ldr	r3, [r7, #12]
 8006eb2:	681b      	ldr	r3, [r3, #0]
 8006eb4:	f442 5280 	orr.w	r2, r2, #4096	; 0x1000
 8006eb8:	605a      	str	r2, [r3, #4]
  }

  /* Check if the SPI is already enabled */
  if ((hspi->Instance->CR1 & SPI_CR1_SPE) != SPI_CR1_SPE)
 8006eba:	68fb      	ldr	r3, [r7, #12]
 8006ebc:	681b      	ldr	r3, [r3, #0]
 8006ebe:	681b      	ldr	r3, [r3, #0]
 8006ec0:	f003 0340 	and.w	r3, r3, #64	; 0x40
 8006ec4:	2b40      	cmp	r3, #64	; 0x40
 8006ec6:	d007      	beq.n	8006ed8 <HAL_SPI_TransmitReceive+0x126>
  {
    /* Enable SPI peripheral */
    __HAL_SPI_ENABLE(hspi);
 8006ec8:	68fb      	ldr	r3, [r7, #12]
 8006eca:	681b      	ldr	r3, [r3, #0]
 8006ecc:	681a      	ldr	r2, [r3, #0]
 8006ece:	68fb      	ldr	r3, [r7, #12]
 8006ed0:	681b      	ldr	r3, [r3, #0]
 8006ed2:	f042 0240 	orr.w	r2, r2, #64	; 0x40
 8006ed6:	601a      	str	r2, [r3, #0]
  }

  /* Transmit and Receive data in 16 Bit mode */
  if (hspi->Init.DataSize > SPI_DATASIZE_8BIT)
 8006ed8:	68fb      	ldr	r3, [r7, #12]
 8006eda:	68db      	ldr	r3, [r3, #12]
 8006edc:	f5b3 6fe0 	cmp.w	r3, #1792	; 0x700
 8006ee0:	d97c      	bls.n	8006fdc <HAL_SPI_TransmitReceive+0x22a>
  {
    if ((hspi->Init.Mode == SPI_MODE_SLAVE) || (initial_TxXferCount == 0x01U))
 8006ee2:	68fb      	ldr	r3, [r7, #12]
 8006ee4:	685b      	ldr	r3, [r3, #4]
 8006ee6:	2b00      	cmp	r3, #0
 8006ee8:	d002      	beq.n	8006ef0 <HAL_SPI_TransmitReceive+0x13e>
 8006eea:	8a7b      	ldrh	r3, [r7, #18]
 8006eec:	2b01      	cmp	r3, #1
 8006eee:	d169      	bne.n	8006fc4 <HAL_SPI_TransmitReceive+0x212>
    {
      hspi->Instance->DR = *((uint16_t *)hspi->pTxBuffPtr);
 8006ef0:	68fb      	ldr	r3, [r7, #12]
 8006ef2:	6b9b      	ldr	r3, [r3, #56]	; 0x38
 8006ef4:	881a      	ldrh	r2, [r3, #0]
 8006ef6:	68fb      	ldr	r3, [r7, #12]
 8006ef8:	681b      	ldr	r3, [r3, #0]
 8006efa:	60da      	str	r2, [r3, #12]
      hspi->pTxBuffPtr += sizeof(uint16_t);
 8006efc:	68fb      	ldr	r3, [r7, #12]
 8006efe:	6b9b      	ldr	r3, [r3, #56]	; 0x38
 8006f00:	1c9a      	adds	r2, r3, #2
 8006f02:	68fb      	ldr	r3, [r7, #12]
 8006f04:	639a      	str	r2, [r3, #56]	; 0x38
      hspi->TxXferCount--;
 8006f06:	68fb      	ldr	r3, [r7, #12]
 8006f08:	8fdb      	ldrh	r3, [r3, #62]	; 0x3e
 8006f0a:	b29b      	uxth	r3, r3
 8006f0c:	3b01      	subs	r3, #1
 8006f0e:	b29a      	uxth	r2, r3
 8006f10:	68fb      	ldr	r3, [r7, #12]
 8006f12:	87da      	strh	r2, [r3, #62]	; 0x3e
    }
    while ((hspi->TxXferCount > 0U) || (hspi->RxXferCount > 0U))
 8006f14:	e056      	b.n	8006fc4 <HAL_SPI_TransmitReceive+0x212>
    {
      /* Check TXE flag */
      if ((__HAL_SPI_GET_FLAG(hspi, SPI_FLAG_TXE)) && (hspi->TxXferCount > 0U) && (txallowed == 1U))
 8006f16:	68fb      	ldr	r3, [r7, #12]
 8006f18:	681b      	ldr	r3, [r3, #0]
 8006f1a:	689b      	ldr	r3, [r3, #8]
 8006f1c:	f003 0302 	and.w	r3, r3, #2
 8006f20:	2b02      	cmp	r3, #2
 8006f22:	d11b      	bne.n	8006f5c <HAL_SPI_TransmitReceive+0x1aa>
 8006f24:	68fb      	ldr	r3, [r7, #12]
 8006f26:	8fdb      	ldrh	r3, [r3, #62]	; 0x3e
 8006f28:	b29b      	uxth	r3, r3
 8006f2a:	2b00      	cmp	r3, #0
 8006f2c:	d016      	beq.n	8006f5c <HAL_SPI_TransmitReceive+0x1aa>
 8006f2e:	6a7b      	ldr	r3, [r7, #36]	; 0x24
 8006f30:	2b01      	cmp	r3, #1
 8006f32:	d113      	bne.n	8006f5c <HAL_SPI_TransmitReceive+0x1aa>
      {
        hspi->Instance->DR = *((uint16_t *)hspi->pTxBuffPtr);
 8006f34:	68fb      	ldr	r3, [r7, #12]
 8006f36:	6b9b      	ldr	r3, [r3, #56]	; 0x38
 8006f38:	881a      	ldrh	r2, [r3, #0]
 8006f3a:	68fb      	ldr	r3, [r7, #12]
 8006f3c:	681b      	ldr	r3, [r3, #0]
 8006f3e:	60da      	str	r2, [r3, #12]
        hspi->pTxBuffPtr += sizeof(uint16_t);
 8006f40:	68fb      	ldr	r3, [r7, #12]
 8006f42:	6b9b      	ldr	r3, [r3, #56]	; 0x38
 8006f44:	1c9a      	adds	r2, r3, #2
 8006f46:	68fb      	ldr	r3, [r7, #12]
 8006f48:	639a      	str	r2, [r3, #56]	; 0x38
        hspi->TxXferCount--;
 8006f4a:	68fb      	ldr	r3, [r7, #12]
 8006f4c:	8fdb      	ldrh	r3, [r3, #62]	; 0x3e
 8006f4e:	b29b      	uxth	r3, r3
 8006f50:	3b01      	subs	r3, #1
 8006f52:	b29a      	uxth	r2, r3
 8006f54:	68fb      	ldr	r3, [r7, #12]
 8006f56:	87da      	strh	r2, [r3, #62]	; 0x3e
        /* Next Data is a reception (Rx). Tx not allowed */
        txallowed = 0U;
 8006f58:	2300      	movs	r3, #0
 8006f5a:	627b      	str	r3, [r7, #36]	; 0x24
        }
#endif /* USE_SPI_CRC */
      }

      /* Check RXNE flag */
      if ((__HAL_SPI_GET_FLAG(hspi, SPI_FLAG_RXNE)) && (hspi->RxXferCount > 0U))
 8006f5c:	68fb      	ldr	r3, [r7, #12]
 8006f5e:	681b      	ldr	r3, [r3, #0]
 8006f60:	689b      	ldr	r3, [r3, #8]
 8006f62:	f003 0301 	and.w	r3, r3, #1
 8006f66:	2b01      	cmp	r3, #1
 8006f68:	d11c      	bne.n	8006fa4 <HAL_SPI_TransmitReceive+0x1f2>
 8006f6a:	68fb      	ldr	r3, [r7, #12]
 8006f6c:	f8b3 3046 	ldrh.w	r3, [r3, #70]	; 0x46
 8006f70:	b29b      	uxth	r3, r3
 8006f72:	2b00      	cmp	r3, #0
 8006f74:	d016      	beq.n	8006fa4 <HAL_SPI_TransmitReceive+0x1f2>
      {
        *((uint16_t *)hspi->pRxBuffPtr) = (uint16_t)hspi->Instance->DR;
 8006f76:	68fb      	ldr	r3, [r7, #12]
 8006f78:	681b      	ldr	r3, [r3, #0]
 8006f7a:	68da      	ldr	r2, [r3, #12]
 8006f7c:	68fb      	ldr	r3, [r7, #12]
 8006f7e:	6c1b      	ldr	r3, [r3, #64]	; 0x40
 8006f80:	b292      	uxth	r2, r2
 8006f82:	801a      	strh	r2, [r3, #0]
        hspi->pRxBuffPtr += sizeof(uint16_t);
 8006f84:	68fb      	ldr	r3, [r7, #12]
 8006f86:	6c1b      	ldr	r3, [r3, #64]	; 0x40
 8006f88:	1c9a      	adds	r2, r3, #2
 8006f8a:	68fb      	ldr	r3, [r7, #12]
 8006f8c:	641a      	str	r2, [r3, #64]	; 0x40
        hspi->RxXferCount--;
 8006f8e:	68fb      	ldr	r3, [r7, #12]
 8006f90:	f8b3 3046 	ldrh.w	r3, [r3, #70]	; 0x46
 8006f94:	b29b      	uxth	r3, r3
 8006f96:	3b01      	subs	r3, #1
 8006f98:	b29a      	uxth	r2, r3
 8006f9a:	68fb      	ldr	r3, [r7, #12]
 8006f9c:	f8a3 2046 	strh.w	r2, [r3, #70]	; 0x46
        /* Next Data is a Transmission (Tx). Tx is allowed */
        txallowed = 1U;
 8006fa0:	2301      	movs	r3, #1
 8006fa2:	627b      	str	r3, [r7, #36]	; 0x24
      }
      if (((HAL_GetTick() - tickstart) >=  Timeout) && (Timeout != HAL_MAX_DELAY))
 8006fa4:	f7fd fe1e 	bl	8004be4 <HAL_GetTick>
 8006fa8:	4602      	mov	r2, r0
 8006faa:	69fb      	ldr	r3, [r7, #28]
 8006fac:	1ad3      	subs	r3, r2, r3
 8006fae:	6b3a      	ldr	r2, [r7, #48]	; 0x30
 8006fb0:	429a      	cmp	r2, r3
 8006fb2:	d807      	bhi.n	8006fc4 <HAL_SPI_TransmitReceive+0x212>
 8006fb4:	6b3b      	ldr	r3, [r7, #48]	; 0x30
 8006fb6:	f1b3 3fff 	cmp.w	r3, #4294967295	; 0xffffffff
 8006fba:	d003      	beq.n	8006fc4 <HAL_SPI_TransmitReceive+0x212>
      {
        errorcode = HAL_TIMEOUT;
 8006fbc:	2303      	movs	r3, #3
 8006fbe:	f887 3023 	strb.w	r3, [r7, #35]	; 0x23
        goto error;
 8006fc2:	e0fb      	b.n	80071bc <HAL_SPI_TransmitReceive+0x40a>
    while ((hspi->TxXferCount > 0U) || (hspi->RxXferCount > 0U))
 8006fc4:	68fb      	ldr	r3, [r7, #12]
 8006fc6:	8fdb      	ldrh	r3, [r3, #62]	; 0x3e
 8006fc8:	b29b      	uxth	r3, r3
 8006fca:	2b00      	cmp	r3, #0
 8006fcc:	d1a3      	bne.n	8006f16 <HAL_SPI_TransmitReceive+0x164>
 8006fce:	68fb      	ldr	r3, [r7, #12]
 8006fd0:	f8b3 3046 	ldrh.w	r3, [r3, #70]	; 0x46
 8006fd4:	b29b      	uxth	r3, r3
 8006fd6:	2b00      	cmp	r3, #0
 8006fd8:	d19d      	bne.n	8006f16 <HAL_SPI_TransmitReceive+0x164>
 8006fda:	e0df      	b.n	800719c <HAL_SPI_TransmitReceive+0x3ea>
    }
  }
  /* Transmit and Receive data in 8 Bit mode */
  else
  {
    if ((hspi->Init.Mode == SPI_MODE_SLAVE) || (initial_TxXferCount == 0x01U))
 8006fdc:	68fb      	ldr	r3, [r7, #12]
 8006fde:	685b      	ldr	r3, [r3, #4]
 8006fe0:	2b00      	cmp	r3, #0
 8006fe2:	d003      	beq.n	8006fec <HAL_SPI_TransmitReceive+0x23a>
 8006fe4:	8a7b      	ldrh	r3, [r7, #18]
 8006fe6:	2b01      	cmp	r3, #1
 8006fe8:	f040 80cb 	bne.w	8007182 <HAL_SPI_TransmitReceive+0x3d0>
    {
      if (hspi->TxXferCount > 1U)
 8006fec:	68fb      	ldr	r3, [r7, #12]
 8006fee:	8fdb      	ldrh	r3, [r3, #62]	; 0x3e
 8006ff0:	b29b      	uxth	r3, r3
 8006ff2:	2b01      	cmp	r3, #1
 8006ff4:	d912      	bls.n	800701c <HAL_SPI_TransmitReceive+0x26a>
      {
        hspi->Instance->DR = *((uint16_t *)hspi->pTxBuffPtr);
 8006ff6:	68fb      	ldr	r3, [r7, #12]
 8006ff8:	6b9b      	ldr	r3, [r3, #56]	; 0x38
 8006ffa:	881a      	ldrh	r2, [r3, #0]
 8006ffc:	68fb      	ldr	r3, [r7, #12]
 8006ffe:	681b      	ldr	r3, [r3, #0]
 8007000:	60da      	str	r2, [r3, #12]
        hspi->pTxBuffPtr += sizeof(uint16_t);
 8007002:	68fb      	ldr	r3, [r7, #12]
 8007004:	6b9b      	ldr	r3, [r3, #56]	; 0x38
 8007006:	1c9a      	adds	r2, r3, #2
 8007008:	68fb      	ldr	r3, [r7, #12]
 800700a:	639a      	str	r2, [r3, #56]	; 0x38
        hspi->TxXferCount -= 2U;
 800700c:	68fb      	ldr	r3, [r7, #12]
 800700e:	8fdb      	ldrh	r3, [r3, #62]	; 0x3e
 8007010:	b29b      	uxth	r3, r3
 8007012:	3b02      	subs	r3, #2
 8007014:	b29a      	uxth	r2, r3
 8007016:	68fb      	ldr	r3, [r7, #12]
 8007018:	87da      	strh	r2, [r3, #62]	; 0x3e
 800701a:	e0b2      	b.n	8007182 <HAL_SPI_TransmitReceive+0x3d0>
      }
      else
      {
        *(__IO uint8_t *)&hspi->Instance->DR = (*hspi->pTxBuffPtr);
 800701c:	68fb      	ldr	r3, [r7, #12]
 800701e:	6b9a      	ldr	r2, [r3, #56]	; 0x38
 8007020:	68fb      	ldr	r3, [r7, #12]
 8007022:	681b      	ldr	r3, [r3, #0]
 8007024:	330c      	adds	r3, #12
 8007026:	7812      	ldrb	r2, [r2, #0]
 8007028:	701a      	strb	r2, [r3, #0]
        hspi->pTxBuffPtr++;
 800702a:	68fb      	ldr	r3, [r7, #12]
 800702c:	6b9b      	ldr	r3, [r3, #56]	; 0x38
 800702e:	1c5a      	adds	r2, r3, #1
 8007030:	68fb      	ldr	r3, [r7, #12]
 8007032:	639a      	str	r2, [r3, #56]	; 0x38
        hspi->TxXferCount--;
 8007034:	68fb      	ldr	r3, [r7, #12]
 8007036:	8fdb      	ldrh	r3, [r3, #62]	; 0x3e
 8007038:	b29b      	uxth	r3, r3
 800703a:	3b01      	subs	r3, #1
 800703c:	b29a      	uxth	r2, r3
 800703e:	68fb      	ldr	r3, [r7, #12]
 8007040:	87da      	strh	r2, [r3, #62]	; 0x3e
      }
    }
    while ((hspi->TxXferCount > 0U) || (hspi->RxXferCount > 0U))
 8007042:	e09e      	b.n	8007182 <HAL_SPI_TransmitReceive+0x3d0>
    {
      /* Check TXE flag */
      if ((__HAL_SPI_GET_FLAG(hspi, SPI_FLAG_TXE)) && (hspi->TxXferCount > 0U) && (txallowed == 1U))
 8007044:	68fb      	ldr	r3, [r7, #12]
 8007046:	681b      	ldr	r3, [r3, #0]
 8007048:	689b      	ldr	r3, [r3, #8]
 800704a:	f003 0302 	and.w	r3, r3, #2
 800704e:	2b02      	cmp	r3, #2
 8007050:	d134      	bne.n	80070bc <HAL_SPI_TransmitReceive+0x30a>
 8007052:	68fb      	ldr	r3, [r7, #12]
 8007054:	8fdb      	ldrh	r3, [r3, #62]	; 0x3e
 8007056:	b29b      	uxth	r3, r3
 8007058:	2b00      	cmp	r3, #0
 800705a:	d02f      	beq.n	80070bc <HAL_SPI_TransmitReceive+0x30a>
 800705c:	6a7b      	ldr	r3, [r7, #36]	; 0x24
 800705e:	2b01      	cmp	r3, #1
 8007060:	d12c      	bne.n	80070bc <HAL_SPI_TransmitReceive+0x30a>
      {
        if (hspi->TxXferCount > 1U)
 8007062:	68fb      	ldr	r3, [r7, #12]
 8007064:	8fdb      	ldrh	r3, [r3, #62]	; 0x3e
 8007066:	b29b      	uxth	r3, r3
 8007068:	2b01      	cmp	r3, #1
 800706a:	d912      	bls.n	8007092 <HAL_SPI_TransmitReceive+0x2e0>
        {
          hspi->Instance->DR = *((uint16_t *)hspi->pTxBuffPtr);
 800706c:	68fb      	ldr	r3, [r7, #12]
 800706e:	6b9b      	ldr	r3, [r3, #56]	; 0x38
 8007070:	881a      	ldrh	r2, [r3, #0]
 8007072:	68fb      	ldr	r3, [r7, #12]
 8007074:	681b      	ldr	r3, [r3, #0]
 8007076:	60da      	str	r2, [r3, #12]
          hspi->pTxBuffPtr += sizeof(uint16_t);
 8007078:	68fb      	ldr	r3, [r7, #12]
 800707a:	6b9b      	ldr	r3, [r3, #56]	; 0x38
 800707c:	1c9a      	adds	r2, r3, #2
 800707e:	68fb      	ldr	r3, [r7, #12]
 8007080:	639a      	str	r2, [r3, #56]	; 0x38
          hspi->TxXferCount -= 2U;
 8007082:	68fb      	ldr	r3, [r7, #12]
 8007084:	8fdb      	ldrh	r3, [r3, #62]	; 0x3e
 8007086:	b29b      	uxth	r3, r3
 8007088:	3b02      	subs	r3, #2
 800708a:	b29a      	uxth	r2, r3
 800708c:	68fb      	ldr	r3, [r7, #12]
 800708e:	87da      	strh	r2, [r3, #62]	; 0x3e
 8007090:	e012      	b.n	80070b8 <HAL_SPI_TransmitReceive+0x306>
        }
        else
        {
          *(__IO uint8_t *)&hspi->Instance->DR = (*hspi->pTxBuffPtr);
 8007092:	68fb      	ldr	r3, [r7, #12]
 8007094:	6b9a      	ldr	r2, [r3, #56]	; 0x38
 8007096:	68fb      	ldr	r3, [r7, #12]
 8007098:	681b      	ldr	r3, [r3, #0]
 800709a:	330c      	adds	r3, #12
 800709c:	7812      	ldrb	r2, [r2, #0]
 800709e:	701a      	strb	r2, [r3, #0]
          hspi->pTxBuffPtr++;
 80070a0:	68fb      	ldr	r3, [r7, #12]
 80070a2:	6b9b      	ldr	r3, [r3, #56]	; 0x38
 80070a4:	1c5a      	adds	r2, r3, #1
 80070a6:	68fb      	ldr	r3, [r7, #12]
 80070a8:	639a      	str	r2, [r3, #56]	; 0x38
          hspi->TxXferCount--;
 80070aa:	68fb      	ldr	r3, [r7, #12]
 80070ac:	8fdb      	ldrh	r3, [r3, #62]	; 0x3e
 80070ae:	b29b      	uxth	r3, r3
 80070b0:	3b01      	subs	r3, #1
 80070b2:	b29a      	uxth	r2, r3
 80070b4:	68fb      	ldr	r3, [r7, #12]
 80070b6:	87da      	strh	r2, [r3, #62]	; 0x3e
        }
        /* Next Data is a reception (Rx). Tx not allowed */
        txallowed = 0U;
 80070b8:	2300      	movs	r3, #0
 80070ba:	627b      	str	r3, [r7, #36]	; 0x24
        }
#endif /* USE_SPI_CRC */
      }

      /* Wait until RXNE flag is reset */
      if ((__HAL_SPI_GET_FLAG(hspi, SPI_FLAG_RXNE)) && (hspi->RxXferCount > 0U))
 80070bc:	68fb      	ldr	r3, [r7, #12]
 80070be:	681b      	ldr	r3, [r3, #0]
 80070c0:	689b      	ldr	r3, [r3, #8]
 80070c2:	f003 0301 	and.w	r3, r3, #1
 80070c6:	2b01      	cmp	r3, #1
 80070c8:	d148      	bne.n	800715c <HAL_SPI_TransmitReceive+0x3aa>
 80070ca:	68fb      	ldr	r3, [r7, #12]
 80070cc:	f8b3 3046 	ldrh.w	r3, [r3, #70]	; 0x46
 80070d0:	b29b      	uxth	r3, r3
 80070d2:	2b00      	cmp	r3, #0
 80070d4:	d042      	beq.n	800715c <HAL_SPI_TransmitReceive+0x3aa>
      {
        if (hspi->RxXferCount > 1U)
 80070d6:	68fb      	ldr	r3, [r7, #12]
 80070d8:	f8b3 3046 	ldrh.w	r3, [r3, #70]	; 0x46
 80070dc:	b29b      	uxth	r3, r3
 80070de:	2b01      	cmp	r3, #1
 80070e0:	d923      	bls.n	800712a <HAL_SPI_TransmitReceive+0x378>
        {
          *((uint16_t *)hspi->pRxBuffPtr) = (uint16_t)hspi->Instance->DR;
 80070e2:	68fb      	ldr	r3, [r7, #12]
 80070e4:	681b      	ldr	r3, [r3, #0]
 80070e6:	68da      	ldr	r2, [r3, #12]
 80070e8:	68fb      	ldr	r3, [r7, #12]
 80070ea:	6c1b      	ldr	r3, [r3, #64]	; 0x40
 80070ec:	b292      	uxth	r2, r2
 80070ee:	801a      	strh	r2, [r3, #0]
          hspi->pRxBuffPtr += sizeof(uint16_t);
 80070f0:	68fb      	ldr	r3, [r7, #12]
 80070f2:	6c1b      	ldr	r3, [r3, #64]	; 0x40
 80070f4:	1c9a      	adds	r2, r3, #2
 80070f6:	68fb      	ldr	r3, [r7, #12]
 80070f8:	641a      	str	r2, [r3, #64]	; 0x40
          hspi->RxXferCount -= 2U;
 80070fa:	68fb      	ldr	r3, [r7, #12]
 80070fc:	f8b3 3046 	ldrh.w	r3, [r3, #70]	; 0x46
 8007100:	b29b      	uxth	r3, r3
 8007102:	3b02      	subs	r3, #2
 8007104:	b29a      	uxth	r2, r3
 8007106:	68fb      	ldr	r3, [r7, #12]
 8007108:	f8a3 2046 	strh.w	r2, [r3, #70]	; 0x46
          if (hspi->RxXferCount <= 1U)
 800710c:	68fb      	ldr	r3, [r7, #12]
 800710e:	f8b3 3046 	ldrh.w	r3, [r3, #70]	; 0x46
 8007112:	b29b      	uxth	r3, r3
 8007114:	2b01      	cmp	r3, #1
 8007116:	d81f      	bhi.n	8007158 <HAL_SPI_TransmitReceive+0x3a6>
          {
            /* Set RX Fifo threshold before to switch on 8 bit data size */
            SET_BIT(hspi->Instance->CR2, SPI_RXFIFO_THRESHOLD);
 8007118:	68fb      	ldr	r3, [r7, #12]
 800711a:	681b      	ldr	r3, [r3, #0]
 800711c:	685a      	ldr	r2, [r3, #4]
 800711e:	68fb      	ldr	r3, [r7, #12]
 8007120:	681b      	ldr	r3, [r3, #0]
 8007122:	f442 5280 	orr.w	r2, r2, #4096	; 0x1000
 8007126:	605a      	str	r2, [r3, #4]
 8007128:	e016      	b.n	8007158 <HAL_SPI_TransmitReceive+0x3a6>
          }
        }
        else
        {
          (*(uint8_t *)hspi->pRxBuffPtr) = *(__IO uint8_t *)&hspi->Instance->DR;
 800712a:	68fb      	ldr	r3, [r7, #12]
 800712c:	681b      	ldr	r3, [r3, #0]
 800712e:	f103 020c 	add.w	r2, r3, #12
 8007132:	68fb      	ldr	r3, [r7, #12]
 8007134:	6c1b      	ldr	r3, [r3, #64]	; 0x40
 8007136:	7812      	ldrb	r2, [r2, #0]
 8007138:	b2d2      	uxtb	r2, r2
 800713a:	701a      	strb	r2, [r3, #0]
          hspi->pRxBuffPtr++;
 800713c:	68fb      	ldr	r3, [r7, #12]
 800713e:	6c1b      	ldr	r3, [r3, #64]	; 0x40
 8007140:	1c5a      	adds	r2, r3, #1
 8007142:	68fb      	ldr	r3, [r7, #12]
 8007144:	641a      	str	r2, [r3, #64]	; 0x40
          hspi->RxXferCount--;
 8007146:	68fb      	ldr	r3, [r7, #12]
 8007148:	f8b3 3046 	ldrh.w	r3, [r3, #70]	; 0x46
 800714c:	b29b      	uxth	r3, r3
 800714e:	3b01      	subs	r3, #1
 8007150:	b29a      	uxth	r2, r3
 8007152:	68fb      	ldr	r3, [r7, #12]
 8007154:	f8a3 2046 	strh.w	r2, [r3, #70]	; 0x46
        }
        /* Next Data is a Transmission (Tx). Tx is allowed */
        txallowed = 1U;
 8007158:	2301      	movs	r3, #1
 800715a:	627b      	str	r3, [r7, #36]	; 0x24
      }
      if ((((HAL_GetTick() - tickstart) >=  Timeout) && ((Timeout != HAL_MAX_DELAY))) || (Timeout == 0U))
 800715c:	f7fd fd42 	bl	8004be4 <HAL_GetTick>
 8007160:	4602      	mov	r2, r0
 8007162:	69fb      	ldr	r3, [r7, #28]
 8007164:	1ad3      	subs	r3, r2, r3
 8007166:	6b3a      	ldr	r2, [r7, #48]	; 0x30
 8007168:	429a      	cmp	r2, r3
 800716a:	d803      	bhi.n	8007174 <HAL_SPI_TransmitReceive+0x3c2>
 800716c:	6b3b      	ldr	r3, [r7, #48]	; 0x30
 800716e:	f1b3 3fff 	cmp.w	r3, #4294967295	; 0xffffffff
 8007172:	d102      	bne.n	800717a <HAL_SPI_TransmitReceive+0x3c8>
 8007174:	6b3b      	ldr	r3, [r7, #48]	; 0x30
 8007176:	2b00      	cmp	r3, #0
 8007178:	d103      	bne.n	8007182 <HAL_SPI_TransmitReceive+0x3d0>
      {
        errorcode = HAL_TIMEOUT;
 800717a:	2303      	movs	r3, #3
 800717c:	f887 3023 	strb.w	r3, [r7, #35]	; 0x23
        goto error;
 8007180:	e01c      	b.n	80071bc <HAL_SPI_TransmitReceive+0x40a>
    while ((hspi->TxXferCount > 0U) || (hspi->RxXferCount > 0U))
 8007182:	68fb      	ldr	r3, [r7, #12]
 8007184:	8fdb      	ldrh	r3, [r3, #62]	; 0x3e
 8007186:	b29b      	uxth	r3, r3
 8007188:	2b00      	cmp	r3, #0
 800718a:	f47f af5b 	bne.w	8007044 <HAL_SPI_TransmitReceive+0x292>
 800718e:	68fb      	ldr	r3, [r7, #12]
 8007190:	f8b3 3046 	ldrh.w	r3, [r3, #70]	; 0x46
 8007194:	b29b      	uxth	r3, r3
 8007196:	2b00      	cmp	r3, #0
 8007198:	f47f af54 	bne.w	8007044 <HAL_SPI_TransmitReceive+0x292>
    errorcode = HAL_ERROR;
  }
#endif /* USE_SPI_CRC */

  /* Check the end of the transaction */
  if (SPI_EndRxTxTransaction(hspi, Timeout, tickstart) != HAL_OK)
 800719c:	69fa      	ldr	r2, [r7, #28]
 800719e:	6b39      	ldr	r1, [r7, #48]	; 0x30
 80071a0:	68f8      	ldr	r0, [r7, #12]
 80071a2:	f000 f937 	bl	8007414 <SPI_EndRxTxTransaction>
 80071a6:	4603      	mov	r3, r0
 80071a8:	2b00      	cmp	r3, #0
 80071aa:	d006      	beq.n	80071ba <HAL_SPI_TransmitReceive+0x408>
  {
    errorcode = HAL_ERROR;
 80071ac:	2301      	movs	r3, #1
 80071ae:	f887 3023 	strb.w	r3, [r7, #35]	; 0x23
    hspi->ErrorCode = HAL_SPI_ERROR_FLAG;
 80071b2:	68fb      	ldr	r3, [r7, #12]
 80071b4:	2220      	movs	r2, #32
 80071b6:	661a      	str	r2, [r3, #96]	; 0x60
 80071b8:	e000      	b.n	80071bc <HAL_SPI_TransmitReceive+0x40a>
  }

error :
 80071ba:	bf00      	nop
  hspi->State = HAL_SPI_STATE_READY;
 80071bc:	68fb      	ldr	r3, [r7, #12]
 80071be:	2201      	movs	r2, #1
 80071c0:	f883 205d 	strb.w	r2, [r3, #93]	; 0x5d
  __HAL_UNLOCK(hspi);
 80071c4:	68fb      	ldr	r3, [r7, #12]
 80071c6:	2200      	movs	r2, #0
 80071c8:	f883 205c 	strb.w	r2, [r3, #92]	; 0x5c
  return errorcode;
 80071cc:	f897 3023 	ldrb.w	r3, [r7, #35]	; 0x23
}
 80071d0:	4618      	mov	r0, r3
 80071d2:	3728      	adds	r7, #40	; 0x28
 80071d4:	46bd      	mov	sp, r7
 80071d6:	bd80      	pop	{r7, pc}

080071d8 <SPI_WaitFlagStateUntilTimeout>:
  * @param  Tickstart tick start value
  * @retval HAL status
  */
static HAL_StatusTypeDef SPI_WaitFlagStateUntilTimeout(SPI_HandleTypeDef *hspi, uint32_t Flag, FlagStatus State,
                                                       uint32_t Timeout, uint32_t Tickstart)
{
 80071d8:	b580      	push	{r7, lr}
 80071da:	b088      	sub	sp, #32
 80071dc:	af00      	add	r7, sp, #0
 80071de:	60f8      	str	r0, [r7, #12]
 80071e0:	60b9      	str	r1, [r7, #8]
 80071e2:	603b      	str	r3, [r7, #0]
 80071e4:	4613      	mov	r3, r2
 80071e6:	71fb      	strb	r3, [r7, #7]
  __IO uint32_t count;
  uint32_t tmp_timeout;
  uint32_t tmp_tickstart;

  /* Adjust Timeout value  in case of end of transfer */
  tmp_timeout   = Timeout - (HAL_GetTick() - Tickstart);
 80071e8:	f7fd fcfc 	bl	8004be4 <HAL_GetTick>
 80071ec:	4602      	mov	r2, r0
 80071ee:	6abb      	ldr	r3, [r7, #40]	; 0x28
 80071f0:	1a9b      	subs	r3, r3, r2
 80071f2:	683a      	ldr	r2, [r7, #0]
 80071f4:	4413      	add	r3, r2
 80071f6:	61fb      	str	r3, [r7, #28]
  tmp_tickstart = HAL_GetTick();
 80071f8:	f7fd fcf4 	bl	8004be4 <HAL_GetTick>
 80071fc:	61b8      	str	r0, [r7, #24]

  /* Calculate Timeout based on a software loop to avoid blocking issue if Systick is disabled */
  count = tmp_timeout * ((SystemCoreClock * 32U) >> 20U);
 80071fe:	4b39      	ldr	r3, [pc, #228]	; (80072e4 <SPI_WaitFlagStateUntilTimeout+0x10c>)
 8007200:	681b      	ldr	r3, [r3, #0]
 8007202:	015b      	lsls	r3, r3, #5
 8007204:	0d1b      	lsrs	r3, r3, #20
 8007206:	69fa      	ldr	r2, [r7, #28]
 8007208:	fb02 f303 	mul.w	r3, r2, r3
 800720c:	617b      	str	r3, [r7, #20]

  while ((__HAL_SPI_GET_FLAG(hspi, Flag) ? SET : RESET) != State)
 800720e:	e054      	b.n	80072ba <SPI_WaitFlagStateUntilTimeout+0xe2>
  {
    if (Timeout != HAL_MAX_DELAY)
 8007210:	683b      	ldr	r3, [r7, #0]
 8007212:	f1b3 3fff 	cmp.w	r3, #4294967295	; 0xffffffff
 8007216:	d050      	beq.n	80072ba <SPI_WaitFlagStateUntilTimeout+0xe2>
    {
      if (((HAL_GetTick() - tmp_tickstart) >= tmp_timeout) || (tmp_timeout == 0U))
 8007218:	f7fd fce4 	bl	8004be4 <HAL_GetTick>
 800721c:	4602      	mov	r2, r0
 800721e:	69bb      	ldr	r3, [r7, #24]
 8007220:	1ad3      	subs	r3, r2, r3
 8007222:	69fa      	ldr	r2, [r7, #28]
 8007224:	429a      	cmp	r2, r3
 8007226:	d902      	bls.n	800722e <SPI_WaitFlagStateUntilTimeout+0x56>
 8007228:	69fb      	ldr	r3, [r7, #28]
 800722a:	2b00      	cmp	r3, #0
 800722c:	d13d      	bne.n	80072aa <SPI_WaitFlagStateUntilTimeout+0xd2>
        /* Disable the SPI and reset the CRC: the CRC value should be cleared
           on both master and slave sides in order to resynchronize the master
           and slave for their respective CRC calculation */

        /* Disable TXE, RXNE and ERR interrupts for the interrupt process */
        __HAL_SPI_DISABLE_IT(hspi, (SPI_IT_TXE | SPI_IT_RXNE | SPI_IT_ERR));
 800722e:	68fb      	ldr	r3, [r7, #12]
 8007230:	681b      	ldr	r3, [r3, #0]
 8007232:	685a      	ldr	r2, [r3, #4]
 8007234:	68fb      	ldr	r3, [r7, #12]
 8007236:	681b      	ldr	r3, [r3, #0]
 8007238:	f022 02e0 	bic.w	r2, r2, #224	; 0xe0
 800723c:	605a      	str	r2, [r3, #4]

        if ((hspi->Init.Mode == SPI_MODE_MASTER) && ((hspi->Init.Direction == SPI_DIRECTION_1LINE)
 800723e:	68fb      	ldr	r3, [r7, #12]
 8007240:	685b      	ldr	r3, [r3, #4]
 8007242:	f5b3 7f82 	cmp.w	r3, #260	; 0x104
 8007246:	d111      	bne.n	800726c <SPI_WaitFlagStateUntilTimeout+0x94>
 8007248:	68fb      	ldr	r3, [r7, #12]
 800724a:	689b      	ldr	r3, [r3, #8]
 800724c:	f5b3 4f00 	cmp.w	r3, #32768	; 0x8000
 8007250:	d004      	beq.n	800725c <SPI_WaitFlagStateUntilTimeout+0x84>
                                                     || (hspi->Init.Direction == SPI_DIRECTION_2LINES_RXONLY)))
 8007252:	68fb      	ldr	r3, [r7, #12]
 8007254:	689b      	ldr	r3, [r3, #8]
 8007256:	f5b3 6f80 	cmp.w	r3, #1024	; 0x400
 800725a:	d107      	bne.n	800726c <SPI_WaitFlagStateUntilTimeout+0x94>
        {
          /* Disable SPI peripheral */
          __HAL_SPI_DISABLE(hspi);
 800725c:	68fb      	ldr	r3, [r7, #12]
 800725e:	681b      	ldr	r3, [r3, #0]
 8007260:	681a      	ldr	r2, [r3, #0]
 8007262:	68fb      	ldr	r3, [r7, #12]
 8007264:	681b      	ldr	r3, [r3, #0]
 8007266:	f022 0240 	bic.w	r2, r2, #64	; 0x40
 800726a:	601a      	str	r2, [r3, #0]
        }

        /* Reset CRC Calculation */
        if (hspi->Init.CRCCalculation == SPI_CRCCALCULATION_ENABLE)
 800726c:	68fb      	ldr	r3, [r7, #12]
 800726e:	6a9b      	ldr	r3, [r3, #40]	; 0x28
 8007270:	f5b3 5f00 	cmp.w	r3, #8192	; 0x2000
 8007274:	d10f      	bne.n	8007296 <SPI_WaitFlagStateUntilTimeout+0xbe>
        {
          SPI_RESET_CRC(hspi);
 8007276:	68fb      	ldr	r3, [r7, #12]
 8007278:	681b      	ldr	r3, [r3, #0]
 800727a:	681a      	ldr	r2, [r3, #0]
 800727c:	68fb      	ldr	r3, [r7, #12]
 800727e:	681b      	ldr	r3, [r3, #0]
 8007280:	f422 5200 	bic.w	r2, r2, #8192	; 0x2000
 8007284:	601a      	str	r2, [r3, #0]
 8007286:	68fb      	ldr	r3, [r7, #12]
 8007288:	681b      	ldr	r3, [r3, #0]
 800728a:	681a      	ldr	r2, [r3, #0]
 800728c:	68fb      	ldr	r3, [r7, #12]
 800728e:	681b      	ldr	r3, [r3, #0]
 8007290:	f442 5200 	orr.w	r2, r2, #8192	; 0x2000
 8007294:	601a      	str	r2, [r3, #0]
        }

        hspi->State = HAL_SPI_STATE_READY;
 8007296:	68fb      	ldr	r3, [r7, #12]
 8007298:	2201      	movs	r2, #1
 800729a:	f883 205d 	strb.w	r2, [r3, #93]	; 0x5d

        /* Process Unlocked */
        __HAL_UNLOCK(hspi);
 800729e:	68fb      	ldr	r3, [r7, #12]
 80072a0:	2200      	movs	r2, #0
 80072a2:	f883 205c 	strb.w	r2, [r3, #92]	; 0x5c

        return HAL_TIMEOUT;
 80072a6:	2303      	movs	r3, #3
 80072a8:	e017      	b.n	80072da <SPI_WaitFlagStateUntilTimeout+0x102>
      }
      /* If Systick is disabled or not incremented, deactivate timeout to go in disable loop procedure */
      if (count == 0U)
 80072aa:	697b      	ldr	r3, [r7, #20]
 80072ac:	2b00      	cmp	r3, #0
 80072ae:	d101      	bne.n	80072b4 <SPI_WaitFlagStateUntilTimeout+0xdc>
      {
        tmp_timeout = 0U;
 80072b0:	2300      	movs	r3, #0
 80072b2:	61fb      	str	r3, [r7, #28]
      }
      count--;
 80072b4:	697b      	ldr	r3, [r7, #20]
 80072b6:	3b01      	subs	r3, #1
 80072b8:	617b      	str	r3, [r7, #20]
  while ((__HAL_SPI_GET_FLAG(hspi, Flag) ? SET : RESET) != State)
 80072ba:	68fb      	ldr	r3, [r7, #12]
 80072bc:	681b      	ldr	r3, [r3, #0]
 80072be:	689a      	ldr	r2, [r3, #8]
 80072c0:	68bb      	ldr	r3, [r7, #8]
 80072c2:	4013      	ands	r3, r2
 80072c4:	68ba      	ldr	r2, [r7, #8]
 80072c6:	429a      	cmp	r2, r3
 80072c8:	bf0c      	ite	eq
 80072ca:	2301      	moveq	r3, #1
 80072cc:	2300      	movne	r3, #0
 80072ce:	b2db      	uxtb	r3, r3
 80072d0:	461a      	mov	r2, r3
 80072d2:	79fb      	ldrb	r3, [r7, #7]
 80072d4:	429a      	cmp	r2, r3
 80072d6:	d19b      	bne.n	8007210 <SPI_WaitFlagStateUntilTimeout+0x38>
    }
  }

  return HAL_OK;
 80072d8:	2300      	movs	r3, #0
}
 80072da:	4618      	mov	r0, r3
 80072dc:	3720      	adds	r7, #32
 80072de:	46bd      	mov	sp, r7
 80072e0:	bd80      	pop	{r7, pc}
 80072e2:	bf00      	nop
 80072e4:	20000134 	.word	0x20000134

080072e8 <SPI_WaitFifoStateUntilTimeout>:
  * @param  Tickstart tick start value
  * @retval HAL status
  */
static HAL_StatusTypeDef SPI_WaitFifoStateUntilTimeout(SPI_HandleTypeDef *hspi, uint32_t Fifo, uint32_t State,
                                                       uint32_t Timeout, uint32_t Tickstart)
{
 80072e8:	b580      	push	{r7, lr}
 80072ea:	b08a      	sub	sp, #40	; 0x28
 80072ec:	af00      	add	r7, sp, #0
 80072ee:	60f8      	str	r0, [r7, #12]
 80072f0:	60b9      	str	r1, [r7, #8]
 80072f2:	607a      	str	r2, [r7, #4]
 80072f4:	603b      	str	r3, [r7, #0]
  __IO uint32_t count;
  uint32_t tmp_timeout;
  uint32_t tmp_tickstart;
  __IO uint8_t  *ptmpreg8;
  __IO uint8_t  tmpreg8 = 0;
 80072f6:	2300      	movs	r3, #0
 80072f8:	75fb      	strb	r3, [r7, #23]

  /* Adjust Timeout value  in case of end of transfer */
  tmp_timeout = Timeout - (HAL_GetTick() - Tickstart);
 80072fa:	f7fd fc73 	bl	8004be4 <HAL_GetTick>
 80072fe:	4602      	mov	r2, r0
 8007300:	6b3b      	ldr	r3, [r7, #48]	; 0x30
 8007302:	1a9b      	subs	r3, r3, r2
 8007304:	683a      	ldr	r2, [r7, #0]
 8007306:	4413      	add	r3, r2
 8007308:	627b      	str	r3, [r7, #36]	; 0x24
  tmp_tickstart = HAL_GetTick();
 800730a:	f7fd fc6b 	bl	8004be4 <HAL_GetTick>
 800730e:	6238      	str	r0, [r7, #32]

  /* Initialize the 8bit temporary pointer */
  ptmpreg8 = (__IO uint8_t *)&hspi->Instance->DR;
 8007310:	68fb      	ldr	r3, [r7, #12]
 8007312:	681b      	ldr	r3, [r3, #0]
 8007314:	330c      	adds	r3, #12
 8007316:	61fb      	str	r3, [r7, #28]

  /* Calculate Timeout based on a software loop to avoid blocking issue if Systick is disabled */
  count = tmp_timeout * ((SystemCoreClock * 35U) >> 20U);
 8007318:	4b3d      	ldr	r3, [pc, #244]	; (8007410 <SPI_WaitFifoStateUntilTimeout+0x128>)
 800731a:	681a      	ldr	r2, [r3, #0]
 800731c:	4613      	mov	r3, r2
 800731e:	009b      	lsls	r3, r3, #2
 8007320:	4413      	add	r3, r2
 8007322:	00da      	lsls	r2, r3, #3
 8007324:	1ad3      	subs	r3, r2, r3
 8007326:	0d1b      	lsrs	r3, r3, #20
 8007328:	6a7a      	ldr	r2, [r7, #36]	; 0x24
 800732a:	fb02 f303 	mul.w	r3, r2, r3
 800732e:	61bb      	str	r3, [r7, #24]

  while ((hspi->Instance->SR & Fifo) != State)
 8007330:	e060      	b.n	80073f4 <SPI_WaitFifoStateUntilTimeout+0x10c>
  {
    if ((Fifo == SPI_SR_FRLVL) && (State == SPI_FRLVL_EMPTY))
 8007332:	68bb      	ldr	r3, [r7, #8]
 8007334:	f5b3 6fc0 	cmp.w	r3, #1536	; 0x600
 8007338:	d107      	bne.n	800734a <SPI_WaitFifoStateUntilTimeout+0x62>
 800733a:	687b      	ldr	r3, [r7, #4]
 800733c:	2b00      	cmp	r3, #0
 800733e:	d104      	bne.n	800734a <SPI_WaitFifoStateUntilTimeout+0x62>
    {
      /* Flush Data Register by a blank read */
      tmpreg8 = *ptmpreg8;
 8007340:	69fb      	ldr	r3, [r7, #28]
 8007342:	781b      	ldrb	r3, [r3, #0]
 8007344:	b2db      	uxtb	r3, r3
 8007346:	75fb      	strb	r3, [r7, #23]
      /* To avoid GCC warning */
      UNUSED(tmpreg8);
 8007348:	7dfb      	ldrb	r3, [r7, #23]
    }

    if (Timeout != HAL_MAX_DELAY)
 800734a:	683b      	ldr	r3, [r7, #0]
 800734c:	f1b3 3fff 	cmp.w	r3, #4294967295	; 0xffffffff
 8007350:	d050      	beq.n	80073f4 <SPI_WaitFifoStateUntilTimeout+0x10c>
    {
      if (((HAL_GetTick() - tmp_tickstart) >= tmp_timeout) || (tmp_timeout == 0U))
 8007352:	f7fd fc47 	bl	8004be4 <HAL_GetTick>
 8007356:	4602      	mov	r2, r0
 8007358:	6a3b      	ldr	r3, [r7, #32]
 800735a:	1ad3      	subs	r3, r2, r3
 800735c:	6a7a      	ldr	r2, [r7, #36]	; 0x24
 800735e:	429a      	cmp	r2, r3
 8007360:	d902      	bls.n	8007368 <SPI_WaitFifoStateUntilTimeout+0x80>
 8007362:	6a7b      	ldr	r3, [r7, #36]	; 0x24
 8007364:	2b00      	cmp	r3, #0
 8007366:	d13d      	bne.n	80073e4 <SPI_WaitFifoStateUntilTimeout+0xfc>
        /* Disable the SPI and reset the CRC: the CRC value should be cleared
           on both master and slave sides in order to resynchronize the master
           and slave for their respective CRC calculation */

        /* Disable TXE, RXNE and ERR interrupts for the interrupt process */
        __HAL_SPI_DISABLE_IT(hspi, (SPI_IT_TXE | SPI_IT_RXNE | SPI_IT_ERR));
 8007368:	68fb      	ldr	r3, [r7, #12]
 800736a:	681b      	ldr	r3, [r3, #0]
 800736c:	685a      	ldr	r2, [r3, #4]
 800736e:	68fb      	ldr	r3, [r7, #12]
 8007370:	681b      	ldr	r3, [r3, #0]
 8007372:	f022 02e0 	bic.w	r2, r2, #224	; 0xe0
 8007376:	605a      	str	r2, [r3, #4]

        if ((hspi->Init.Mode == SPI_MODE_MASTER) && ((hspi->Init.Direction == SPI_DIRECTION_1LINE)
 8007378:	68fb      	ldr	r3, [r7, #12]
 800737a:	685b      	ldr	r3, [r3, #4]
 800737c:	f5b3 7f82 	cmp.w	r3, #260	; 0x104
 8007380:	d111      	bne.n	80073a6 <SPI_WaitFifoStateUntilTimeout+0xbe>
 8007382:	68fb      	ldr	r3, [r7, #12]
 8007384:	689b      	ldr	r3, [r3, #8]
 8007386:	f5b3 4f00 	cmp.w	r3, #32768	; 0x8000
 800738a:	d004      	beq.n	8007396 <SPI_WaitFifoStateUntilTimeout+0xae>
                                                     || (hspi->Init.Direction == SPI_DIRECTION_2LINES_RXONLY)))
 800738c:	68fb      	ldr	r3, [r7, #12]
 800738e:	689b      	ldr	r3, [r3, #8]
 8007390:	f5b3 6f80 	cmp.w	r3, #1024	; 0x400
 8007394:	d107      	bne.n	80073a6 <SPI_WaitFifoStateUntilTimeout+0xbe>
        {
          /* Disable SPI peripheral */
          __HAL_SPI_DISABLE(hspi);
 8007396:	68fb      	ldr	r3, [r7, #12]
 8007398:	681b      	ldr	r3, [r3, #0]
 800739a:	681a      	ldr	r2, [r3, #0]
 800739c:	68fb      	ldr	r3, [r7, #12]
 800739e:	681b      	ldr	r3, [r3, #0]
 80073a0:	f022 0240 	bic.w	r2, r2, #64	; 0x40
 80073a4:	601a      	str	r2, [r3, #0]
        }

        /* Reset CRC Calculation */
        if (hspi->Init.CRCCalculation == SPI_CRCCALCULATION_ENABLE)
 80073a6:	68fb      	ldr	r3, [r7, #12]
 80073a8:	6a9b      	ldr	r3, [r3, #40]	; 0x28
 80073aa:	f5b3 5f00 	cmp.w	r3, #8192	; 0x2000
 80073ae:	d10f      	bne.n	80073d0 <SPI_WaitFifoStateUntilTimeout+0xe8>
        {
          SPI_RESET_CRC(hspi);
 80073b0:	68fb      	ldr	r3, [r7, #12]
 80073b2:	681b      	ldr	r3, [r3, #0]
 80073b4:	681a      	ldr	r2, [r3, #0]
 80073b6:	68fb      	ldr	r3, [r7, #12]
 80073b8:	681b      	ldr	r3, [r3, #0]
 80073ba:	f422 5200 	bic.w	r2, r2, #8192	; 0x2000
 80073be:	601a      	str	r2, [r3, #0]
 80073c0:	68fb      	ldr	r3, [r7, #12]
 80073c2:	681b      	ldr	r3, [r3, #0]
 80073c4:	681a      	ldr	r2, [r3, #0]
 80073c6:	68fb      	ldr	r3, [r7, #12]
 80073c8:	681b      	ldr	r3, [r3, #0]
 80073ca:	f442 5200 	orr.w	r2, r2, #8192	; 0x2000
 80073ce:	601a      	str	r2, [r3, #0]
        }

        hspi->State = HAL_SPI_STATE_READY;
 80073d0:	68fb      	ldr	r3, [r7, #12]
 80073d2:	2201      	movs	r2, #1
 80073d4:	f883 205d 	strb.w	r2, [r3, #93]	; 0x5d

        /* Process Unlocked */
        __HAL_UNLOCK(hspi);
 80073d8:	68fb      	ldr	r3, [r7, #12]
 80073da:	2200      	movs	r2, #0
 80073dc:	f883 205c 	strb.w	r2, [r3, #92]	; 0x5c

        return HAL_TIMEOUT;
 80073e0:	2303      	movs	r3, #3
 80073e2:	e010      	b.n	8007406 <SPI_WaitFifoStateUntilTimeout+0x11e>
      }
      /* If Systick is disabled or not incremented, deactivate timeout to go in disable loop procedure */
      if (count == 0U)
 80073e4:	69bb      	ldr	r3, [r7, #24]
 80073e6:	2b00      	cmp	r3, #0
 80073e8:	d101      	bne.n	80073ee <SPI_WaitFifoStateUntilTimeout+0x106>
      {
        tmp_timeout = 0U;
 80073ea:	2300      	movs	r3, #0
 80073ec:	627b      	str	r3, [r7, #36]	; 0x24
      }
      count--;
 80073ee:	69bb      	ldr	r3, [r7, #24]
 80073f0:	3b01      	subs	r3, #1
 80073f2:	61bb      	str	r3, [r7, #24]
  while ((hspi->Instance->SR & Fifo) != State)
 80073f4:	68fb      	ldr	r3, [r7, #12]
 80073f6:	681b      	ldr	r3, [r3, #0]
 80073f8:	689a      	ldr	r2, [r3, #8]
 80073fa:	68bb      	ldr	r3, [r7, #8]
 80073fc:	4013      	ands	r3, r2
 80073fe:	687a      	ldr	r2, [r7, #4]
 8007400:	429a      	cmp	r2, r3
 8007402:	d196      	bne.n	8007332 <SPI_WaitFifoStateUntilTimeout+0x4a>
    }
  }

  return HAL_OK;
 8007404:	2300      	movs	r3, #0
}
 8007406:	4618      	mov	r0, r3
 8007408:	3728      	adds	r7, #40	; 0x28
 800740a:	46bd      	mov	sp, r7
 800740c:	bd80      	pop	{r7, pc}
 800740e:	bf00      	nop
 8007410:	20000134 	.word	0x20000134

08007414 <SPI_EndRxTxTransaction>:
  * @param  Timeout Timeout duration
  * @param  Tickstart tick start value
  * @retval HAL status
  */
static HAL_StatusTypeDef SPI_EndRxTxTransaction(SPI_HandleTypeDef *hspi, uint32_t Timeout, uint32_t Tickstart)
{
 8007414:	b580      	push	{r7, lr}
 8007416:	b088      	sub	sp, #32
 8007418:	af02      	add	r7, sp, #8
 800741a:	60f8      	str	r0, [r7, #12]
 800741c:	60b9      	str	r1, [r7, #8]
 800741e:	607a      	str	r2, [r7, #4]
  /* Control if the TX fifo is empty */
  if (SPI_WaitFifoStateUntilTimeout(hspi, SPI_FLAG_FTLVL, SPI_FTLVL_EMPTY, Timeout, Tickstart) != HAL_OK)
 8007420:	687b      	ldr	r3, [r7, #4]
 8007422:	9300      	str	r3, [sp, #0]
 8007424:	68bb      	ldr	r3, [r7, #8]
 8007426:	2200      	movs	r2, #0
 8007428:	f44f 51c0 	mov.w	r1, #6144	; 0x1800
 800742c:	68f8      	ldr	r0, [r7, #12]
 800742e:	f7ff ff5b 	bl	80072e8 <SPI_WaitFifoStateUntilTimeout>
 8007432:	4603      	mov	r3, r0
 8007434:	2b00      	cmp	r3, #0
 8007436:	d007      	beq.n	8007448 <SPI_EndRxTxTransaction+0x34>
  {
    SET_BIT(hspi->ErrorCode, HAL_SPI_ERROR_FLAG);
 8007438:	68fb      	ldr	r3, [r7, #12]
 800743a:	6e1b      	ldr	r3, [r3, #96]	; 0x60
 800743c:	f043 0220 	orr.w	r2, r3, #32
 8007440:	68fb      	ldr	r3, [r7, #12]
 8007442:	661a      	str	r2, [r3, #96]	; 0x60
    return HAL_TIMEOUT;
 8007444:	2303      	movs	r3, #3
 8007446:	e046      	b.n	80074d6 <SPI_EndRxTxTransaction+0xc2>
  }

  /* Timeout in µs */
  __IO uint32_t count = SPI_BSY_FLAG_WORKAROUND_TIMEOUT * (SystemCoreClock / 24U / 1000000U);
 8007448:	4b25      	ldr	r3, [pc, #148]	; (80074e0 <SPI_EndRxTxTransaction+0xcc>)
 800744a:	681b      	ldr	r3, [r3, #0]
 800744c:	4a25      	ldr	r2, [pc, #148]	; (80074e4 <SPI_EndRxTxTransaction+0xd0>)
 800744e:	fba2 2303 	umull	r2, r3, r2, r3
 8007452:	0d5b      	lsrs	r3, r3, #21
 8007454:	f44f 727a 	mov.w	r2, #1000	; 0x3e8
 8007458:	fb02 f303 	mul.w	r3, r2, r3
 800745c:	617b      	str	r3, [r7, #20]
  /* Erratasheet: BSY bit may stay high at the end of a data transfer in Slave mode */
  if (hspi->Init.Mode == SPI_MODE_MASTER)
 800745e:	68fb      	ldr	r3, [r7, #12]
 8007460:	685b      	ldr	r3, [r3, #4]
 8007462:	f5b3 7f82 	cmp.w	r3, #260	; 0x104
 8007466:	d112      	bne.n	800748e <SPI_EndRxTxTransaction+0x7a>
  {
    /* Control the BSY flag */
    if (SPI_WaitFlagStateUntilTimeout(hspi, SPI_FLAG_BSY, RESET, Timeout, Tickstart) != HAL_OK)
 8007468:	687b      	ldr	r3, [r7, #4]
 800746a:	9300      	str	r3, [sp, #0]
 800746c:	68bb      	ldr	r3, [r7, #8]
 800746e:	2200      	movs	r2, #0
 8007470:	2180      	movs	r1, #128	; 0x80
 8007472:	68f8      	ldr	r0, [r7, #12]
 8007474:	f7ff feb0 	bl	80071d8 <SPI_WaitFlagStateUntilTimeout>
 8007478:	4603      	mov	r3, r0
 800747a:	2b00      	cmp	r3, #0
 800747c:	d016      	beq.n	80074ac <SPI_EndRxTxTransaction+0x98>
    {
      SET_BIT(hspi->ErrorCode, HAL_SPI_ERROR_FLAG);
 800747e:	68fb      	ldr	r3, [r7, #12]
 8007480:	6e1b      	ldr	r3, [r3, #96]	; 0x60
 8007482:	f043 0220 	orr.w	r2, r3, #32
 8007486:	68fb      	ldr	r3, [r7, #12]
 8007488:	661a      	str	r2, [r3, #96]	; 0x60
      return HAL_TIMEOUT;
 800748a:	2303      	movs	r3, #3
 800748c:	e023      	b.n	80074d6 <SPI_EndRxTxTransaction+0xc2>
    * User have to calculate the timeout value to fit with the time of 1 byte transfer.
    * This time is directly link with the SPI clock from Master device.
    */
    do
    {
      if (count == 0U)
 800748e:	697b      	ldr	r3, [r7, #20]
 8007490:	2b00      	cmp	r3, #0
 8007492:	d00a      	beq.n	80074aa <SPI_EndRxTxTransaction+0x96>
      {
        break;
      }
      count--;
 8007494:	697b      	ldr	r3, [r7, #20]
 8007496:	3b01      	subs	r3, #1
 8007498:	617b      	str	r3, [r7, #20]
    } while (__HAL_SPI_GET_FLAG(hspi, SPI_FLAG_BSY) != RESET);
 800749a:	68fb      	ldr	r3, [r7, #12]
 800749c:	681b      	ldr	r3, [r3, #0]
 800749e:	689b      	ldr	r3, [r3, #8]
 80074a0:	f003 0380 	and.w	r3, r3, #128	; 0x80
 80074a4:	2b80      	cmp	r3, #128	; 0x80
 80074a6:	d0f2      	beq.n	800748e <SPI_EndRxTxTransaction+0x7a>
 80074a8:	e000      	b.n	80074ac <SPI_EndRxTxTransaction+0x98>
        break;
 80074aa:	bf00      	nop
  }


  /* Control if the RX fifo is empty */
  if (SPI_WaitFifoStateUntilTimeout(hspi, SPI_FLAG_FRLVL, SPI_FRLVL_EMPTY, Timeout, Tickstart) != HAL_OK)
 80074ac:	687b      	ldr	r3, [r7, #4]
 80074ae:	9300      	str	r3, [sp, #0]
 80074b0:	68bb      	ldr	r3, [r7, #8]
 80074b2:	2200      	movs	r2, #0
 80074b4:	f44f 61c0 	mov.w	r1, #1536	; 0x600
 80074b8:	68f8      	ldr	r0, [r7, #12]
 80074ba:	f7ff ff15 	bl	80072e8 <SPI_WaitFifoStateUntilTimeout>
 80074be:	4603      	mov	r3, r0
 80074c0:	2b00      	cmp	r3, #0
 80074c2:	d007      	beq.n	80074d4 <SPI_EndRxTxTransaction+0xc0>
  {
    SET_BIT(hspi->ErrorCode, HAL_SPI_ERROR_FLAG);
 80074c4:	68fb      	ldr	r3, [r7, #12]
 80074c6:	6e1b      	ldr	r3, [r3, #96]	; 0x60
 80074c8:	f043 0220 	orr.w	r2, r3, #32
 80074cc:	68fb      	ldr	r3, [r7, #12]
 80074ce:	661a      	str	r2, [r3, #96]	; 0x60
    return HAL_TIMEOUT;
 80074d0:	2303      	movs	r3, #3
 80074d2:	e000      	b.n	80074d6 <SPI_EndRxTxTransaction+0xc2>
  }

  return HAL_OK;
 80074d4:	2300      	movs	r3, #0
}
 80074d6:	4618      	mov	r0, r3
 80074d8:	3718      	adds	r7, #24
 80074da:	46bd      	mov	sp, r7
 80074dc:	bd80      	pop	{r7, pc}
 80074de:	bf00      	nop
 80074e0:	20000134 	.word	0x20000134
 80074e4:	165e9f81 	.word	0x165e9f81

080074e8 <HAL_TIM_Base_Init>:
  *         Ex: call @ref HAL_TIM_Base_DeInit() before HAL_TIM_Base_Init()
  * @param  htim TIM Base handle
  * @retval HAL status
  */
HAL_StatusTypeDef HAL_TIM_Base_Init(TIM_HandleTypeDef *htim)
{
 80074e8:	b580      	push	{r7, lr}
 80074ea:	b082      	sub	sp, #8
 80074ec:	af00      	add	r7, sp, #0
 80074ee:	6078      	str	r0, [r7, #4]
  /* Check the TIM handle allocation */
  if (htim == NULL)
 80074f0:	687b      	ldr	r3, [r7, #4]
 80074f2:	2b00      	cmp	r3, #0
 80074f4:	d101      	bne.n	80074fa <HAL_TIM_Base_Init+0x12>
  {
    return HAL_ERROR;
 80074f6:	2301      	movs	r3, #1
 80074f8:	e054      	b.n	80075a4 <HAL_TIM_Base_Init+0xbc>
  assert_param(IS_TIM_COUNTER_MODE(htim->Init.CounterMode));
  assert_param(IS_TIM_CLOCKDIVISION_DIV(htim->Init.ClockDivision));
  assert_param(IS_TIM_PERIOD(htim, htim->Init.Period));
  assert_param(IS_TIM_AUTORELOAD_PRELOAD(htim->Init.AutoReloadPreload));

  if (htim->State == HAL_TIM_STATE_RESET)
 80074fa:	687b      	ldr	r3, [r7, #4]
 80074fc:	f893 303d 	ldrb.w	r3, [r3, #61]	; 0x3d
 8007500:	b2db      	uxtb	r3, r3
 8007502:	2b00      	cmp	r3, #0
 8007504:	d111      	bne.n	800752a <HAL_TIM_Base_Init+0x42>
  {
    /* Allocate lock resource and initialize it */
    htim->Lock = HAL_UNLOCKED;
 8007506:	687b      	ldr	r3, [r7, #4]
 8007508:	2200      	movs	r2, #0
 800750a:	f883 203c 	strb.w	r2, [r3, #60]	; 0x3c

#if (USE_HAL_TIM_REGISTER_CALLBACKS == 1)
    /* Reset interrupt callbacks to legacy weak callbacks */
    TIM_ResetCallback(htim);
 800750e:	6878      	ldr	r0, [r7, #4]
 8007510:	f000 fdf2 	bl	80080f8 <TIM_ResetCallback>

    if (htim->Base_MspInitCallback == NULL)
 8007514:	687b      	ldr	r3, [r7, #4]
 8007516:	6cdb      	ldr	r3, [r3, #76]	; 0x4c
 8007518:	2b00      	cmp	r3, #0
 800751a:	d102      	bne.n	8007522 <HAL_TIM_Base_Init+0x3a>
    {
      htim->Base_MspInitCallback = HAL_TIM_Base_MspInit;
 800751c:	687b      	ldr	r3, [r7, #4]
 800751e:	4a23      	ldr	r2, [pc, #140]	; (80075ac <HAL_TIM_Base_Init+0xc4>)
 8007520:	64da      	str	r2, [r3, #76]	; 0x4c
    }
    /* Init the low level hardware : GPIO, CLOCK, NVIC */
    htim->Base_MspInitCallback(htim);
 8007522:	687b      	ldr	r3, [r7, #4]
 8007524:	6cdb      	ldr	r3, [r3, #76]	; 0x4c
 8007526:	6878      	ldr	r0, [r7, #4]
 8007528:	4798      	blx	r3
    HAL_TIM_Base_MspInit(htim);
#endif /* USE_HAL_TIM_REGISTER_CALLBACKS */
  }

  /* Set the TIM state */
  htim->State = HAL_TIM_STATE_BUSY;
 800752a:	687b      	ldr	r3, [r7, #4]
 800752c:	2202      	movs	r2, #2
 800752e:	f883 203d 	strb.w	r2, [r3, #61]	; 0x3d

  /* Set the Time Base configuration */
  TIM_Base_SetConfig(htim->Instance, &htim->Init);
 8007532:	687b      	ldr	r3, [r7, #4]
 8007534:	681a      	ldr	r2, [r3, #0]
 8007536:	687b      	ldr	r3, [r7, #4]
 8007538:	3304      	adds	r3, #4
 800753a:	4619      	mov	r1, r3
 800753c:	4610      	mov	r0, r2
 800753e:	f000 fca1 	bl	8007e84 <TIM_Base_SetConfig>

  /* Initialize the DMA burst operation state */
  htim->DMABurstState = HAL_DMA_BURST_STATE_READY;
 8007542:	687b      	ldr	r3, [r7, #4]
 8007544:	2201      	movs	r2, #1
 8007546:	f883 2048 	strb.w	r2, [r3, #72]	; 0x48

  /* Initialize the TIM channels state */
  TIM_CHANNEL_STATE_SET_ALL(htim, HAL_TIM_CHANNEL_STATE_READY);
 800754a:	687b      	ldr	r3, [r7, #4]
 800754c:	2201      	movs	r2, #1
 800754e:	f883 203e 	strb.w	r2, [r3, #62]	; 0x3e
 8007552:	687b      	ldr	r3, [r7, #4]
 8007554:	2201      	movs	r2, #1
 8007556:	f883 203f 	strb.w	r2, [r3, #63]	; 0x3f
 800755a:	687b      	ldr	r3, [r7, #4]
 800755c:	2201      	movs	r2, #1
 800755e:	f883 2040 	strb.w	r2, [r3, #64]	; 0x40
 8007562:	687b      	ldr	r3, [r7, #4]
 8007564:	2201      	movs	r2, #1
 8007566:	f883 2041 	strb.w	r2, [r3, #65]	; 0x41
 800756a:	687b      	ldr	r3, [r7, #4]
 800756c:	2201      	movs	r2, #1
 800756e:	f883 2042 	strb.w	r2, [r3, #66]	; 0x42
 8007572:	687b      	ldr	r3, [r7, #4]
 8007574:	2201      	movs	r2, #1
 8007576:	f883 2043 	strb.w	r2, [r3, #67]	; 0x43
  TIM_CHANNEL_N_STATE_SET_ALL(htim, HAL_TIM_CHANNEL_STATE_READY);
 800757a:	687b      	ldr	r3, [r7, #4]
 800757c:	2201      	movs	r2, #1
 800757e:	f883 2044 	strb.w	r2, [r3, #68]	; 0x44
 8007582:	687b      	ldr	r3, [r7, #4]
 8007584:	2201      	movs	r2, #1
 8007586:	f883 2045 	strb.w	r2, [r3, #69]	; 0x45
 800758a:	687b      	ldr	r3, [r7, #4]
 800758c:	2201      	movs	r2, #1
 800758e:	f883 2046 	strb.w	r2, [r3, #70]	; 0x46
 8007592:	687b      	ldr	r3, [r7, #4]
 8007594:	2201      	movs	r2, #1
 8007596:	f883 2047 	strb.w	r2, [r3, #71]	; 0x47

  /* Initialize the TIM state*/
  htim->State = HAL_TIM_STATE_READY;
 800759a:	687b      	ldr	r3, [r7, #4]
 800759c:	2201      	movs	r2, #1
 800759e:	f883 203d 	strb.w	r2, [r3, #61]	; 0x3d

  return HAL_OK;
 80075a2:	2300      	movs	r3, #0
}
 80075a4:	4618      	mov	r0, r3
 80075a6:	3708      	adds	r7, #8
 80075a8:	46bd      	mov	sp, r7
 80075aa:	bd80      	pop	{r7, pc}
 80075ac:	080046dd 	.word	0x080046dd

080075b0 <HAL_TIM_Base_Start_IT>:
  * @brief  Starts the TIM Base generation in interrupt mode.
  * @param  htim TIM Base handle
  * @retval HAL status
  */
HAL_StatusTypeDef HAL_TIM_Base_Start_IT(TIM_HandleTypeDef *htim)
{
 80075b0:	b480      	push	{r7}
 80075b2:	b085      	sub	sp, #20
 80075b4:	af00      	add	r7, sp, #0
 80075b6:	6078      	str	r0, [r7, #4]

  /* Check the parameters */
  assert_param(IS_TIM_INSTANCE(htim->Instance));

  /* Check the TIM state */
  if (htim->State != HAL_TIM_STATE_READY)
 80075b8:	687b      	ldr	r3, [r7, #4]
 80075ba:	f893 303d 	ldrb.w	r3, [r3, #61]	; 0x3d
 80075be:	b2db      	uxtb	r3, r3
 80075c0:	2b01      	cmp	r3, #1
 80075c2:	d001      	beq.n	80075c8 <HAL_TIM_Base_Start_IT+0x18>
  {
    return HAL_ERROR;
 80075c4:	2301      	movs	r3, #1
 80075c6:	e054      	b.n	8007672 <HAL_TIM_Base_Start_IT+0xc2>
  }

  /* Set the TIM state */
  htim->State = HAL_TIM_STATE_BUSY;
 80075c8:	687b      	ldr	r3, [r7, #4]
 80075ca:	2202      	movs	r2, #2
 80075cc:	f883 203d 	strb.w	r2, [r3, #61]	; 0x3d

  /* Enable the TIM Update interrupt */
  __HAL_TIM_ENABLE_IT(htim, TIM_IT_UPDATE);
 80075d0:	687b      	ldr	r3, [r7, #4]
 80075d2:	681b      	ldr	r3, [r3, #0]
 80075d4:	68da      	ldr	r2, [r3, #12]
 80075d6:	687b      	ldr	r3, [r7, #4]
 80075d8:	681b      	ldr	r3, [r3, #0]
 80075da:	f042 0201 	orr.w	r2, r2, #1
 80075de:	60da      	str	r2, [r3, #12]

  /* Enable the Peripheral, except in trigger mode where enable is automatically done with trigger */
  if (IS_TIM_SLAVE_INSTANCE(htim->Instance))
 80075e0:	687b      	ldr	r3, [r7, #4]
 80075e2:	681b      	ldr	r3, [r3, #0]
 80075e4:	4a26      	ldr	r2, [pc, #152]	; (8007680 <HAL_TIM_Base_Start_IT+0xd0>)
 80075e6:	4293      	cmp	r3, r2
 80075e8:	d022      	beq.n	8007630 <HAL_TIM_Base_Start_IT+0x80>
 80075ea:	687b      	ldr	r3, [r7, #4]
 80075ec:	681b      	ldr	r3, [r3, #0]
 80075ee:	f1b3 4f80 	cmp.w	r3, #1073741824	; 0x40000000
 80075f2:	d01d      	beq.n	8007630 <HAL_TIM_Base_Start_IT+0x80>
 80075f4:	687b      	ldr	r3, [r7, #4]
 80075f6:	681b      	ldr	r3, [r3, #0]
 80075f8:	4a22      	ldr	r2, [pc, #136]	; (8007684 <HAL_TIM_Base_Start_IT+0xd4>)
 80075fa:	4293      	cmp	r3, r2
 80075fc:	d018      	beq.n	8007630 <HAL_TIM_Base_Start_IT+0x80>
 80075fe:	687b      	ldr	r3, [r7, #4]
 8007600:	681b      	ldr	r3, [r3, #0]
 8007602:	4a21      	ldr	r2, [pc, #132]	; (8007688 <HAL_TIM_Base_Start_IT+0xd8>)
 8007604:	4293      	cmp	r3, r2
 8007606:	d013      	beq.n	8007630 <HAL_TIM_Base_Start_IT+0x80>
 8007608:	687b      	ldr	r3, [r7, #4]
 800760a:	681b      	ldr	r3, [r3, #0]
 800760c:	4a1f      	ldr	r2, [pc, #124]	; (800768c <HAL_TIM_Base_Start_IT+0xdc>)
 800760e:	4293      	cmp	r3, r2
 8007610:	d00e      	beq.n	8007630 <HAL_TIM_Base_Start_IT+0x80>
 8007612:	687b      	ldr	r3, [r7, #4]
 8007614:	681b      	ldr	r3, [r3, #0]
 8007616:	4a1e      	ldr	r2, [pc, #120]	; (8007690 <HAL_TIM_Base_Start_IT+0xe0>)
 8007618:	4293      	cmp	r3, r2
 800761a:	d009      	beq.n	8007630 <HAL_TIM_Base_Start_IT+0x80>
 800761c:	687b      	ldr	r3, [r7, #4]
 800761e:	681b      	ldr	r3, [r3, #0]
 8007620:	4a1c      	ldr	r2, [pc, #112]	; (8007694 <HAL_TIM_Base_Start_IT+0xe4>)
 8007622:	4293      	cmp	r3, r2
 8007624:	d004      	beq.n	8007630 <HAL_TIM_Base_Start_IT+0x80>
 8007626:	687b      	ldr	r3, [r7, #4]
 8007628:	681b      	ldr	r3, [r3, #0]
 800762a:	4a1b      	ldr	r2, [pc, #108]	; (8007698 <HAL_TIM_Base_Start_IT+0xe8>)
 800762c:	4293      	cmp	r3, r2
 800762e:	d115      	bne.n	800765c <HAL_TIM_Base_Start_IT+0xac>
  {
    tmpsmcr = htim->Instance->SMCR & TIM_SMCR_SMS;
 8007630:	687b      	ldr	r3, [r7, #4]
 8007632:	681b      	ldr	r3, [r3, #0]
 8007634:	689a      	ldr	r2, [r3, #8]
 8007636:	4b19      	ldr	r3, [pc, #100]	; (800769c <HAL_TIM_Base_Start_IT+0xec>)
 8007638:	4013      	ands	r3, r2
 800763a:	60fb      	str	r3, [r7, #12]
    if (!IS_TIM_SLAVEMODE_TRIGGER_ENABLED(tmpsmcr))
 800763c:	68fb      	ldr	r3, [r7, #12]
 800763e:	2b06      	cmp	r3, #6
 8007640:	d015      	beq.n	800766e <HAL_TIM_Base_Start_IT+0xbe>
 8007642:	68fb      	ldr	r3, [r7, #12]
 8007644:	f5b3 3f80 	cmp.w	r3, #65536	; 0x10000
 8007648:	d011      	beq.n	800766e <HAL_TIM_Base_Start_IT+0xbe>
    {
      __HAL_TIM_ENABLE(htim);
 800764a:	687b      	ldr	r3, [r7, #4]
 800764c:	681b      	ldr	r3, [r3, #0]
 800764e:	681a      	ldr	r2, [r3, #0]
 8007650:	687b      	ldr	r3, [r7, #4]
 8007652:	681b      	ldr	r3, [r3, #0]
 8007654:	f042 0201 	orr.w	r2, r2, #1
 8007658:	601a      	str	r2, [r3, #0]
    if (!IS_TIM_SLAVEMODE_TRIGGER_ENABLED(tmpsmcr))
 800765a:	e008      	b.n	800766e <HAL_TIM_Base_Start_IT+0xbe>
    }
  }
  else
  {
    __HAL_TIM_ENABLE(htim);
 800765c:	687b      	ldr	r3, [r7, #4]
 800765e:	681b      	ldr	r3, [r3, #0]
 8007660:	681a      	ldr	r2, [r3, #0]
 8007662:	687b      	ldr	r3, [r7, #4]
 8007664:	681b      	ldr	r3, [r3, #0]
 8007666:	f042 0201 	orr.w	r2, r2, #1
 800766a:	601a      	str	r2, [r3, #0]
 800766c:	e000      	b.n	8007670 <HAL_TIM_Base_Start_IT+0xc0>
    if (!IS_TIM_SLAVEMODE_TRIGGER_ENABLED(tmpsmcr))
 800766e:	bf00      	nop
  }

  /* Return function status */
  return HAL_OK;
 8007670:	2300      	movs	r3, #0
}
 8007672:	4618      	mov	r0, r3
 8007674:	3714      	adds	r7, #20
 8007676:	46bd      	mov	sp, r7
 8007678:	f85d 7b04 	ldr.w	r7, [sp], #4
 800767c:	4770      	bx	lr
 800767e:	bf00      	nop
 8007680:	40010000 	.word	0x40010000
 8007684:	40000400 	.word	0x40000400
 8007688:	40000800 	.word	0x40000800
 800768c:	40000c00 	.word	0x40000c00
 8007690:	40010400 	.word	0x40010400
 8007694:	40014000 	.word	0x40014000
 8007698:	40001800 	.word	0x40001800
 800769c:	00010007 	.word	0x00010007

080076a0 <HAL_TIM_Base_Stop_IT>:
  * @brief  Stops the TIM Base generation in interrupt mode.
  * @param  htim TIM Base handle
  * @retval HAL status
  */
HAL_StatusTypeDef HAL_TIM_Base_Stop_IT(TIM_HandleTypeDef *htim)
{
 80076a0:	b480      	push	{r7}
 80076a2:	b083      	sub	sp, #12
 80076a4:	af00      	add	r7, sp, #0
 80076a6:	6078      	str	r0, [r7, #4]
  /* Check the parameters */
  assert_param(IS_TIM_INSTANCE(htim->Instance));

  /* Disable the TIM Update interrupt */
  __HAL_TIM_DISABLE_IT(htim, TIM_IT_UPDATE);
 80076a8:	687b      	ldr	r3, [r7, #4]
 80076aa:	681b      	ldr	r3, [r3, #0]
 80076ac:	68da      	ldr	r2, [r3, #12]
 80076ae:	687b      	ldr	r3, [r7, #4]
 80076b0:	681b      	ldr	r3, [r3, #0]
 80076b2:	f022 0201 	bic.w	r2, r2, #1
 80076b6:	60da      	str	r2, [r3, #12]

  /* Disable the Peripheral */
  __HAL_TIM_DISABLE(htim);
 80076b8:	687b      	ldr	r3, [r7, #4]
 80076ba:	681b      	ldr	r3, [r3, #0]
 80076bc:	6a1a      	ldr	r2, [r3, #32]
 80076be:	f241 1311 	movw	r3, #4369	; 0x1111
 80076c2:	4013      	ands	r3, r2
 80076c4:	2b00      	cmp	r3, #0
 80076c6:	d10f      	bne.n	80076e8 <HAL_TIM_Base_Stop_IT+0x48>
 80076c8:	687b      	ldr	r3, [r7, #4]
 80076ca:	681b      	ldr	r3, [r3, #0]
 80076cc:	6a1a      	ldr	r2, [r3, #32]
 80076ce:	f240 4344 	movw	r3, #1092	; 0x444
 80076d2:	4013      	ands	r3, r2
 80076d4:	2b00      	cmp	r3, #0
 80076d6:	d107      	bne.n	80076e8 <HAL_TIM_Base_Stop_IT+0x48>
 80076d8:	687b      	ldr	r3, [r7, #4]
 80076da:	681b      	ldr	r3, [r3, #0]
 80076dc:	681a      	ldr	r2, [r3, #0]
 80076de:	687b      	ldr	r3, [r7, #4]
 80076e0:	681b      	ldr	r3, [r3, #0]
 80076e2:	f022 0201 	bic.w	r2, r2, #1
 80076e6:	601a      	str	r2, [r3, #0]

  /* Set the TIM state */
  htim->State = HAL_TIM_STATE_READY;
 80076e8:	687b      	ldr	r3, [r7, #4]
 80076ea:	2201      	movs	r2, #1
 80076ec:	f883 203d 	strb.w	r2, [r3, #61]	; 0x3d

  /* Return function status */
  return HAL_OK;
 80076f0:	2300      	movs	r3, #0
}
 80076f2:	4618      	mov	r0, r3
 80076f4:	370c      	adds	r7, #12
 80076f6:	46bd      	mov	sp, r7
 80076f8:	f85d 7b04 	ldr.w	r7, [sp], #4
 80076fc:	4770      	bx	lr

080076fe <HAL_TIM_IRQHandler>:
  * @brief  This function handles TIM interrupts requests.
  * @param  htim TIM  handle
  * @retval None
  */
void HAL_TIM_IRQHandler(TIM_HandleTypeDef *htim)
{
 80076fe:	b580      	push	{r7, lr}
 8007700:	b082      	sub	sp, #8
 8007702:	af00      	add	r7, sp, #0
 8007704:	6078      	str	r0, [r7, #4]
  /* Capture compare 1 event */
  if (__HAL_TIM_GET_FLAG(htim, TIM_FLAG_CC1) != RESET)
 8007706:	687b      	ldr	r3, [r7, #4]
 8007708:	681b      	ldr	r3, [r3, #0]
 800770a:	691b      	ldr	r3, [r3, #16]
 800770c:	f003 0302 	and.w	r3, r3, #2
 8007710:	2b02      	cmp	r3, #2
 8007712:	d128      	bne.n	8007766 <HAL_TIM_IRQHandler+0x68>
  {
    if (__HAL_TIM_GET_IT_SOURCE(htim, TIM_IT_CC1) != RESET)
 8007714:	687b      	ldr	r3, [r7, #4]
 8007716:	681b      	ldr	r3, [r3, #0]
 8007718:	68db      	ldr	r3, [r3, #12]
 800771a:	f003 0302 	and.w	r3, r3, #2
 800771e:	2b02      	cmp	r3, #2
 8007720:	d121      	bne.n	8007766 <HAL_TIM_IRQHandler+0x68>
    {
      {
        __HAL_TIM_CLEAR_IT(htim, TIM_IT_CC1);
 8007722:	687b      	ldr	r3, [r7, #4]
 8007724:	681b      	ldr	r3, [r3, #0]
 8007726:	f06f 0202 	mvn.w	r2, #2
 800772a:	611a      	str	r2, [r3, #16]
        htim->Channel = HAL_TIM_ACTIVE_CHANNEL_1;
 800772c:	687b      	ldr	r3, [r7, #4]
 800772e:	2201      	movs	r2, #1
 8007730:	771a      	strb	r2, [r3, #28]

        /* Input capture event */
        if ((htim->Instance->CCMR1 & TIM_CCMR1_CC1S) != 0x00U)
 8007732:	687b      	ldr	r3, [r7, #4]
 8007734:	681b      	ldr	r3, [r3, #0]
 8007736:	699b      	ldr	r3, [r3, #24]
 8007738:	f003 0303 	and.w	r3, r3, #3
 800773c:	2b00      	cmp	r3, #0
 800773e:	d005      	beq.n	800774c <HAL_TIM_IRQHandler+0x4e>
        {
#if (USE_HAL_TIM_REGISTER_CALLBACKS == 1)
          htim->IC_CaptureCallback(htim);
 8007740:	687b      	ldr	r3, [r7, #4]
 8007742:	f8d3 3094 	ldr.w	r3, [r3, #148]	; 0x94
 8007746:	6878      	ldr	r0, [r7, #4]
 8007748:	4798      	blx	r3
 800774a:	e009      	b.n	8007760 <HAL_TIM_IRQHandler+0x62>
        }
        /* Output compare event */
        else
        {
#if (USE_HAL_TIM_REGISTER_CALLBACKS == 1)
          htim->OC_DelayElapsedCallback(htim);
 800774c:	687b      	ldr	r3, [r7, #4]
 800774e:	f8d3 309c 	ldr.w	r3, [r3, #156]	; 0x9c
 8007752:	6878      	ldr	r0, [r7, #4]
 8007754:	4798      	blx	r3
          htim->PWM_PulseFinishedCallback(htim);
 8007756:	687b      	ldr	r3, [r7, #4]
 8007758:	f8d3 30a0 	ldr.w	r3, [r3, #160]	; 0xa0
 800775c:	6878      	ldr	r0, [r7, #4]
 800775e:	4798      	blx	r3
#else
          HAL_TIM_OC_DelayElapsedCallback(htim);
          HAL_TIM_PWM_PulseFinishedCallback(htim);
#endif /* USE_HAL_TIM_REGISTER_CALLBACKS */
        }
        htim->Channel = HAL_TIM_ACTIVE_CHANNEL_CLEARED;
 8007760:	687b      	ldr	r3, [r7, #4]
 8007762:	2200      	movs	r2, #0
 8007764:	771a      	strb	r2, [r3, #28]
      }
    }
  }
  /* Capture compare 2 event */
  if (__HAL_TIM_GET_FLAG(htim, TIM_FLAG_CC2) != RESET)
 8007766:	687b      	ldr	r3, [r7, #4]
 8007768:	681b      	ldr	r3, [r3, #0]
 800776a:	691b      	ldr	r3, [r3, #16]
 800776c:	f003 0304 	and.w	r3, r3, #4
 8007770:	2b04      	cmp	r3, #4
 8007772:	d128      	bne.n	80077c6 <HAL_TIM_IRQHandler+0xc8>
  {
    if (__HAL_TIM_GET_IT_SOURCE(htim, TIM_IT_CC2) != RESET)
 8007774:	687b      	ldr	r3, [r7, #4]
 8007776:	681b      	ldr	r3, [r3, #0]
 8007778:	68db      	ldr	r3, [r3, #12]
 800777a:	f003 0304 	and.w	r3, r3, #4
 800777e:	2b04      	cmp	r3, #4
 8007780:	d121      	bne.n	80077c6 <HAL_TIM_IRQHandler+0xc8>
    {
      __HAL_TIM_CLEAR_IT(htim, TIM_IT_CC2);
 8007782:	687b      	ldr	r3, [r7, #4]
 8007784:	681b      	ldr	r3, [r3, #0]
 8007786:	f06f 0204 	mvn.w	r2, #4
 800778a:	611a      	str	r2, [r3, #16]
      htim->Channel = HAL_TIM_ACTIVE_CHANNEL_2;
 800778c:	687b      	ldr	r3, [r7, #4]
 800778e:	2202      	movs	r2, #2
 8007790:	771a      	strb	r2, [r3, #28]
      /* Input capture event */
      if ((htim->Instance->CCMR1 & TIM_CCMR1_CC2S) != 0x00U)
 8007792:	687b      	ldr	r3, [r7, #4]
 8007794:	681b      	ldr	r3, [r3, #0]
 8007796:	699b      	ldr	r3, [r3, #24]
 8007798:	f403 7340 	and.w	r3, r3, #768	; 0x300
 800779c:	2b00      	cmp	r3, #0
 800779e:	d005      	beq.n	80077ac <HAL_TIM_IRQHandler+0xae>
      {
#if (USE_HAL_TIM_REGISTER_CALLBACKS == 1)
        htim->IC_CaptureCallback(htim);
 80077a0:	687b      	ldr	r3, [r7, #4]
 80077a2:	f8d3 3094 	ldr.w	r3, [r3, #148]	; 0x94
 80077a6:	6878      	ldr	r0, [r7, #4]
 80077a8:	4798      	blx	r3
 80077aa:	e009      	b.n	80077c0 <HAL_TIM_IRQHandler+0xc2>
      }
      /* Output compare event */
      else
      {
#if (USE_HAL_TIM_REGISTER_CALLBACKS == 1)
        htim->OC_DelayElapsedCallback(htim);
 80077ac:	687b      	ldr	r3, [r7, #4]
 80077ae:	f8d3 309c 	ldr.w	r3, [r3, #156]	; 0x9c
 80077b2:	6878      	ldr	r0, [r7, #4]
 80077b4:	4798      	blx	r3
        htim->PWM_PulseFinishedCallback(htim);
 80077b6:	687b      	ldr	r3, [r7, #4]
 80077b8:	f8d3 30a0 	ldr.w	r3, [r3, #160]	; 0xa0
 80077bc:	6878      	ldr	r0, [r7, #4]
 80077be:	4798      	blx	r3
#else
        HAL_TIM_OC_DelayElapsedCallback(htim);
        HAL_TIM_PWM_PulseFinishedCallback(htim);
#endif /* USE_HAL_TIM_REGISTER_CALLBACKS */
      }
      htim->Channel = HAL_TIM_ACTIVE_CHANNEL_CLEARED;
 80077c0:	687b      	ldr	r3, [r7, #4]
 80077c2:	2200      	movs	r2, #0
 80077c4:	771a      	strb	r2, [r3, #28]
    }
  }
  /* Capture compare 3 event */
  if (__HAL_TIM_GET_FLAG(htim, TIM_FLAG_CC3) != RESET)
 80077c6:	687b      	ldr	r3, [r7, #4]
 80077c8:	681b      	ldr	r3, [r3, #0]
 80077ca:	691b      	ldr	r3, [r3, #16]
 80077cc:	f003 0308 	and.w	r3, r3, #8
 80077d0:	2b08      	cmp	r3, #8
 80077d2:	d128      	bne.n	8007826 <HAL_TIM_IRQHandler+0x128>
  {
    if (__HAL_TIM_GET_IT_SOURCE(htim, TIM_IT_CC3) != RESET)
 80077d4:	687b      	ldr	r3, [r7, #4]
 80077d6:	681b      	ldr	r3, [r3, #0]
 80077d8:	68db      	ldr	r3, [r3, #12]
 80077da:	f003 0308 	and.w	r3, r3, #8
 80077de:	2b08      	cmp	r3, #8
 80077e0:	d121      	bne.n	8007826 <HAL_TIM_IRQHandler+0x128>
    {
      __HAL_TIM_CLEAR_IT(htim, TIM_IT_CC3);
 80077e2:	687b      	ldr	r3, [r7, #4]
 80077e4:	681b      	ldr	r3, [r3, #0]
 80077e6:	f06f 0208 	mvn.w	r2, #8
 80077ea:	611a      	str	r2, [r3, #16]
      htim->Channel = HAL_TIM_ACTIVE_CHANNEL_3;
 80077ec:	687b      	ldr	r3, [r7, #4]
 80077ee:	2204      	movs	r2, #4
 80077f0:	771a      	strb	r2, [r3, #28]
      /* Input capture event */
      if ((htim->Instance->CCMR2 & TIM_CCMR2_CC3S) != 0x00U)
 80077f2:	687b      	ldr	r3, [r7, #4]
 80077f4:	681b      	ldr	r3, [r3, #0]
 80077f6:	69db      	ldr	r3, [r3, #28]
 80077f8:	f003 0303 	and.w	r3, r3, #3
 80077fc:	2b00      	cmp	r3, #0
 80077fe:	d005      	beq.n	800780c <HAL_TIM_IRQHandler+0x10e>
      {
#if (USE_HAL_TIM_REGISTER_CALLBACKS == 1)
        htim->IC_CaptureCallback(htim);
 8007800:	687b      	ldr	r3, [r7, #4]
 8007802:	f8d3 3094 	ldr.w	r3, [r3, #148]	; 0x94
 8007806:	6878      	ldr	r0, [r7, #4]
 8007808:	4798      	blx	r3
 800780a:	e009      	b.n	8007820 <HAL_TIM_IRQHandler+0x122>
      }
      /* Output compare event */
      else
      {
#if (USE_HAL_TIM_REGISTER_CALLBACKS == 1)
        htim->OC_DelayElapsedCallback(htim);
 800780c:	687b      	ldr	r3, [r7, #4]
 800780e:	f8d3 309c 	ldr.w	r3, [r3, #156]	; 0x9c
 8007812:	6878      	ldr	r0, [r7, #4]
 8007814:	4798      	blx	r3
        htim->PWM_PulseFinishedCallback(htim);
 8007816:	687b      	ldr	r3, [r7, #4]
 8007818:	f8d3 30a0 	ldr.w	r3, [r3, #160]	; 0xa0
 800781c:	6878      	ldr	r0, [r7, #4]
 800781e:	4798      	blx	r3
#else
        HAL_TIM_OC_DelayElapsedCallback(htim);
        HAL_TIM_PWM_PulseFinishedCallback(htim);
#endif /* USE_HAL_TIM_REGISTER_CALLBACKS */
      }
      htim->Channel = HAL_TIM_ACTIVE_CHANNEL_CLEARED;
 8007820:	687b      	ldr	r3, [r7, #4]
 8007822:	2200      	movs	r2, #0
 8007824:	771a      	strb	r2, [r3, #28]
    }
  }
  /* Capture compare 4 event */
  if (__HAL_TIM_GET_FLAG(htim, TIM_FLAG_CC4) != RESET)
 8007826:	687b      	ldr	r3, [r7, #4]
 8007828:	681b      	ldr	r3, [r3, #0]
 800782a:	691b      	ldr	r3, [r3, #16]
 800782c:	f003 0310 	and.w	r3, r3, #16
 8007830:	2b10      	cmp	r3, #16
 8007832:	d128      	bne.n	8007886 <HAL_TIM_IRQHandler+0x188>
  {
    if (__HAL_TIM_GET_IT_SOURCE(htim, TIM_IT_CC4) != RESET)
 8007834:	687b      	ldr	r3, [r7, #4]
 8007836:	681b      	ldr	r3, [r3, #0]
 8007838:	68db      	ldr	r3, [r3, #12]
 800783a:	f003 0310 	and.w	r3, r3, #16
 800783e:	2b10      	cmp	r3, #16
 8007840:	d121      	bne.n	8007886 <HAL_TIM_IRQHandler+0x188>
    {
      __HAL_TIM_CLEAR_IT(htim, TIM_IT_CC4);
 8007842:	687b      	ldr	r3, [r7, #4]
 8007844:	681b      	ldr	r3, [r3, #0]
 8007846:	f06f 0210 	mvn.w	r2, #16
 800784a:	611a      	str	r2, [r3, #16]
      htim->Channel = HAL_TIM_ACTIVE_CHANNEL_4;
 800784c:	687b      	ldr	r3, [r7, #4]
 800784e:	2208      	movs	r2, #8
 8007850:	771a      	strb	r2, [r3, #28]
      /* Input capture event */
      if ((htim->Instance->CCMR2 & TIM_CCMR2_CC4S) != 0x00U)
 8007852:	687b      	ldr	r3, [r7, #4]
 8007854:	681b      	ldr	r3, [r3, #0]
 8007856:	69db      	ldr	r3, [r3, #28]
 8007858:	f403 7340 	and.w	r3, r3, #768	; 0x300
 800785c:	2b00      	cmp	r3, #0
 800785e:	d005      	beq.n	800786c <HAL_TIM_IRQHandler+0x16e>
      {
#if (USE_HAL_TIM_REGISTER_CALLBACKS == 1)
        htim->IC_CaptureCallback(htim);
 8007860:	687b      	ldr	r3, [r7, #4]
 8007862:	f8d3 3094 	ldr.w	r3, [r3, #148]	; 0x94
 8007866:	6878      	ldr	r0, [r7, #4]
 8007868:	4798      	blx	r3
 800786a:	e009      	b.n	8007880 <HAL_TIM_IRQHandler+0x182>
      }
      /* Output compare event */
      else
      {
#if (USE_HAL_TIM_REGISTER_CALLBACKS == 1)
        htim->OC_DelayElapsedCallback(htim);
 800786c:	687b      	ldr	r3, [r7, #4]
 800786e:	f8d3 309c 	ldr.w	r3, [r3, #156]	; 0x9c
 8007872:	6878      	ldr	r0, [r7, #4]
 8007874:	4798      	blx	r3
        htim->PWM_PulseFinishedCallback(htim);
 8007876:	687b      	ldr	r3, [r7, #4]
 8007878:	f8d3 30a0 	ldr.w	r3, [r3, #160]	; 0xa0
 800787c:	6878      	ldr	r0, [r7, #4]
 800787e:	4798      	blx	r3
#else
        HAL_TIM_OC_DelayElapsedCallback(htim);
        HAL_TIM_PWM_PulseFinishedCallback(htim);
#endif /* USE_HAL_TIM_REGISTER_CALLBACKS */
      }
      htim->Channel = HAL_TIM_ACTIVE_CHANNEL_CLEARED;
 8007880:	687b      	ldr	r3, [r7, #4]
 8007882:	2200      	movs	r2, #0
 8007884:	771a      	strb	r2, [r3, #28]
    }
  }
  /* TIM Update event */
  if (__HAL_TIM_GET_FLAG(htim, TIM_FLAG_UPDATE) != RESET)
 8007886:	687b      	ldr	r3, [r7, #4]
 8007888:	681b      	ldr	r3, [r3, #0]
 800788a:	691b      	ldr	r3, [r3, #16]
 800788c:	f003 0301 	and.w	r3, r3, #1
 8007890:	2b01      	cmp	r3, #1
 8007892:	d110      	bne.n	80078b6 <HAL_TIM_IRQHandler+0x1b8>
  {
    if (__HAL_TIM_GET_IT_SOURCE(htim, TIM_IT_UPDATE) != RESET)
 8007894:	687b      	ldr	r3, [r7, #4]
 8007896:	681b      	ldr	r3, [r3, #0]
 8007898:	68db      	ldr	r3, [r3, #12]
 800789a:	f003 0301 	and.w	r3, r3, #1
 800789e:	2b01      	cmp	r3, #1
 80078a0:	d109      	bne.n	80078b6 <HAL_TIM_IRQHandler+0x1b8>
    {
      __HAL_TIM_CLEAR_IT(htim, TIM_IT_UPDATE);
 80078a2:	687b      	ldr	r3, [r7, #4]
 80078a4:	681b      	ldr	r3, [r3, #0]
 80078a6:	f06f 0201 	mvn.w	r2, #1
 80078aa:	611a      	str	r2, [r3, #16]
#if (USE_HAL_TIM_REGISTER_CALLBACKS == 1)
      htim->PeriodElapsedCallback(htim);
 80078ac:	687b      	ldr	r3, [r7, #4]
 80078ae:	f8d3 3084 	ldr.w	r3, [r3, #132]	; 0x84
 80078b2:	6878      	ldr	r0, [r7, #4]
 80078b4:	4798      	blx	r3
      HAL_TIM_PeriodElapsedCallback(htim);
#endif /* USE_HAL_TIM_REGISTER_CALLBACKS */
    }
  }
  /* TIM Break input event */
  if (__HAL_TIM_GET_FLAG(htim, TIM_FLAG_BREAK) != RESET)
 80078b6:	687b      	ldr	r3, [r7, #4]
 80078b8:	681b      	ldr	r3, [r3, #0]
 80078ba:	691b      	ldr	r3, [r3, #16]
 80078bc:	f003 0380 	and.w	r3, r3, #128	; 0x80
 80078c0:	2b80      	cmp	r3, #128	; 0x80
 80078c2:	d110      	bne.n	80078e6 <HAL_TIM_IRQHandler+0x1e8>
  {
    if (__HAL_TIM_GET_IT_SOURCE(htim, TIM_IT_BREAK) != RESET)
 80078c4:	687b      	ldr	r3, [r7, #4]
 80078c6:	681b      	ldr	r3, [r3, #0]
 80078c8:	68db      	ldr	r3, [r3, #12]
 80078ca:	f003 0380 	and.w	r3, r3, #128	; 0x80
 80078ce:	2b80      	cmp	r3, #128	; 0x80
 80078d0:	d109      	bne.n	80078e6 <HAL_TIM_IRQHandler+0x1e8>
    {
      __HAL_TIM_CLEAR_IT(htim, TIM_IT_BREAK);
 80078d2:	687b      	ldr	r3, [r7, #4]
 80078d4:	681b      	ldr	r3, [r3, #0]
 80078d6:	f06f 0280 	mvn.w	r2, #128	; 0x80
 80078da:	611a      	str	r2, [r3, #16]
#if (USE_HAL_TIM_REGISTER_CALLBACKS == 1)
      htim->BreakCallback(htim);
 80078dc:	687b      	ldr	r3, [r7, #4]
 80078de:	f8d3 30b4 	ldr.w	r3, [r3, #180]	; 0xb4
 80078e2:	6878      	ldr	r0, [r7, #4]
 80078e4:	4798      	blx	r3
      HAL_TIMEx_BreakCallback(htim);
#endif /* USE_HAL_TIM_REGISTER_CALLBACKS */
    }
  }
  /* TIM Break2 input event */
  if (__HAL_TIM_GET_FLAG(htim, TIM_FLAG_BREAK2) != RESET)
 80078e6:	687b      	ldr	r3, [r7, #4]
 80078e8:	681b      	ldr	r3, [r3, #0]
 80078ea:	691b      	ldr	r3, [r3, #16]
 80078ec:	f403 7380 	and.w	r3, r3, #256	; 0x100
 80078f0:	f5b3 7f80 	cmp.w	r3, #256	; 0x100
 80078f4:	d110      	bne.n	8007918 <HAL_TIM_IRQHandler+0x21a>
  {
    if (__HAL_TIM_GET_IT_SOURCE(htim, TIM_IT_BREAK) != RESET)
 80078f6:	687b      	ldr	r3, [r7, #4]
 80078f8:	681b      	ldr	r3, [r3, #0]
 80078fa:	68db      	ldr	r3, [r3, #12]
 80078fc:	f003 0380 	and.w	r3, r3, #128	; 0x80
 8007900:	2b80      	cmp	r3, #128	; 0x80
 8007902:	d109      	bne.n	8007918 <HAL_TIM_IRQHandler+0x21a>
    {
      __HAL_TIM_CLEAR_FLAG(htim, TIM_FLAG_BREAK2);
 8007904:	687b      	ldr	r3, [r7, #4]
 8007906:	681b      	ldr	r3, [r3, #0]
 8007908:	f46f 7280 	mvn.w	r2, #256	; 0x100
 800790c:	611a      	str	r2, [r3, #16]
#if (USE_HAL_TIM_REGISTER_CALLBACKS == 1)
      htim->Break2Callback(htim);
 800790e:	687b      	ldr	r3, [r7, #4]
 8007910:	f8d3 30b8 	ldr.w	r3, [r3, #184]	; 0xb8
 8007914:	6878      	ldr	r0, [r7, #4]
 8007916:	4798      	blx	r3
      HAL_TIMEx_Break2Callback(htim);
#endif /* USE_HAL_TIM_REGISTER_CALLBACKS */
    }
  }
  /* TIM Trigger detection event */
  if (__HAL_TIM_GET_FLAG(htim, TIM_FLAG_TRIGGER) != RESET)
 8007918:	687b      	ldr	r3, [r7, #4]
 800791a:	681b      	ldr	r3, [r3, #0]
 800791c:	691b      	ldr	r3, [r3, #16]
 800791e:	f003 0340 	and.w	r3, r3, #64	; 0x40
 8007922:	2b40      	cmp	r3, #64	; 0x40
 8007924:	d110      	bne.n	8007948 <HAL_TIM_IRQHandler+0x24a>
  {
    if (__HAL_TIM_GET_IT_SOURCE(htim, TIM_IT_TRIGGER) != RESET)
 8007926:	687b      	ldr	r3, [r7, #4]
 8007928:	681b      	ldr	r3, [r3, #0]
 800792a:	68db      	ldr	r3, [r3, #12]
 800792c:	f003 0340 	and.w	r3, r3, #64	; 0x40
 8007930:	2b40      	cmp	r3, #64	; 0x40
 8007932:	d109      	bne.n	8007948 <HAL_TIM_IRQHandler+0x24a>
    {
      __HAL_TIM_CLEAR_IT(htim, TIM_IT_TRIGGER);
 8007934:	687b      	ldr	r3, [r7, #4]
 8007936:	681b      	ldr	r3, [r3, #0]
 8007938:	f06f 0240 	mvn.w	r2, #64	; 0x40
 800793c:	611a      	str	r2, [r3, #16]
#if (USE_HAL_TIM_REGISTER_CALLBACKS == 1)
      htim->TriggerCallback(htim);
 800793e:	687b      	ldr	r3, [r7, #4]
 8007940:	f8d3 308c 	ldr.w	r3, [r3, #140]	; 0x8c
 8007944:	6878      	ldr	r0, [r7, #4]
 8007946:	4798      	blx	r3
      HAL_TIM_TriggerCallback(htim);
#endif /* USE_HAL_TIM_REGISTER_CALLBACKS */
    }
  }
  /* TIM commutation event */
  if (__HAL_TIM_GET_FLAG(htim, TIM_FLAG_COM) != RESET)
 8007948:	687b      	ldr	r3, [r7, #4]
 800794a:	681b      	ldr	r3, [r3, #0]
 800794c:	691b      	ldr	r3, [r3, #16]
 800794e:	f003 0320 	and.w	r3, r3, #32
 8007952:	2b20      	cmp	r3, #32
 8007954:	d110      	bne.n	8007978 <HAL_TIM_IRQHandler+0x27a>
  {
    if (__HAL_TIM_GET_IT_SOURCE(htim, TIM_IT_COM) != RESET)
 8007956:	687b      	ldr	r3, [r7, #4]
 8007958:	681b      	ldr	r3, [r3, #0]
 800795a:	68db      	ldr	r3, [r3, #12]
 800795c:	f003 0320 	and.w	r3, r3, #32
 8007960:	2b20      	cmp	r3, #32
 8007962:	d109      	bne.n	8007978 <HAL_TIM_IRQHandler+0x27a>
    {
      __HAL_TIM_CLEAR_IT(htim, TIM_FLAG_COM);
 8007964:	687b      	ldr	r3, [r7, #4]
 8007966:	681b      	ldr	r3, [r3, #0]
 8007968:	f06f 0220 	mvn.w	r2, #32
 800796c:	611a      	str	r2, [r3, #16]
#if (USE_HAL_TIM_REGISTER_CALLBACKS == 1)
      htim->CommutationCallback(htim);
 800796e:	687b      	ldr	r3, [r7, #4]
 8007970:	f8d3 30ac 	ldr.w	r3, [r3, #172]	; 0xac
 8007974:	6878      	ldr	r0, [r7, #4]
 8007976:	4798      	blx	r3
#else
      HAL_TIMEx_CommutCallback(htim);
#endif /* USE_HAL_TIM_REGISTER_CALLBACKS */
    }
  }
}
 8007978:	bf00      	nop
 800797a:	3708      	adds	r7, #8
 800797c:	46bd      	mov	sp, r7
 800797e:	bd80      	pop	{r7, pc}

08007980 <HAL_TIM_ConfigClockSource>:
  * @param  sClockSourceConfig pointer to a TIM_ClockConfigTypeDef structure that
  *         contains the clock source information for the TIM peripheral.
  * @retval HAL status
  */
HAL_StatusTypeDef HAL_TIM_ConfigClockSource(TIM_HandleTypeDef *htim, const TIM_ClockConfigTypeDef *sClockSourceConfig)
{
 8007980:	b580      	push	{r7, lr}
 8007982:	b084      	sub	sp, #16
 8007984:	af00      	add	r7, sp, #0
 8007986:	6078      	str	r0, [r7, #4]
 8007988:	6039      	str	r1, [r7, #0]
  HAL_StatusTypeDef status = HAL_OK;
 800798a:	2300      	movs	r3, #0
 800798c:	73fb      	strb	r3, [r7, #15]
  uint32_t tmpsmcr;

  /* Process Locked */
  __HAL_LOCK(htim);
 800798e:	687b      	ldr	r3, [r7, #4]
 8007990:	f893 303c 	ldrb.w	r3, [r3, #60]	; 0x3c
 8007994:	2b01      	cmp	r3, #1
 8007996:	d101      	bne.n	800799c <HAL_TIM_ConfigClockSource+0x1c>
 8007998:	2302      	movs	r3, #2
 800799a:	e0b4      	b.n	8007b06 <HAL_TIM_ConfigClockSource+0x186>
 800799c:	687b      	ldr	r3, [r7, #4]
 800799e:	2201      	movs	r2, #1
 80079a0:	f883 203c 	strb.w	r2, [r3, #60]	; 0x3c

  htim->State = HAL_TIM_STATE_BUSY;
 80079a4:	687b      	ldr	r3, [r7, #4]
 80079a6:	2202      	movs	r2, #2
 80079a8:	f883 203d 	strb.w	r2, [r3, #61]	; 0x3d

  /* Check the parameters */
  assert_param(IS_TIM_CLOCKSOURCE(sClockSourceConfig->ClockSource));

  /* Reset the SMS, TS, ECE, ETPS and ETRF bits */
  tmpsmcr = htim->Instance->SMCR;
 80079ac:	687b      	ldr	r3, [r7, #4]
 80079ae:	681b      	ldr	r3, [r3, #0]
 80079b0:	689b      	ldr	r3, [r3, #8]
 80079b2:	60bb      	str	r3, [r7, #8]
  tmpsmcr &= ~(TIM_SMCR_SMS | TIM_SMCR_TS);
 80079b4:	68ba      	ldr	r2, [r7, #8]
 80079b6:	4b56      	ldr	r3, [pc, #344]	; (8007b10 <HAL_TIM_ConfigClockSource+0x190>)
 80079b8:	4013      	ands	r3, r2
 80079ba:	60bb      	str	r3, [r7, #8]
  tmpsmcr &= ~(TIM_SMCR_ETF | TIM_SMCR_ETPS | TIM_SMCR_ECE | TIM_SMCR_ETP);
 80079bc:	68bb      	ldr	r3, [r7, #8]
 80079be:	f423 437f 	bic.w	r3, r3, #65280	; 0xff00
 80079c2:	60bb      	str	r3, [r7, #8]
  htim->Instance->SMCR = tmpsmcr;
 80079c4:	687b      	ldr	r3, [r7, #4]
 80079c6:	681b      	ldr	r3, [r3, #0]
 80079c8:	68ba      	ldr	r2, [r7, #8]
 80079ca:	609a      	str	r2, [r3, #8]

  switch (sClockSourceConfig->ClockSource)
 80079cc:	683b      	ldr	r3, [r7, #0]
 80079ce:	681b      	ldr	r3, [r3, #0]
 80079d0:	f5b3 5f00 	cmp.w	r3, #8192	; 0x2000
 80079d4:	d03e      	beq.n	8007a54 <HAL_TIM_ConfigClockSource+0xd4>
 80079d6:	f5b3 5f00 	cmp.w	r3, #8192	; 0x2000
 80079da:	f200 8087 	bhi.w	8007aec <HAL_TIM_ConfigClockSource+0x16c>
 80079de:	f5b3 5f80 	cmp.w	r3, #4096	; 0x1000
 80079e2:	f000 8086 	beq.w	8007af2 <HAL_TIM_ConfigClockSource+0x172>
 80079e6:	f5b3 5f80 	cmp.w	r3, #4096	; 0x1000
 80079ea:	d87f      	bhi.n	8007aec <HAL_TIM_ConfigClockSource+0x16c>
 80079ec:	2b70      	cmp	r3, #112	; 0x70
 80079ee:	d01a      	beq.n	8007a26 <HAL_TIM_ConfigClockSource+0xa6>
 80079f0:	2b70      	cmp	r3, #112	; 0x70
 80079f2:	d87b      	bhi.n	8007aec <HAL_TIM_ConfigClockSource+0x16c>
 80079f4:	2b60      	cmp	r3, #96	; 0x60
 80079f6:	d050      	beq.n	8007a9a <HAL_TIM_ConfigClockSource+0x11a>
 80079f8:	2b60      	cmp	r3, #96	; 0x60
 80079fa:	d877      	bhi.n	8007aec <HAL_TIM_ConfigClockSource+0x16c>
 80079fc:	2b50      	cmp	r3, #80	; 0x50
 80079fe:	d03c      	beq.n	8007a7a <HAL_TIM_ConfigClockSource+0xfa>
 8007a00:	2b50      	cmp	r3, #80	; 0x50
 8007a02:	d873      	bhi.n	8007aec <HAL_TIM_ConfigClockSource+0x16c>
 8007a04:	2b40      	cmp	r3, #64	; 0x40
 8007a06:	d058      	beq.n	8007aba <HAL_TIM_ConfigClockSource+0x13a>
 8007a08:	2b40      	cmp	r3, #64	; 0x40
 8007a0a:	d86f      	bhi.n	8007aec <HAL_TIM_ConfigClockSource+0x16c>
 8007a0c:	2b30      	cmp	r3, #48	; 0x30
 8007a0e:	d064      	beq.n	8007ada <HAL_TIM_ConfigClockSource+0x15a>
 8007a10:	2b30      	cmp	r3, #48	; 0x30
 8007a12:	d86b      	bhi.n	8007aec <HAL_TIM_ConfigClockSource+0x16c>
 8007a14:	2b20      	cmp	r3, #32
 8007a16:	d060      	beq.n	8007ada <HAL_TIM_ConfigClockSource+0x15a>
 8007a18:	2b20      	cmp	r3, #32
 8007a1a:	d867      	bhi.n	8007aec <HAL_TIM_ConfigClockSource+0x16c>
 8007a1c:	2b00      	cmp	r3, #0
 8007a1e:	d05c      	beq.n	8007ada <HAL_TIM_ConfigClockSource+0x15a>
 8007a20:	2b10      	cmp	r3, #16
 8007a22:	d05a      	beq.n	8007ada <HAL_TIM_ConfigClockSource+0x15a>
 8007a24:	e062      	b.n	8007aec <HAL_TIM_ConfigClockSource+0x16c>
      assert_param(IS_TIM_CLOCKPRESCALER(sClockSourceConfig->ClockPrescaler));
      assert_param(IS_TIM_CLOCKPOLARITY(sClockSourceConfig->ClockPolarity));
      assert_param(IS_TIM_CLOCKFILTER(sClockSourceConfig->ClockFilter));

      /* Configure the ETR Clock source */
      TIM_ETR_SetConfig(htim->Instance,
 8007a26:	687b      	ldr	r3, [r7, #4]
 8007a28:	6818      	ldr	r0, [r3, #0]
                        sClockSourceConfig->ClockPrescaler,
 8007a2a:	683b      	ldr	r3, [r7, #0]
 8007a2c:	6899      	ldr	r1, [r3, #8]
                        sClockSourceConfig->ClockPolarity,
 8007a2e:	683b      	ldr	r3, [r7, #0]
 8007a30:	685a      	ldr	r2, [r3, #4]
                        sClockSourceConfig->ClockFilter);
 8007a32:	683b      	ldr	r3, [r7, #0]
 8007a34:	68db      	ldr	r3, [r3, #12]
      TIM_ETR_SetConfig(htim->Instance,
 8007a36:	f000 fb3f 	bl	80080b8 <TIM_ETR_SetConfig>

      /* Select the External clock mode1 and the ETRF trigger */
      tmpsmcr = htim->Instance->SMCR;
 8007a3a:	687b      	ldr	r3, [r7, #4]
 8007a3c:	681b      	ldr	r3, [r3, #0]
 8007a3e:	689b      	ldr	r3, [r3, #8]
 8007a40:	60bb      	str	r3, [r7, #8]
      tmpsmcr |= (TIM_SLAVEMODE_EXTERNAL1 | TIM_CLOCKSOURCE_ETRMODE1);
 8007a42:	68bb      	ldr	r3, [r7, #8]
 8007a44:	f043 0377 	orr.w	r3, r3, #119	; 0x77
 8007a48:	60bb      	str	r3, [r7, #8]
      /* Write to TIMx SMCR */
      htim->Instance->SMCR = tmpsmcr;
 8007a4a:	687b      	ldr	r3, [r7, #4]
 8007a4c:	681b      	ldr	r3, [r3, #0]
 8007a4e:	68ba      	ldr	r2, [r7, #8]
 8007a50:	609a      	str	r2, [r3, #8]
      break;
 8007a52:	e04f      	b.n	8007af4 <HAL_TIM_ConfigClockSource+0x174>
      assert_param(IS_TIM_CLOCKPRESCALER(sClockSourceConfig->ClockPrescaler));
      assert_param(IS_TIM_CLOCKPOLARITY(sClockSourceConfig->ClockPolarity));
      assert_param(IS_TIM_CLOCKFILTER(sClockSourceConfig->ClockFilter));

      /* Configure the ETR Clock source */
      TIM_ETR_SetConfig(htim->Instance,
 8007a54:	687b      	ldr	r3, [r7, #4]
 8007a56:	6818      	ldr	r0, [r3, #0]
                        sClockSourceConfig->ClockPrescaler,
 8007a58:	683b      	ldr	r3, [r7, #0]
 8007a5a:	6899      	ldr	r1, [r3, #8]
                        sClockSourceConfig->ClockPolarity,
 8007a5c:	683b      	ldr	r3, [r7, #0]
 8007a5e:	685a      	ldr	r2, [r3, #4]
                        sClockSourceConfig->ClockFilter);
 8007a60:	683b      	ldr	r3, [r7, #0]
 8007a62:	68db      	ldr	r3, [r3, #12]
      TIM_ETR_SetConfig(htim->Instance,
 8007a64:	f000 fb28 	bl	80080b8 <TIM_ETR_SetConfig>
      /* Enable the External clock mode2 */
      htim->Instance->SMCR |= TIM_SMCR_ECE;
 8007a68:	687b      	ldr	r3, [r7, #4]
 8007a6a:	681b      	ldr	r3, [r3, #0]
 8007a6c:	689a      	ldr	r2, [r3, #8]
 8007a6e:	687b      	ldr	r3, [r7, #4]
 8007a70:	681b      	ldr	r3, [r3, #0]
 8007a72:	f442 4280 	orr.w	r2, r2, #16384	; 0x4000
 8007a76:	609a      	str	r2, [r3, #8]
      break;
 8007a78:	e03c      	b.n	8007af4 <HAL_TIM_ConfigClockSource+0x174>

      /* Check TI1 input conditioning related parameters */
      assert_param(IS_TIM_CLOCKPOLARITY(sClockSourceConfig->ClockPolarity));
      assert_param(IS_TIM_CLOCKFILTER(sClockSourceConfig->ClockFilter));

      TIM_TI1_ConfigInputStage(htim->Instance,
 8007a7a:	687b      	ldr	r3, [r7, #4]
 8007a7c:	6818      	ldr	r0, [r3, #0]
                               sClockSourceConfig->ClockPolarity,
 8007a7e:	683b      	ldr	r3, [r7, #0]
 8007a80:	6859      	ldr	r1, [r3, #4]
                               sClockSourceConfig->ClockFilter);
 8007a82:	683b      	ldr	r3, [r7, #0]
 8007a84:	68db      	ldr	r3, [r3, #12]
      TIM_TI1_ConfigInputStage(htim->Instance,
 8007a86:	461a      	mov	r2, r3
 8007a88:	f000 fa9c 	bl	8007fc4 <TIM_TI1_ConfigInputStage>
      TIM_ITRx_SetConfig(htim->Instance, TIM_CLOCKSOURCE_TI1);
 8007a8c:	687b      	ldr	r3, [r7, #4]
 8007a8e:	681b      	ldr	r3, [r3, #0]
 8007a90:	2150      	movs	r1, #80	; 0x50
 8007a92:	4618      	mov	r0, r3
 8007a94:	f000 faf5 	bl	8008082 <TIM_ITRx_SetConfig>
      break;
 8007a98:	e02c      	b.n	8007af4 <HAL_TIM_ConfigClockSource+0x174>

      /* Check TI2 input conditioning related parameters */
      assert_param(IS_TIM_CLOCKPOLARITY(sClockSourceConfig->ClockPolarity));
      assert_param(IS_TIM_CLOCKFILTER(sClockSourceConfig->ClockFilter));

      TIM_TI2_ConfigInputStage(htim->Instance,
 8007a9a:	687b      	ldr	r3, [r7, #4]
 8007a9c:	6818      	ldr	r0, [r3, #0]
                               sClockSourceConfig->ClockPolarity,
 8007a9e:	683b      	ldr	r3, [r7, #0]
 8007aa0:	6859      	ldr	r1, [r3, #4]
                               sClockSourceConfig->ClockFilter);
 8007aa2:	683b      	ldr	r3, [r7, #0]
 8007aa4:	68db      	ldr	r3, [r3, #12]
      TIM_TI2_ConfigInputStage(htim->Instance,
 8007aa6:	461a      	mov	r2, r3
 8007aa8:	f000 fabb 	bl	8008022 <TIM_TI2_ConfigInputStage>
      TIM_ITRx_SetConfig(htim->Instance, TIM_CLOCKSOURCE_TI2);
 8007aac:	687b      	ldr	r3, [r7, #4]
 8007aae:	681b      	ldr	r3, [r3, #0]
 8007ab0:	2160      	movs	r1, #96	; 0x60
 8007ab2:	4618      	mov	r0, r3
 8007ab4:	f000 fae5 	bl	8008082 <TIM_ITRx_SetConfig>
      break;
 8007ab8:	e01c      	b.n	8007af4 <HAL_TIM_ConfigClockSource+0x174>

      /* Check TI1 input conditioning related parameters */
      assert_param(IS_TIM_CLOCKPOLARITY(sClockSourceConfig->ClockPolarity));
      assert_param(IS_TIM_CLOCKFILTER(sClockSourceConfig->ClockFilter));

      TIM_TI1_ConfigInputStage(htim->Instance,
 8007aba:	687b      	ldr	r3, [r7, #4]
 8007abc:	6818      	ldr	r0, [r3, #0]
                               sClockSourceConfig->ClockPolarity,
 8007abe:	683b      	ldr	r3, [r7, #0]
 8007ac0:	6859      	ldr	r1, [r3, #4]
                               sClockSourceConfig->ClockFilter);
 8007ac2:	683b      	ldr	r3, [r7, #0]
 8007ac4:	68db      	ldr	r3, [r3, #12]
      TIM_TI1_ConfigInputStage(htim->Instance,
 8007ac6:	461a      	mov	r2, r3
 8007ac8:	f000 fa7c 	bl	8007fc4 <TIM_TI1_ConfigInputStage>
      TIM_ITRx_SetConfig(htim->Instance, TIM_CLOCKSOURCE_TI1ED);
 8007acc:	687b      	ldr	r3, [r7, #4]
 8007ace:	681b      	ldr	r3, [r3, #0]
 8007ad0:	2140      	movs	r1, #64	; 0x40
 8007ad2:	4618      	mov	r0, r3
 8007ad4:	f000 fad5 	bl	8008082 <TIM_ITRx_SetConfig>
      break;
 8007ad8:	e00c      	b.n	8007af4 <HAL_TIM_ConfigClockSource+0x174>
    case TIM_CLOCKSOURCE_ITR3:
    {
      /* Check whether or not the timer instance supports internal trigger input */
      assert_param(IS_TIM_CLOCKSOURCE_ITRX_INSTANCE(htim->Instance));

      TIM_ITRx_SetConfig(htim->Instance, sClockSourceConfig->ClockSource);
 8007ada:	687b      	ldr	r3, [r7, #4]
 8007adc:	681a      	ldr	r2, [r3, #0]
 8007ade:	683b      	ldr	r3, [r7, #0]
 8007ae0:	681b      	ldr	r3, [r3, #0]
 8007ae2:	4619      	mov	r1, r3
 8007ae4:	4610      	mov	r0, r2
 8007ae6:	f000 facc 	bl	8008082 <TIM_ITRx_SetConfig>
      break;
 8007aea:	e003      	b.n	8007af4 <HAL_TIM_ConfigClockSource+0x174>
    }

    default:
      status = HAL_ERROR;
 8007aec:	2301      	movs	r3, #1
 8007aee:	73fb      	strb	r3, [r7, #15]
      break;
 8007af0:	e000      	b.n	8007af4 <HAL_TIM_ConfigClockSource+0x174>
      break;
 8007af2:	bf00      	nop
  }
  htim->State = HAL_TIM_STATE_READY;
 8007af4:	687b      	ldr	r3, [r7, #4]
 8007af6:	2201      	movs	r2, #1
 8007af8:	f883 203d 	strb.w	r2, [r3, #61]	; 0x3d

  __HAL_UNLOCK(htim);
 8007afc:	687b      	ldr	r3, [r7, #4]
 8007afe:	2200      	movs	r2, #0
 8007b00:	f883 203c 	strb.w	r2, [r3, #60]	; 0x3c

  return status;
 8007b04:	7bfb      	ldrb	r3, [r7, #15]
}
 8007b06:	4618      	mov	r0, r3
 8007b08:	3710      	adds	r7, #16
 8007b0a:	46bd      	mov	sp, r7
 8007b0c:	bd80      	pop	{r7, pc}
 8007b0e:	bf00      	nop
 8007b10:	fffeff88 	.word	0xfffeff88

08007b14 <HAL_TIM_PeriodElapsedCallback>:
  * @brief  Period elapsed callback in non-blocking mode
  * @param  htim TIM handle
  * @retval None
  */
__weak void HAL_TIM_PeriodElapsedCallback(TIM_HandleTypeDef *htim)
{
 8007b14:	b480      	push	{r7}
 8007b16:	b083      	sub	sp, #12
 8007b18:	af00      	add	r7, sp, #0
 8007b1a:	6078      	str	r0, [r7, #4]
  UNUSED(htim);

  /* NOTE : This function should not be modified, when the callback is needed,
            the HAL_TIM_PeriodElapsedCallback could be implemented in the user file
   */
}
 8007b1c:	bf00      	nop
 8007b1e:	370c      	adds	r7, #12
 8007b20:	46bd      	mov	sp, r7
 8007b22:	f85d 7b04 	ldr.w	r7, [sp], #4
 8007b26:	4770      	bx	lr

08007b28 <HAL_TIM_PeriodElapsedHalfCpltCallback>:
  * @brief  Period elapsed half complete callback in non-blocking mode
  * @param  htim TIM handle
  * @retval None
  */
__weak void HAL_TIM_PeriodElapsedHalfCpltCallback(TIM_HandleTypeDef *htim)
{
 8007b28:	b480      	push	{r7}
 8007b2a:	b083      	sub	sp, #12
 8007b2c:	af00      	add	r7, sp, #0
 8007b2e:	6078      	str	r0, [r7, #4]
  UNUSED(htim);

  /* NOTE : This function should not be modified, when the callback is needed,
            the HAL_TIM_PeriodElapsedHalfCpltCallback could be implemented in the user file
   */
}
 8007b30:	bf00      	nop
 8007b32:	370c      	adds	r7, #12
 8007b34:	46bd      	mov	sp, r7
 8007b36:	f85d 7b04 	ldr.w	r7, [sp], #4
 8007b3a:	4770      	bx	lr

08007b3c <HAL_TIM_OC_DelayElapsedCallback>:
  * @brief  Output Compare callback in non-blocking mode
  * @param  htim TIM OC handle
  * @retval None
  */
__weak void HAL_TIM_OC_DelayElapsedCallback(TIM_HandleTypeDef *htim)
{
 8007b3c:	b480      	push	{r7}
 8007b3e:	b083      	sub	sp, #12
 8007b40:	af00      	add	r7, sp, #0
 8007b42:	6078      	str	r0, [r7, #4]
  UNUSED(htim);

  /* NOTE : This function should not be modified, when the callback is needed,
            the HAL_TIM_OC_DelayElapsedCallback could be implemented in the user file
   */
}
 8007b44:	bf00      	nop
 8007b46:	370c      	adds	r7, #12
 8007b48:	46bd      	mov	sp, r7
 8007b4a:	f85d 7b04 	ldr.w	r7, [sp], #4
 8007b4e:	4770      	bx	lr

08007b50 <HAL_TIM_IC_CaptureCallback>:
  * @brief  Input Capture callback in non-blocking mode
  * @param  htim TIM IC handle
  * @retval None
  */
__weak void HAL_TIM_IC_CaptureCallback(TIM_HandleTypeDef *htim)
{
 8007b50:	b480      	push	{r7}
 8007b52:	b083      	sub	sp, #12
 8007b54:	af00      	add	r7, sp, #0
 8007b56:	6078      	str	r0, [r7, #4]
  UNUSED(htim);

  /* NOTE : This function should not be modified, when the callback is needed,
            the HAL_TIM_IC_CaptureCallback could be implemented in the user file
   */
}
 8007b58:	bf00      	nop
 8007b5a:	370c      	adds	r7, #12
 8007b5c:	46bd      	mov	sp, r7
 8007b5e:	f85d 7b04 	ldr.w	r7, [sp], #4
 8007b62:	4770      	bx	lr

08007b64 <HAL_TIM_IC_CaptureHalfCpltCallback>:
  * @brief  Input Capture half complete callback in non-blocking mode
  * @param  htim TIM IC handle
  * @retval None
  */
__weak void HAL_TIM_IC_CaptureHalfCpltCallback(TIM_HandleTypeDef *htim)
{
 8007b64:	b480      	push	{r7}
 8007b66:	b083      	sub	sp, #12
 8007b68:	af00      	add	r7, sp, #0
 8007b6a:	6078      	str	r0, [r7, #4]
  UNUSED(htim);

  /* NOTE : This function should not be modified, when the callback is needed,
            the HAL_TIM_IC_CaptureHalfCpltCallback could be implemented in the user file
   */
}
 8007b6c:	bf00      	nop
 8007b6e:	370c      	adds	r7, #12
 8007b70:	46bd      	mov	sp, r7
 8007b72:	f85d 7b04 	ldr.w	r7, [sp], #4
 8007b76:	4770      	bx	lr

08007b78 <HAL_TIM_PWM_PulseFinishedCallback>:
  * @brief  PWM Pulse finished callback in non-blocking mode
  * @param  htim TIM handle
  * @retval None
  */
__weak void HAL_TIM_PWM_PulseFinishedCallback(TIM_HandleTypeDef *htim)
{
 8007b78:	b480      	push	{r7}
 8007b7a:	b083      	sub	sp, #12
 8007b7c:	af00      	add	r7, sp, #0
 8007b7e:	6078      	str	r0, [r7, #4]
  UNUSED(htim);

  /* NOTE : This function should not be modified, when the callback is needed,
            the HAL_TIM_PWM_PulseFinishedCallback could be implemented in the user file
   */
}
 8007b80:	bf00      	nop
 8007b82:	370c      	adds	r7, #12
 8007b84:	46bd      	mov	sp, r7
 8007b86:	f85d 7b04 	ldr.w	r7, [sp], #4
 8007b8a:	4770      	bx	lr

08007b8c <HAL_TIM_PWM_PulseFinishedHalfCpltCallback>:
  * @brief  PWM Pulse finished half complete callback in non-blocking mode
  * @param  htim TIM handle
  * @retval None
  */
__weak void HAL_TIM_PWM_PulseFinishedHalfCpltCallback(TIM_HandleTypeDef *htim)
{
 8007b8c:	b480      	push	{r7}
 8007b8e:	b083      	sub	sp, #12
 8007b90:	af00      	add	r7, sp, #0
 8007b92:	6078      	str	r0, [r7, #4]
  UNUSED(htim);

  /* NOTE : This function should not be modified, when the callback is needed,
            the HAL_TIM_PWM_PulseFinishedHalfCpltCallback could be implemented in the user file
   */
}
 8007b94:	bf00      	nop
 8007b96:	370c      	adds	r7, #12
 8007b98:	46bd      	mov	sp, r7
 8007b9a:	f85d 7b04 	ldr.w	r7, [sp], #4
 8007b9e:	4770      	bx	lr

08007ba0 <HAL_TIM_TriggerCallback>:
  * @brief  Hall Trigger detection callback in non-blocking mode
  * @param  htim TIM handle
  * @retval None
  */
__weak void HAL_TIM_TriggerCallback(TIM_HandleTypeDef *htim)
{
 8007ba0:	b480      	push	{r7}
 8007ba2:	b083      	sub	sp, #12
 8007ba4:	af00      	add	r7, sp, #0
 8007ba6:	6078      	str	r0, [r7, #4]
  UNUSED(htim);

  /* NOTE : This function should not be modified, when the callback is needed,
            the HAL_TIM_TriggerCallback could be implemented in the user file
   */
}
 8007ba8:	bf00      	nop
 8007baa:	370c      	adds	r7, #12
 8007bac:	46bd      	mov	sp, r7
 8007bae:	f85d 7b04 	ldr.w	r7, [sp], #4
 8007bb2:	4770      	bx	lr

08007bb4 <HAL_TIM_TriggerHalfCpltCallback>:
  * @brief  Hall Trigger detection half complete callback in non-blocking mode
  * @param  htim TIM handle
  * @retval None
  */
__weak void HAL_TIM_TriggerHalfCpltCallback(TIM_HandleTypeDef *htim)
{
 8007bb4:	b480      	push	{r7}
 8007bb6:	b083      	sub	sp, #12
 8007bb8:	af00      	add	r7, sp, #0
 8007bba:	6078      	str	r0, [r7, #4]
  UNUSED(htim);

  /* NOTE : This function should not be modified, when the callback is needed,
            the HAL_TIM_TriggerHalfCpltCallback could be implemented in the user file
   */
}
 8007bbc:	bf00      	nop
 8007bbe:	370c      	adds	r7, #12
 8007bc0:	46bd      	mov	sp, r7
 8007bc2:	f85d 7b04 	ldr.w	r7, [sp], #4
 8007bc6:	4770      	bx	lr

08007bc8 <HAL_TIM_ErrorCallback>:
  * @brief  Timer error callback in non-blocking mode
  * @param  htim TIM handle
  * @retval None
  */
__weak void HAL_TIM_ErrorCallback(TIM_HandleTypeDef *htim)
{
 8007bc8:	b480      	push	{r7}
 8007bca:	b083      	sub	sp, #12
 8007bcc:	af00      	add	r7, sp, #0
 8007bce:	6078      	str	r0, [r7, #4]
  UNUSED(htim);

  /* NOTE : This function should not be modified, when the callback is needed,
            the HAL_TIM_ErrorCallback could be implemented in the user file
   */
}
 8007bd0:	bf00      	nop
 8007bd2:	370c      	adds	r7, #12
 8007bd4:	46bd      	mov	sp, r7
 8007bd6:	f85d 7b04 	ldr.w	r7, [sp], #4
 8007bda:	4770      	bx	lr

08007bdc <HAL_TIM_RegisterCallback>:
  *          @param pCallback pointer to the callback function
  *          @retval status
  */
HAL_StatusTypeDef HAL_TIM_RegisterCallback(TIM_HandleTypeDef *htim, HAL_TIM_CallbackIDTypeDef CallbackID,
                                           pTIM_CallbackTypeDef pCallback)
{
 8007bdc:	b480      	push	{r7}
 8007bde:	b087      	sub	sp, #28
 8007be0:	af00      	add	r7, sp, #0
 8007be2:	60f8      	str	r0, [r7, #12]
 8007be4:	460b      	mov	r3, r1
 8007be6:	607a      	str	r2, [r7, #4]
 8007be8:	72fb      	strb	r3, [r7, #11]
  HAL_StatusTypeDef status = HAL_OK;
 8007bea:	2300      	movs	r3, #0
 8007bec:	75fb      	strb	r3, [r7, #23]

  if (pCallback == NULL)
 8007bee:	687b      	ldr	r3, [r7, #4]
 8007bf0:	2b00      	cmp	r3, #0
 8007bf2:	d101      	bne.n	8007bf8 <HAL_TIM_RegisterCallback+0x1c>
  {
    return HAL_ERROR;
 8007bf4:	2301      	movs	r3, #1
 8007bf6:	e13e      	b.n	8007e76 <HAL_TIM_RegisterCallback+0x29a>
  }
  /* Process locked */
  __HAL_LOCK(htim);
 8007bf8:	68fb      	ldr	r3, [r7, #12]
 8007bfa:	f893 303c 	ldrb.w	r3, [r3, #60]	; 0x3c
 8007bfe:	2b01      	cmp	r3, #1
 8007c00:	d101      	bne.n	8007c06 <HAL_TIM_RegisterCallback+0x2a>
 8007c02:	2302      	movs	r3, #2
 8007c04:	e137      	b.n	8007e76 <HAL_TIM_RegisterCallback+0x29a>
 8007c06:	68fb      	ldr	r3, [r7, #12]
 8007c08:	2201      	movs	r2, #1
 8007c0a:	f883 203c 	strb.w	r2, [r3, #60]	; 0x3c

  if (htim->State == HAL_TIM_STATE_READY)
 8007c0e:	68fb      	ldr	r3, [r7, #12]
 8007c10:	f893 303d 	ldrb.w	r3, [r3, #61]	; 0x3d
 8007c14:	b2db      	uxtb	r3, r3
 8007c16:	2b01      	cmp	r3, #1
 8007c18:	f040 80c2 	bne.w	8007da0 <HAL_TIM_RegisterCallback+0x1c4>
  {
    switch (CallbackID)
 8007c1c:	7afb      	ldrb	r3, [r7, #11]
 8007c1e:	2b1b      	cmp	r3, #27
 8007c20:	f200 80bb 	bhi.w	8007d9a <HAL_TIM_RegisterCallback+0x1be>
 8007c24:	a201      	add	r2, pc, #4	; (adr r2, 8007c2c <HAL_TIM_RegisterCallback+0x50>)
 8007c26:	f852 f023 	ldr.w	pc, [r2, r3, lsl #2]
 8007c2a:	bf00      	nop
 8007c2c:	08007c9d 	.word	0x08007c9d
 8007c30:	08007ca5 	.word	0x08007ca5
 8007c34:	08007cad 	.word	0x08007cad
 8007c38:	08007cb5 	.word	0x08007cb5
 8007c3c:	08007cbd 	.word	0x08007cbd
 8007c40:	08007cc5 	.word	0x08007cc5
 8007c44:	08007ccd 	.word	0x08007ccd
 8007c48:	08007cd5 	.word	0x08007cd5
 8007c4c:	08007cdd 	.word	0x08007cdd
 8007c50:	08007ce5 	.word	0x08007ce5
 8007c54:	08007ced 	.word	0x08007ced
 8007c58:	08007cf5 	.word	0x08007cf5
 8007c5c:	08007cfd 	.word	0x08007cfd
 8007c60:	08007d05 	.word	0x08007d05
 8007c64:	08007d0f 	.word	0x08007d0f
 8007c68:	08007d19 	.word	0x08007d19
 8007c6c:	08007d23 	.word	0x08007d23
 8007c70:	08007d2d 	.word	0x08007d2d
 8007c74:	08007d37 	.word	0x08007d37
 8007c78:	08007d41 	.word	0x08007d41
 8007c7c:	08007d4b 	.word	0x08007d4b
 8007c80:	08007d55 	.word	0x08007d55
 8007c84:	08007d5f 	.word	0x08007d5f
 8007c88:	08007d69 	.word	0x08007d69
 8007c8c:	08007d73 	.word	0x08007d73
 8007c90:	08007d7d 	.word	0x08007d7d
 8007c94:	08007d87 	.word	0x08007d87
 8007c98:	08007d91 	.word	0x08007d91
    {
      case HAL_TIM_BASE_MSPINIT_CB_ID :
        htim->Base_MspInitCallback                 = pCallback;
 8007c9c:	68fb      	ldr	r3, [r7, #12]
 8007c9e:	687a      	ldr	r2, [r7, #4]
 8007ca0:	64da      	str	r2, [r3, #76]	; 0x4c
        break;
 8007ca2:	e0e3      	b.n	8007e6c <HAL_TIM_RegisterCallback+0x290>

      case HAL_TIM_BASE_MSPDEINIT_CB_ID :
        htim->Base_MspDeInitCallback               = pCallback;
 8007ca4:	68fb      	ldr	r3, [r7, #12]
 8007ca6:	687a      	ldr	r2, [r7, #4]
 8007ca8:	651a      	str	r2, [r3, #80]	; 0x50
        break;
 8007caa:	e0df      	b.n	8007e6c <HAL_TIM_RegisterCallback+0x290>

      case HAL_TIM_IC_MSPINIT_CB_ID :
        htim->IC_MspInitCallback                   = pCallback;
 8007cac:	68fb      	ldr	r3, [r7, #12]
 8007cae:	687a      	ldr	r2, [r7, #4]
 8007cb0:	655a      	str	r2, [r3, #84]	; 0x54
        break;
 8007cb2:	e0db      	b.n	8007e6c <HAL_TIM_RegisterCallback+0x290>

      case HAL_TIM_IC_MSPDEINIT_CB_ID :
        htim->IC_MspDeInitCallback                 = pCallback;
 8007cb4:	68fb      	ldr	r3, [r7, #12]
 8007cb6:	687a      	ldr	r2, [r7, #4]
 8007cb8:	659a      	str	r2, [r3, #88]	; 0x58
        break;
 8007cba:	e0d7      	b.n	8007e6c <HAL_TIM_RegisterCallback+0x290>

      case HAL_TIM_OC_MSPINIT_CB_ID :
        htim->OC_MspInitCallback                   = pCallback;
 8007cbc:	68fb      	ldr	r3, [r7, #12]
 8007cbe:	687a      	ldr	r2, [r7, #4]
 8007cc0:	65da      	str	r2, [r3, #92]	; 0x5c
        break;
 8007cc2:	e0d3      	b.n	8007e6c <HAL_TIM_RegisterCallback+0x290>

      case HAL_TIM_OC_MSPDEINIT_CB_ID :
        htim->OC_MspDeInitCallback                 = pCallback;
 8007cc4:	68fb      	ldr	r3, [r7, #12]
 8007cc6:	687a      	ldr	r2, [r7, #4]
 8007cc8:	661a      	str	r2, [r3, #96]	; 0x60
        break;
 8007cca:	e0cf      	b.n	8007e6c <HAL_TIM_RegisterCallback+0x290>

      case HAL_TIM_PWM_MSPINIT_CB_ID :
        htim->PWM_MspInitCallback                  = pCallback;
 8007ccc:	68fb      	ldr	r3, [r7, #12]
 8007cce:	687a      	ldr	r2, [r7, #4]
 8007cd0:	665a      	str	r2, [r3, #100]	; 0x64
        break;
 8007cd2:	e0cb      	b.n	8007e6c <HAL_TIM_RegisterCallback+0x290>

      case HAL_TIM_PWM_MSPDEINIT_CB_ID :
        htim->PWM_MspDeInitCallback                = pCallback;
 8007cd4:	68fb      	ldr	r3, [r7, #12]
 8007cd6:	687a      	ldr	r2, [r7, #4]
 8007cd8:	669a      	str	r2, [r3, #104]	; 0x68
        break;
 8007cda:	e0c7      	b.n	8007e6c <HAL_TIM_RegisterCallback+0x290>

      case HAL_TIM_ONE_PULSE_MSPINIT_CB_ID :
        htim->OnePulse_MspInitCallback             = pCallback;
 8007cdc:	68fb      	ldr	r3, [r7, #12]
 8007cde:	687a      	ldr	r2, [r7, #4]
 8007ce0:	66da      	str	r2, [r3, #108]	; 0x6c
        break;
 8007ce2:	e0c3      	b.n	8007e6c <HAL_TIM_RegisterCallback+0x290>

      case HAL_TIM_ONE_PULSE_MSPDEINIT_CB_ID :
        htim->OnePulse_MspDeInitCallback           = pCallback;
 8007ce4:	68fb      	ldr	r3, [r7, #12]
 8007ce6:	687a      	ldr	r2, [r7, #4]
 8007ce8:	671a      	str	r2, [r3, #112]	; 0x70
        break;
 8007cea:	e0bf      	b.n	8007e6c <HAL_TIM_RegisterCallback+0x290>

      case HAL_TIM_ENCODER_MSPINIT_CB_ID :
        htim->Encoder_MspInitCallback              = pCallback;
 8007cec:	68fb      	ldr	r3, [r7, #12]
 8007cee:	687a      	ldr	r2, [r7, #4]
 8007cf0:	675a      	str	r2, [r3, #116]	; 0x74
        break;
 8007cf2:	e0bb      	b.n	8007e6c <HAL_TIM_RegisterCallback+0x290>

      case HAL_TIM_ENCODER_MSPDEINIT_CB_ID :
        htim->Encoder_MspDeInitCallback            = pCallback;
 8007cf4:	68fb      	ldr	r3, [r7, #12]
 8007cf6:	687a      	ldr	r2, [r7, #4]
 8007cf8:	679a      	str	r2, [r3, #120]	; 0x78
        break;
 8007cfa:	e0b7      	b.n	8007e6c <HAL_TIM_RegisterCallback+0x290>

      case HAL_TIM_HALL_SENSOR_MSPINIT_CB_ID :
        htim->HallSensor_MspInitCallback           = pCallback;
 8007cfc:	68fb      	ldr	r3, [r7, #12]
 8007cfe:	687a      	ldr	r2, [r7, #4]
 8007d00:	67da      	str	r2, [r3, #124]	; 0x7c
        break;
 8007d02:	e0b3      	b.n	8007e6c <HAL_TIM_RegisterCallback+0x290>

      case HAL_TIM_HALL_SENSOR_MSPDEINIT_CB_ID :
        htim->HallSensor_MspDeInitCallback         = pCallback;
 8007d04:	68fb      	ldr	r3, [r7, #12]
 8007d06:	687a      	ldr	r2, [r7, #4]
 8007d08:	f8c3 2080 	str.w	r2, [r3, #128]	; 0x80
        break;
 8007d0c:	e0ae      	b.n	8007e6c <HAL_TIM_RegisterCallback+0x290>

      case HAL_TIM_PERIOD_ELAPSED_CB_ID :
        htim->PeriodElapsedCallback                = pCallback;
 8007d0e:	68fb      	ldr	r3, [r7, #12]
 8007d10:	687a      	ldr	r2, [r7, #4]
 8007d12:	f8c3 2084 	str.w	r2, [r3, #132]	; 0x84
        break;
 8007d16:	e0a9      	b.n	8007e6c <HAL_TIM_RegisterCallback+0x290>

      case HAL_TIM_PERIOD_ELAPSED_HALF_CB_ID :
        htim->PeriodElapsedHalfCpltCallback        = pCallback;
 8007d18:	68fb      	ldr	r3, [r7, #12]
 8007d1a:	687a      	ldr	r2, [r7, #4]
 8007d1c:	f8c3 2088 	str.w	r2, [r3, #136]	; 0x88
        break;
 8007d20:	e0a4      	b.n	8007e6c <HAL_TIM_RegisterCallback+0x290>

      case HAL_TIM_TRIGGER_CB_ID :
        htim->TriggerCallback                      = pCallback;
 8007d22:	68fb      	ldr	r3, [r7, #12]
 8007d24:	687a      	ldr	r2, [r7, #4]
 8007d26:	f8c3 208c 	str.w	r2, [r3, #140]	; 0x8c
        break;
 8007d2a:	e09f      	b.n	8007e6c <HAL_TIM_RegisterCallback+0x290>

      case HAL_TIM_TRIGGER_HALF_CB_ID :
        htim->TriggerHalfCpltCallback              = pCallback;
 8007d2c:	68fb      	ldr	r3, [r7, #12]
 8007d2e:	687a      	ldr	r2, [r7, #4]
 8007d30:	f8c3 2090 	str.w	r2, [r3, #144]	; 0x90
        break;
 8007d34:	e09a      	b.n	8007e6c <HAL_TIM_RegisterCallback+0x290>

      case HAL_TIM_IC_CAPTURE_CB_ID :
        htim->IC_CaptureCallback                   = pCallback;
 8007d36:	68fb      	ldr	r3, [r7, #12]
 8007d38:	687a      	ldr	r2, [r7, #4]
 8007d3a:	f8c3 2094 	str.w	r2, [r3, #148]	; 0x94
        break;
 8007d3e:	e095      	b.n	8007e6c <HAL_TIM_RegisterCallback+0x290>

      case HAL_TIM_IC_CAPTURE_HALF_CB_ID :
        htim->IC_CaptureHalfCpltCallback           = pCallback;
 8007d40:	68fb      	ldr	r3, [r7, #12]
 8007d42:	687a      	ldr	r2, [r7, #4]
 8007d44:	f8c3 2098 	str.w	r2, [r3, #152]	; 0x98
        break;
 8007d48:	e090      	b.n	8007e6c <HAL_TIM_RegisterCallback+0x290>

      case HAL_TIM_OC_DELAY_ELAPSED_CB_ID :
        htim->OC_DelayElapsedCallback              = pCallback;
 8007d4a:	68fb      	ldr	r3, [r7, #12]
 8007d4c:	687a      	ldr	r2, [r7, #4]
 8007d4e:	f8c3 209c 	str.w	r2, [r3, #156]	; 0x9c
        break;
 8007d52:	e08b      	b.n	8007e6c <HAL_TIM_RegisterCallback+0x290>

      case HAL_TIM_PWM_PULSE_FINISHED_CB_ID :
        htim->PWM_PulseFinishedCallback            = pCallback;
 8007d54:	68fb      	ldr	r3, [r7, #12]
 8007d56:	687a      	ldr	r2, [r7, #4]
 8007d58:	f8c3 20a0 	str.w	r2, [r3, #160]	; 0xa0
        break;
 8007d5c:	e086      	b.n	8007e6c <HAL_TIM_RegisterCallback+0x290>

      case HAL_TIM_PWM_PULSE_FINISHED_HALF_CB_ID :
        htim->PWM_PulseFinishedHalfCpltCallback    = pCallback;
 8007d5e:	68fb      	ldr	r3, [r7, #12]
 8007d60:	687a      	ldr	r2, [r7, #4]
 8007d62:	f8c3 20a4 	str.w	r2, [r3, #164]	; 0xa4
        break;
 8007d66:	e081      	b.n	8007e6c <HAL_TIM_RegisterCallback+0x290>

      case HAL_TIM_ERROR_CB_ID :
        htim->ErrorCallback                        = pCallback;
 8007d68:	68fb      	ldr	r3, [r7, #12]
 8007d6a:	687a      	ldr	r2, [r7, #4]
 8007d6c:	f8c3 20a8 	str.w	r2, [r3, #168]	; 0xa8
        break;
 8007d70:	e07c      	b.n	8007e6c <HAL_TIM_RegisterCallback+0x290>

      case HAL_TIM_COMMUTATION_CB_ID :
        htim->CommutationCallback                  = pCallback;
 8007d72:	68fb      	ldr	r3, [r7, #12]
 8007d74:	687a      	ldr	r2, [r7, #4]
 8007d76:	f8c3 20ac 	str.w	r2, [r3, #172]	; 0xac
        break;
 8007d7a:	e077      	b.n	8007e6c <HAL_TIM_RegisterCallback+0x290>

      case HAL_TIM_COMMUTATION_HALF_CB_ID :
        htim->CommutationHalfCpltCallback          = pCallback;
 8007d7c:	68fb      	ldr	r3, [r7, #12]
 8007d7e:	687a      	ldr	r2, [r7, #4]
 8007d80:	f8c3 20b0 	str.w	r2, [r3, #176]	; 0xb0
        break;
 8007d84:	e072      	b.n	8007e6c <HAL_TIM_RegisterCallback+0x290>

      case HAL_TIM_BREAK_CB_ID :
        htim->BreakCallback                        = pCallback;
 8007d86:	68fb      	ldr	r3, [r7, #12]
 8007d88:	687a      	ldr	r2, [r7, #4]
 8007d8a:	f8c3 20b4 	str.w	r2, [r3, #180]	; 0xb4
        break;
 8007d8e:	e06d      	b.n	8007e6c <HAL_TIM_RegisterCallback+0x290>

      case HAL_TIM_BREAK2_CB_ID :
        htim->Break2Callback                       = pCallback;
 8007d90:	68fb      	ldr	r3, [r7, #12]
 8007d92:	687a      	ldr	r2, [r7, #4]
 8007d94:	f8c3 20b8 	str.w	r2, [r3, #184]	; 0xb8
        break;
 8007d98:	e068      	b.n	8007e6c <HAL_TIM_RegisterCallback+0x290>

      default :
        /* Return error status */
        status = HAL_ERROR;
 8007d9a:	2301      	movs	r3, #1
 8007d9c:	75fb      	strb	r3, [r7, #23]
        break;
 8007d9e:	e065      	b.n	8007e6c <HAL_TIM_RegisterCallback+0x290>
    }
  }
  else if (htim->State == HAL_TIM_STATE_RESET)
 8007da0:	68fb      	ldr	r3, [r7, #12]
 8007da2:	f893 303d 	ldrb.w	r3, [r3, #61]	; 0x3d
 8007da6:	b2db      	uxtb	r3, r3
 8007da8:	2b00      	cmp	r3, #0
 8007daa:	d15d      	bne.n	8007e68 <HAL_TIM_RegisterCallback+0x28c>
  {
    switch (CallbackID)
 8007dac:	7afb      	ldrb	r3, [r7, #11]
 8007dae:	2b0d      	cmp	r3, #13
 8007db0:	d857      	bhi.n	8007e62 <HAL_TIM_RegisterCallback+0x286>
 8007db2:	a201      	add	r2, pc, #4	; (adr r2, 8007db8 <HAL_TIM_RegisterCallback+0x1dc>)
 8007db4:	f852 f023 	ldr.w	pc, [r2, r3, lsl #2]
 8007db8:	08007df1 	.word	0x08007df1
 8007dbc:	08007df9 	.word	0x08007df9
 8007dc0:	08007e01 	.word	0x08007e01
 8007dc4:	08007e09 	.word	0x08007e09
 8007dc8:	08007e11 	.word	0x08007e11
 8007dcc:	08007e19 	.word	0x08007e19
 8007dd0:	08007e21 	.word	0x08007e21
 8007dd4:	08007e29 	.word	0x08007e29
 8007dd8:	08007e31 	.word	0x08007e31
 8007ddc:	08007e39 	.word	0x08007e39
 8007de0:	08007e41 	.word	0x08007e41
 8007de4:	08007e49 	.word	0x08007e49
 8007de8:	08007e51 	.word	0x08007e51
 8007dec:	08007e59 	.word	0x08007e59
    {
      case HAL_TIM_BASE_MSPINIT_CB_ID :
        htim->Base_MspInitCallback         = pCallback;
 8007df0:	68fb      	ldr	r3, [r7, #12]
 8007df2:	687a      	ldr	r2, [r7, #4]
 8007df4:	64da      	str	r2, [r3, #76]	; 0x4c
        break;
 8007df6:	e039      	b.n	8007e6c <HAL_TIM_RegisterCallback+0x290>

      case HAL_TIM_BASE_MSPDEINIT_CB_ID :
        htim->Base_MspDeInitCallback       = pCallback;
 8007df8:	68fb      	ldr	r3, [r7, #12]
 8007dfa:	687a      	ldr	r2, [r7, #4]
 8007dfc:	651a      	str	r2, [r3, #80]	; 0x50
        break;
 8007dfe:	e035      	b.n	8007e6c <HAL_TIM_RegisterCallback+0x290>

      case HAL_TIM_IC_MSPINIT_CB_ID :
        htim->IC_MspInitCallback           = pCallback;
 8007e00:	68fb      	ldr	r3, [r7, #12]
 8007e02:	687a      	ldr	r2, [r7, #4]
 8007e04:	655a      	str	r2, [r3, #84]	; 0x54
        break;
 8007e06:	e031      	b.n	8007e6c <HAL_TIM_RegisterCallback+0x290>

      case HAL_TIM_IC_MSPDEINIT_CB_ID :
        htim->IC_MspDeInitCallback         = pCallback;
 8007e08:	68fb      	ldr	r3, [r7, #12]
 8007e0a:	687a      	ldr	r2, [r7, #4]
 8007e0c:	659a      	str	r2, [r3, #88]	; 0x58
        break;
 8007e0e:	e02d      	b.n	8007e6c <HAL_TIM_RegisterCallback+0x290>

      case HAL_TIM_OC_MSPINIT_CB_ID :
        htim->OC_MspInitCallback           = pCallback;
 8007e10:	68fb      	ldr	r3, [r7, #12]
 8007e12:	687a      	ldr	r2, [r7, #4]
 8007e14:	65da      	str	r2, [r3, #92]	; 0x5c
        break;
 8007e16:	e029      	b.n	8007e6c <HAL_TIM_RegisterCallback+0x290>

      case HAL_TIM_OC_MSPDEINIT_CB_ID :
        htim->OC_MspDeInitCallback         = pCallback;
 8007e18:	68fb      	ldr	r3, [r7, #12]
 8007e1a:	687a      	ldr	r2, [r7, #4]
 8007e1c:	661a      	str	r2, [r3, #96]	; 0x60
        break;
 8007e1e:	e025      	b.n	8007e6c <HAL_TIM_RegisterCallback+0x290>

      case HAL_TIM_PWM_MSPINIT_CB_ID :
        htim->PWM_MspInitCallback          = pCallback;
 8007e20:	68fb      	ldr	r3, [r7, #12]
 8007e22:	687a      	ldr	r2, [r7, #4]
 8007e24:	665a      	str	r2, [r3, #100]	; 0x64
        break;
 8007e26:	e021      	b.n	8007e6c <HAL_TIM_RegisterCallback+0x290>

      case HAL_TIM_PWM_MSPDEINIT_CB_ID :
        htim->PWM_MspDeInitCallback        = pCallback;
 8007e28:	68fb      	ldr	r3, [r7, #12]
 8007e2a:	687a      	ldr	r2, [r7, #4]
 8007e2c:	669a      	str	r2, [r3, #104]	; 0x68
        break;
 8007e2e:	e01d      	b.n	8007e6c <HAL_TIM_RegisterCallback+0x290>

      case HAL_TIM_ONE_PULSE_MSPINIT_CB_ID :
        htim->OnePulse_MspInitCallback     = pCallback;
 8007e30:	68fb      	ldr	r3, [r7, #12]
 8007e32:	687a      	ldr	r2, [r7, #4]
 8007e34:	66da      	str	r2, [r3, #108]	; 0x6c
        break;
 8007e36:	e019      	b.n	8007e6c <HAL_TIM_RegisterCallback+0x290>

      case HAL_TIM_ONE_PULSE_MSPDEINIT_CB_ID :
        htim->OnePulse_MspDeInitCallback   = pCallback;
 8007e38:	68fb      	ldr	r3, [r7, #12]
 8007e3a:	687a      	ldr	r2, [r7, #4]
 8007e3c:	671a      	str	r2, [r3, #112]	; 0x70
        break;
 8007e3e:	e015      	b.n	8007e6c <HAL_TIM_RegisterCallback+0x290>

      case HAL_TIM_ENCODER_MSPINIT_CB_ID :
        htim->Encoder_MspInitCallback      = pCallback;
 8007e40:	68fb      	ldr	r3, [r7, #12]
 8007e42:	687a      	ldr	r2, [r7, #4]
 8007e44:	675a      	str	r2, [r3, #116]	; 0x74
        break;
 8007e46:	e011      	b.n	8007e6c <HAL_TIM_RegisterCallback+0x290>

      case HAL_TIM_ENCODER_MSPDEINIT_CB_ID :
        htim->Encoder_MspDeInitCallback    = pCallback;
 8007e48:	68fb      	ldr	r3, [r7, #12]
 8007e4a:	687a      	ldr	r2, [r7, #4]
 8007e4c:	679a      	str	r2, [r3, #120]	; 0x78
        break;
 8007e4e:	e00d      	b.n	8007e6c <HAL_TIM_RegisterCallback+0x290>

      case HAL_TIM_HALL_SENSOR_MSPINIT_CB_ID :
        htim->HallSensor_MspInitCallback   = pCallback;
 8007e50:	68fb      	ldr	r3, [r7, #12]
 8007e52:	687a      	ldr	r2, [r7, #4]
 8007e54:	67da      	str	r2, [r3, #124]	; 0x7c
        break;
 8007e56:	e009      	b.n	8007e6c <HAL_TIM_RegisterCallback+0x290>

      case HAL_TIM_HALL_SENSOR_MSPDEINIT_CB_ID :
        htim->HallSensor_MspDeInitCallback = pCallback;
 8007e58:	68fb      	ldr	r3, [r7, #12]
 8007e5a:	687a      	ldr	r2, [r7, #4]
 8007e5c:	f8c3 2080 	str.w	r2, [r3, #128]	; 0x80
        break;
 8007e60:	e004      	b.n	8007e6c <HAL_TIM_RegisterCallback+0x290>

      default :
        /* Return error status */
        status = HAL_ERROR;
 8007e62:	2301      	movs	r3, #1
 8007e64:	75fb      	strb	r3, [r7, #23]
        break;
 8007e66:	e001      	b.n	8007e6c <HAL_TIM_RegisterCallback+0x290>
    }
  }
  else
  {
    /* Return error status */
    status = HAL_ERROR;
 8007e68:	2301      	movs	r3, #1
 8007e6a:	75fb      	strb	r3, [r7, #23]
  }

  /* Release Lock */
  __HAL_UNLOCK(htim);
 8007e6c:	68fb      	ldr	r3, [r7, #12]
 8007e6e:	2200      	movs	r2, #0
 8007e70:	f883 203c 	strb.w	r2, [r3, #60]	; 0x3c

  return status;
 8007e74:	7dfb      	ldrb	r3, [r7, #23]
}
 8007e76:	4618      	mov	r0, r3
 8007e78:	371c      	adds	r7, #28
 8007e7a:	46bd      	mov	sp, r7
 8007e7c:	f85d 7b04 	ldr.w	r7, [sp], #4
 8007e80:	4770      	bx	lr
 8007e82:	bf00      	nop

08007e84 <TIM_Base_SetConfig>:
  * @param  TIMx TIM peripheral
  * @param  Structure TIM Base configuration structure
  * @retval None
  */
void TIM_Base_SetConfig(TIM_TypeDef *TIMx, const TIM_Base_InitTypeDef *Structure)
{
 8007e84:	b480      	push	{r7}
 8007e86:	b085      	sub	sp, #20
 8007e88:	af00      	add	r7, sp, #0
 8007e8a:	6078      	str	r0, [r7, #4]
 8007e8c:	6039      	str	r1, [r7, #0]
  uint32_t tmpcr1;
  tmpcr1 = TIMx->CR1;
 8007e8e:	687b      	ldr	r3, [r7, #4]
 8007e90:	681b      	ldr	r3, [r3, #0]
 8007e92:	60fb      	str	r3, [r7, #12]

  /* Set TIM Time Base Unit parameters ---------------------------------------*/
  if (IS_TIM_COUNTER_MODE_SELECT_INSTANCE(TIMx))
 8007e94:	687b      	ldr	r3, [r7, #4]
 8007e96:	4a40      	ldr	r2, [pc, #256]	; (8007f98 <TIM_Base_SetConfig+0x114>)
 8007e98:	4293      	cmp	r3, r2
 8007e9a:	d013      	beq.n	8007ec4 <TIM_Base_SetConfig+0x40>
 8007e9c:	687b      	ldr	r3, [r7, #4]
 8007e9e:	f1b3 4f80 	cmp.w	r3, #1073741824	; 0x40000000
 8007ea2:	d00f      	beq.n	8007ec4 <TIM_Base_SetConfig+0x40>
 8007ea4:	687b      	ldr	r3, [r7, #4]
 8007ea6:	4a3d      	ldr	r2, [pc, #244]	; (8007f9c <TIM_Base_SetConfig+0x118>)
 8007ea8:	4293      	cmp	r3, r2
 8007eaa:	d00b      	beq.n	8007ec4 <TIM_Base_SetConfig+0x40>
 8007eac:	687b      	ldr	r3, [r7, #4]
 8007eae:	4a3c      	ldr	r2, [pc, #240]	; (8007fa0 <TIM_Base_SetConfig+0x11c>)
 8007eb0:	4293      	cmp	r3, r2
 8007eb2:	d007      	beq.n	8007ec4 <TIM_Base_SetConfig+0x40>
 8007eb4:	687b      	ldr	r3, [r7, #4]
 8007eb6:	4a3b      	ldr	r2, [pc, #236]	; (8007fa4 <TIM_Base_SetConfig+0x120>)
 8007eb8:	4293      	cmp	r3, r2
 8007eba:	d003      	beq.n	8007ec4 <TIM_Base_SetConfig+0x40>
 8007ebc:	687b      	ldr	r3, [r7, #4]
 8007ebe:	4a3a      	ldr	r2, [pc, #232]	; (8007fa8 <TIM_Base_SetConfig+0x124>)
 8007ec0:	4293      	cmp	r3, r2
 8007ec2:	d108      	bne.n	8007ed6 <TIM_Base_SetConfig+0x52>
  {
    /* Select the Counter Mode */
    tmpcr1 &= ~(TIM_CR1_DIR | TIM_CR1_CMS);
 8007ec4:	68fb      	ldr	r3, [r7, #12]
 8007ec6:	f023 0370 	bic.w	r3, r3, #112	; 0x70
 8007eca:	60fb      	str	r3, [r7, #12]
    tmpcr1 |= Structure->CounterMode;
 8007ecc:	683b      	ldr	r3, [r7, #0]
 8007ece:	685b      	ldr	r3, [r3, #4]
 8007ed0:	68fa      	ldr	r2, [r7, #12]
 8007ed2:	4313      	orrs	r3, r2
 8007ed4:	60fb      	str	r3, [r7, #12]
  }

  if (IS_TIM_CLOCK_DIVISION_INSTANCE(TIMx))
 8007ed6:	687b      	ldr	r3, [r7, #4]
 8007ed8:	4a2f      	ldr	r2, [pc, #188]	; (8007f98 <TIM_Base_SetConfig+0x114>)
 8007eda:	4293      	cmp	r3, r2
 8007edc:	d02b      	beq.n	8007f36 <TIM_Base_SetConfig+0xb2>
 8007ede:	687b      	ldr	r3, [r7, #4]
 8007ee0:	f1b3 4f80 	cmp.w	r3, #1073741824	; 0x40000000
 8007ee4:	d027      	beq.n	8007f36 <TIM_Base_SetConfig+0xb2>
 8007ee6:	687b      	ldr	r3, [r7, #4]
 8007ee8:	4a2c      	ldr	r2, [pc, #176]	; (8007f9c <TIM_Base_SetConfig+0x118>)
 8007eea:	4293      	cmp	r3, r2
 8007eec:	d023      	beq.n	8007f36 <TIM_Base_SetConfig+0xb2>
 8007eee:	687b      	ldr	r3, [r7, #4]
 8007ef0:	4a2b      	ldr	r2, [pc, #172]	; (8007fa0 <TIM_Base_SetConfig+0x11c>)
 8007ef2:	4293      	cmp	r3, r2
 8007ef4:	d01f      	beq.n	8007f36 <TIM_Base_SetConfig+0xb2>
 8007ef6:	687b      	ldr	r3, [r7, #4]
 8007ef8:	4a2a      	ldr	r2, [pc, #168]	; (8007fa4 <TIM_Base_SetConfig+0x120>)
 8007efa:	4293      	cmp	r3, r2
 8007efc:	d01b      	beq.n	8007f36 <TIM_Base_SetConfig+0xb2>
 8007efe:	687b      	ldr	r3, [r7, #4]
 8007f00:	4a29      	ldr	r2, [pc, #164]	; (8007fa8 <TIM_Base_SetConfig+0x124>)
 8007f02:	4293      	cmp	r3, r2
 8007f04:	d017      	beq.n	8007f36 <TIM_Base_SetConfig+0xb2>
 8007f06:	687b      	ldr	r3, [r7, #4]
 8007f08:	4a28      	ldr	r2, [pc, #160]	; (8007fac <TIM_Base_SetConfig+0x128>)
 8007f0a:	4293      	cmp	r3, r2
 8007f0c:	d013      	beq.n	8007f36 <TIM_Base_SetConfig+0xb2>
 8007f0e:	687b      	ldr	r3, [r7, #4]
 8007f10:	4a27      	ldr	r2, [pc, #156]	; (8007fb0 <TIM_Base_SetConfig+0x12c>)
 8007f12:	4293      	cmp	r3, r2
 8007f14:	d00f      	beq.n	8007f36 <TIM_Base_SetConfig+0xb2>
 8007f16:	687b      	ldr	r3, [r7, #4]
 8007f18:	4a26      	ldr	r2, [pc, #152]	; (8007fb4 <TIM_Base_SetConfig+0x130>)
 8007f1a:	4293      	cmp	r3, r2
 8007f1c:	d00b      	beq.n	8007f36 <TIM_Base_SetConfig+0xb2>
 8007f1e:	687b      	ldr	r3, [r7, #4]
 8007f20:	4a25      	ldr	r2, [pc, #148]	; (8007fb8 <TIM_Base_SetConfig+0x134>)
 8007f22:	4293      	cmp	r3, r2
 8007f24:	d007      	beq.n	8007f36 <TIM_Base_SetConfig+0xb2>
 8007f26:	687b      	ldr	r3, [r7, #4]
 8007f28:	4a24      	ldr	r2, [pc, #144]	; (8007fbc <TIM_Base_SetConfig+0x138>)
 8007f2a:	4293      	cmp	r3, r2
 8007f2c:	d003      	beq.n	8007f36 <TIM_Base_SetConfig+0xb2>
 8007f2e:	687b      	ldr	r3, [r7, #4]
 8007f30:	4a23      	ldr	r2, [pc, #140]	; (8007fc0 <TIM_Base_SetConfig+0x13c>)
 8007f32:	4293      	cmp	r3, r2
 8007f34:	d108      	bne.n	8007f48 <TIM_Base_SetConfig+0xc4>
  {
    /* Set the clock division */
    tmpcr1 &= ~TIM_CR1_CKD;
 8007f36:	68fb      	ldr	r3, [r7, #12]
 8007f38:	f423 7340 	bic.w	r3, r3, #768	; 0x300
 8007f3c:	60fb      	str	r3, [r7, #12]
    tmpcr1 |= (uint32_t)Structure->ClockDivision;
 8007f3e:	683b      	ldr	r3, [r7, #0]
 8007f40:	68db      	ldr	r3, [r3, #12]
 8007f42:	68fa      	ldr	r2, [r7, #12]
 8007f44:	4313      	orrs	r3, r2
 8007f46:	60fb      	str	r3, [r7, #12]
  }

  /* Set the auto-reload preload */
  MODIFY_REG(tmpcr1, TIM_CR1_ARPE, Structure->AutoReloadPreload);
 8007f48:	68fb      	ldr	r3, [r7, #12]
 8007f4a:	f023 0280 	bic.w	r2, r3, #128	; 0x80
 8007f4e:	683b      	ldr	r3, [r7, #0]
 8007f50:	695b      	ldr	r3, [r3, #20]
 8007f52:	4313      	orrs	r3, r2
 8007f54:	60fb      	str	r3, [r7, #12]

  TIMx->CR1 = tmpcr1;
 8007f56:	687b      	ldr	r3, [r7, #4]
 8007f58:	68fa      	ldr	r2, [r7, #12]
 8007f5a:	601a      	str	r2, [r3, #0]

  /* Set the Autoreload value */
  TIMx->ARR = (uint32_t)Structure->Period ;
 8007f5c:	683b      	ldr	r3, [r7, #0]
 8007f5e:	689a      	ldr	r2, [r3, #8]
 8007f60:	687b      	ldr	r3, [r7, #4]
 8007f62:	62da      	str	r2, [r3, #44]	; 0x2c

  /* Set the Prescaler value */
  TIMx->PSC = Structure->Prescaler;
 8007f64:	683b      	ldr	r3, [r7, #0]
 8007f66:	681a      	ldr	r2, [r3, #0]
 8007f68:	687b      	ldr	r3, [r7, #4]
 8007f6a:	629a      	str	r2, [r3, #40]	; 0x28

  if (IS_TIM_REPETITION_COUNTER_INSTANCE(TIMx))
 8007f6c:	687b      	ldr	r3, [r7, #4]
 8007f6e:	4a0a      	ldr	r2, [pc, #40]	; (8007f98 <TIM_Base_SetConfig+0x114>)
 8007f70:	4293      	cmp	r3, r2
 8007f72:	d003      	beq.n	8007f7c <TIM_Base_SetConfig+0xf8>
 8007f74:	687b      	ldr	r3, [r7, #4]
 8007f76:	4a0c      	ldr	r2, [pc, #48]	; (8007fa8 <TIM_Base_SetConfig+0x124>)
 8007f78:	4293      	cmp	r3, r2
 8007f7a:	d103      	bne.n	8007f84 <TIM_Base_SetConfig+0x100>
  {
    /* Set the Repetition Counter value */
    TIMx->RCR = Structure->RepetitionCounter;
 8007f7c:	683b      	ldr	r3, [r7, #0]
 8007f7e:	691a      	ldr	r2, [r3, #16]
 8007f80:	687b      	ldr	r3, [r7, #4]
 8007f82:	631a      	str	r2, [r3, #48]	; 0x30
  }

  /* Generate an update event to reload the Prescaler
     and the repetition counter (only for advanced timer) value immediately */
  TIMx->EGR = TIM_EGR_UG;
 8007f84:	687b      	ldr	r3, [r7, #4]
 8007f86:	2201      	movs	r2, #1
 8007f88:	615a      	str	r2, [r3, #20]
}
 8007f8a:	bf00      	nop
 8007f8c:	3714      	adds	r7, #20
 8007f8e:	46bd      	mov	sp, r7
 8007f90:	f85d 7b04 	ldr.w	r7, [sp], #4
 8007f94:	4770      	bx	lr
 8007f96:	bf00      	nop
 8007f98:	40010000 	.word	0x40010000
 8007f9c:	40000400 	.word	0x40000400
 8007fa0:	40000800 	.word	0x40000800
 8007fa4:	40000c00 	.word	0x40000c00
 8007fa8:	40010400 	.word	0x40010400
 8007fac:	40014000 	.word	0x40014000
 8007fb0:	40014400 	.word	0x40014400
 8007fb4:	40014800 	.word	0x40014800
 8007fb8:	40001800 	.word	0x40001800
 8007fbc:	40001c00 	.word	0x40001c00
 8007fc0:	40002000 	.word	0x40002000

08007fc4 <TIM_TI1_ConfigInputStage>:
  * @param  TIM_ICFilter Specifies the Input Capture Filter.
  *          This parameter must be a value between 0x00 and 0x0F.
  * @retval None
  */
static void TIM_TI1_ConfigInputStage(TIM_TypeDef *TIMx, uint32_t TIM_ICPolarity, uint32_t TIM_ICFilter)
{
 8007fc4:	b480      	push	{r7}
 8007fc6:	b087      	sub	sp, #28
 8007fc8:	af00      	add	r7, sp, #0
 8007fca:	60f8      	str	r0, [r7, #12]
 8007fcc:	60b9      	str	r1, [r7, #8]
 8007fce:	607a      	str	r2, [r7, #4]
  uint32_t tmpccmr1;
  uint32_t tmpccer;

  /* Disable the Channel 1: Reset the CC1E Bit */
  tmpccer = TIMx->CCER;
 8007fd0:	68fb      	ldr	r3, [r7, #12]
 8007fd2:	6a1b      	ldr	r3, [r3, #32]
 8007fd4:	617b      	str	r3, [r7, #20]
  TIMx->CCER &= ~TIM_CCER_CC1E;
 8007fd6:	68fb      	ldr	r3, [r7, #12]
 8007fd8:	6a1b      	ldr	r3, [r3, #32]
 8007fda:	f023 0201 	bic.w	r2, r3, #1
 8007fde:	68fb      	ldr	r3, [r7, #12]
 8007fe0:	621a      	str	r2, [r3, #32]
  tmpccmr1 = TIMx->CCMR1;
 8007fe2:	68fb      	ldr	r3, [r7, #12]
 8007fe4:	699b      	ldr	r3, [r3, #24]
 8007fe6:	613b      	str	r3, [r7, #16]

  /* Set the filter */
  tmpccmr1 &= ~TIM_CCMR1_IC1F;
 8007fe8:	693b      	ldr	r3, [r7, #16]
 8007fea:	f023 03f0 	bic.w	r3, r3, #240	; 0xf0
 8007fee:	613b      	str	r3, [r7, #16]
  tmpccmr1 |= (TIM_ICFilter << 4U);
 8007ff0:	687b      	ldr	r3, [r7, #4]
 8007ff2:	011b      	lsls	r3, r3, #4
 8007ff4:	693a      	ldr	r2, [r7, #16]
 8007ff6:	4313      	orrs	r3, r2
 8007ff8:	613b      	str	r3, [r7, #16]

  /* Select the Polarity and set the CC1E Bit */
  tmpccer &= ~(TIM_CCER_CC1P | TIM_CCER_CC1NP);
 8007ffa:	697b      	ldr	r3, [r7, #20]
 8007ffc:	f023 030a 	bic.w	r3, r3, #10
 8008000:	617b      	str	r3, [r7, #20]
  tmpccer |= TIM_ICPolarity;
 8008002:	697a      	ldr	r2, [r7, #20]
 8008004:	68bb      	ldr	r3, [r7, #8]
 8008006:	4313      	orrs	r3, r2
 8008008:	617b      	str	r3, [r7, #20]

  /* Write to TIMx CCMR1 and CCER registers */
  TIMx->CCMR1 = tmpccmr1;
 800800a:	68fb      	ldr	r3, [r7, #12]
 800800c:	693a      	ldr	r2, [r7, #16]
 800800e:	619a      	str	r2, [r3, #24]
  TIMx->CCER = tmpccer;
 8008010:	68fb      	ldr	r3, [r7, #12]
 8008012:	697a      	ldr	r2, [r7, #20]
 8008014:	621a      	str	r2, [r3, #32]
}
 8008016:	bf00      	nop
 8008018:	371c      	adds	r7, #28
 800801a:	46bd      	mov	sp, r7
 800801c:	f85d 7b04 	ldr.w	r7, [sp], #4
 8008020:	4770      	bx	lr

08008022 <TIM_TI2_ConfigInputStage>:
  * @param  TIM_ICFilter Specifies the Input Capture Filter.
  *          This parameter must be a value between 0x00 and 0x0F.
  * @retval None
  */
static void TIM_TI2_ConfigInputStage(TIM_TypeDef *TIMx, uint32_t TIM_ICPolarity, uint32_t TIM_ICFilter)
{
 8008022:	b480      	push	{r7}
 8008024:	b087      	sub	sp, #28
 8008026:	af00      	add	r7, sp, #0
 8008028:	60f8      	str	r0, [r7, #12]
 800802a:	60b9      	str	r1, [r7, #8]
 800802c:	607a      	str	r2, [r7, #4]
  uint32_t tmpccmr1;
  uint32_t tmpccer;

  /* Disable the Channel 2: Reset the CC2E Bit */
  TIMx->CCER &= ~TIM_CCER_CC2E;
 800802e:	68fb      	ldr	r3, [r7, #12]
 8008030:	6a1b      	ldr	r3, [r3, #32]
 8008032:	f023 0210 	bic.w	r2, r3, #16
 8008036:	68fb      	ldr	r3, [r7, #12]
 8008038:	621a      	str	r2, [r3, #32]
  tmpccmr1 = TIMx->CCMR1;
 800803a:	68fb      	ldr	r3, [r7, #12]
 800803c:	699b      	ldr	r3, [r3, #24]
 800803e:	617b      	str	r3, [r7, #20]
  tmpccer = TIMx->CCER;
 8008040:	68fb      	ldr	r3, [r7, #12]
 8008042:	6a1b      	ldr	r3, [r3, #32]
 8008044:	613b      	str	r3, [r7, #16]

  /* Set the filter */
  tmpccmr1 &= ~TIM_CCMR1_IC2F;
 8008046:	697b      	ldr	r3, [r7, #20]
 8008048:	f423 4370 	bic.w	r3, r3, #61440	; 0xf000
 800804c:	617b      	str	r3, [r7, #20]
  tmpccmr1 |= (TIM_ICFilter << 12U);
 800804e:	687b      	ldr	r3, [r7, #4]
 8008050:	031b      	lsls	r3, r3, #12
 8008052:	697a      	ldr	r2, [r7, #20]
 8008054:	4313      	orrs	r3, r2
 8008056:	617b      	str	r3, [r7, #20]

  /* Select the Polarity and set the CC2E Bit */
  tmpccer &= ~(TIM_CCER_CC2P | TIM_CCER_CC2NP);
 8008058:	693b      	ldr	r3, [r7, #16]
 800805a:	f023 03a0 	bic.w	r3, r3, #160	; 0xa0
 800805e:	613b      	str	r3, [r7, #16]
  tmpccer |= (TIM_ICPolarity << 4U);
 8008060:	68bb      	ldr	r3, [r7, #8]
 8008062:	011b      	lsls	r3, r3, #4
 8008064:	693a      	ldr	r2, [r7, #16]
 8008066:	4313      	orrs	r3, r2
 8008068:	613b      	str	r3, [r7, #16]

  /* Write to TIMx CCMR1 and CCER registers */
  TIMx->CCMR1 = tmpccmr1 ;
 800806a:	68fb      	ldr	r3, [r7, #12]
 800806c:	697a      	ldr	r2, [r7, #20]
 800806e:	619a      	str	r2, [r3, #24]
  TIMx->CCER = tmpccer;
 8008070:	68fb      	ldr	r3, [r7, #12]
 8008072:	693a      	ldr	r2, [r7, #16]
 8008074:	621a      	str	r2, [r3, #32]
}
 8008076:	bf00      	nop
 8008078:	371c      	adds	r7, #28
 800807a:	46bd      	mov	sp, r7
 800807c:	f85d 7b04 	ldr.w	r7, [sp], #4
 8008080:	4770      	bx	lr

08008082 <TIM_ITRx_SetConfig>:
  *            @arg TIM_TS_TI2FP2: Filtered Timer Input 2
  *            @arg TIM_TS_ETRF: External Trigger input
  * @retval None
  */
static void TIM_ITRx_SetConfig(TIM_TypeDef *TIMx, uint32_t InputTriggerSource)
{
 8008082:	b480      	push	{r7}
 8008084:	b085      	sub	sp, #20
 8008086:	af00      	add	r7, sp, #0
 8008088:	6078      	str	r0, [r7, #4]
 800808a:	6039      	str	r1, [r7, #0]
  uint32_t tmpsmcr;

  /* Get the TIMx SMCR register value */
  tmpsmcr = TIMx->SMCR;
 800808c:	687b      	ldr	r3, [r7, #4]
 800808e:	689b      	ldr	r3, [r3, #8]
 8008090:	60fb      	str	r3, [r7, #12]
  /* Reset the TS Bits */
  tmpsmcr &= ~TIM_SMCR_TS;
 8008092:	68fb      	ldr	r3, [r7, #12]
 8008094:	f023 0370 	bic.w	r3, r3, #112	; 0x70
 8008098:	60fb      	str	r3, [r7, #12]
  /* Set the Input Trigger source and the slave mode*/
  tmpsmcr |= (InputTriggerSource | TIM_SLAVEMODE_EXTERNAL1);
 800809a:	683a      	ldr	r2, [r7, #0]
 800809c:	68fb      	ldr	r3, [r7, #12]
 800809e:	4313      	orrs	r3, r2
 80080a0:	f043 0307 	orr.w	r3, r3, #7
 80080a4:	60fb      	str	r3, [r7, #12]
  /* Write to TIMx SMCR */
  TIMx->SMCR = tmpsmcr;
 80080a6:	687b      	ldr	r3, [r7, #4]
 80080a8:	68fa      	ldr	r2, [r7, #12]
 80080aa:	609a      	str	r2, [r3, #8]
}
 80080ac:	bf00      	nop
 80080ae:	3714      	adds	r7, #20
 80080b0:	46bd      	mov	sp, r7
 80080b2:	f85d 7b04 	ldr.w	r7, [sp], #4
 80080b6:	4770      	bx	lr

080080b8 <TIM_ETR_SetConfig>:
  *          This parameter must be a value between 0x00 and 0x0F
  * @retval None
  */
void TIM_ETR_SetConfig(TIM_TypeDef *TIMx, uint32_t TIM_ExtTRGPrescaler,
                       uint32_t TIM_ExtTRGPolarity, uint32_t ExtTRGFilter)
{
 80080b8:	b480      	push	{r7}
 80080ba:	b087      	sub	sp, #28
 80080bc:	af00      	add	r7, sp, #0
 80080be:	60f8      	str	r0, [r7, #12]
 80080c0:	60b9      	str	r1, [r7, #8]
 80080c2:	607a      	str	r2, [r7, #4]
 80080c4:	603b      	str	r3, [r7, #0]
  uint32_t tmpsmcr;

  tmpsmcr = TIMx->SMCR;
 80080c6:	68fb      	ldr	r3, [r7, #12]
 80080c8:	689b      	ldr	r3, [r3, #8]
 80080ca:	617b      	str	r3, [r7, #20]

  /* Reset the ETR Bits */
  tmpsmcr &= ~(TIM_SMCR_ETF | TIM_SMCR_ETPS | TIM_SMCR_ECE | TIM_SMCR_ETP);
 80080cc:	697b      	ldr	r3, [r7, #20]
 80080ce:	f423 437f 	bic.w	r3, r3, #65280	; 0xff00
 80080d2:	617b      	str	r3, [r7, #20]

  /* Set the Prescaler, the Filter value and the Polarity */
  tmpsmcr |= (uint32_t)(TIM_ExtTRGPrescaler | (TIM_ExtTRGPolarity | (ExtTRGFilter << 8U)));
 80080d4:	683b      	ldr	r3, [r7, #0]
 80080d6:	021a      	lsls	r2, r3, #8
 80080d8:	687b      	ldr	r3, [r7, #4]
 80080da:	431a      	orrs	r2, r3
 80080dc:	68bb      	ldr	r3, [r7, #8]
 80080de:	4313      	orrs	r3, r2
 80080e0:	697a      	ldr	r2, [r7, #20]
 80080e2:	4313      	orrs	r3, r2
 80080e4:	617b      	str	r3, [r7, #20]

  /* Write to TIMx SMCR */
  TIMx->SMCR = tmpsmcr;
 80080e6:	68fb      	ldr	r3, [r7, #12]
 80080e8:	697a      	ldr	r2, [r7, #20]
 80080ea:	609a      	str	r2, [r3, #8]
}
 80080ec:	bf00      	nop
 80080ee:	371c      	adds	r7, #28
 80080f0:	46bd      	mov	sp, r7
 80080f2:	f85d 7b04 	ldr.w	r7, [sp], #4
 80080f6:	4770      	bx	lr

080080f8 <TIM_ResetCallback>:
  * @param  htim pointer to a TIM_HandleTypeDef structure that contains
  *                the configuration information for TIM module.
  * @retval None
  */
void TIM_ResetCallback(TIM_HandleTypeDef *htim)
{
 80080f8:	b480      	push	{r7}
 80080fa:	b083      	sub	sp, #12
 80080fc:	af00      	add	r7, sp, #0
 80080fe:	6078      	str	r0, [r7, #4]
  /* Reset the TIM callback to the legacy weak callbacks */
  htim->PeriodElapsedCallback             = HAL_TIM_PeriodElapsedCallback;
 8008100:	687b      	ldr	r3, [r7, #4]
 8008102:	4a1e      	ldr	r2, [pc, #120]	; (800817c <TIM_ResetCallback+0x84>)
 8008104:	f8c3 2084 	str.w	r2, [r3, #132]	; 0x84
  htim->PeriodElapsedHalfCpltCallback     = HAL_TIM_PeriodElapsedHalfCpltCallback;
 8008108:	687b      	ldr	r3, [r7, #4]
 800810a:	4a1d      	ldr	r2, [pc, #116]	; (8008180 <TIM_ResetCallback+0x88>)
 800810c:	f8c3 2088 	str.w	r2, [r3, #136]	; 0x88
  htim->TriggerCallback                   = HAL_TIM_TriggerCallback;
 8008110:	687b      	ldr	r3, [r7, #4]
 8008112:	4a1c      	ldr	r2, [pc, #112]	; (8008184 <TIM_ResetCallback+0x8c>)
 8008114:	f8c3 208c 	str.w	r2, [r3, #140]	; 0x8c
  htim->TriggerHalfCpltCallback           = HAL_TIM_TriggerHalfCpltCallback;
 8008118:	687b      	ldr	r3, [r7, #4]
 800811a:	4a1b      	ldr	r2, [pc, #108]	; (8008188 <TIM_ResetCallback+0x90>)
 800811c:	f8c3 2090 	str.w	r2, [r3, #144]	; 0x90
  htim->IC_CaptureCallback                = HAL_TIM_IC_CaptureCallback;
 8008120:	687b      	ldr	r3, [r7, #4]
 8008122:	4a1a      	ldr	r2, [pc, #104]	; (800818c <TIM_ResetCallback+0x94>)
 8008124:	f8c3 2094 	str.w	r2, [r3, #148]	; 0x94
  htim->IC_CaptureHalfCpltCallback        = HAL_TIM_IC_CaptureHalfCpltCallback;
 8008128:	687b      	ldr	r3, [r7, #4]
 800812a:	4a19      	ldr	r2, [pc, #100]	; (8008190 <TIM_ResetCallback+0x98>)
 800812c:	f8c3 2098 	str.w	r2, [r3, #152]	; 0x98
  htim->OC_DelayElapsedCallback           = HAL_TIM_OC_DelayElapsedCallback;
 8008130:	687b      	ldr	r3, [r7, #4]
 8008132:	4a18      	ldr	r2, [pc, #96]	; (8008194 <TIM_ResetCallback+0x9c>)
 8008134:	f8c3 209c 	str.w	r2, [r3, #156]	; 0x9c
  htim->PWM_PulseFinishedCallback         = HAL_TIM_PWM_PulseFinishedCallback;
 8008138:	687b      	ldr	r3, [r7, #4]
 800813a:	4a17      	ldr	r2, [pc, #92]	; (8008198 <TIM_ResetCallback+0xa0>)
 800813c:	f8c3 20a0 	str.w	r2, [r3, #160]	; 0xa0
  htim->PWM_PulseFinishedHalfCpltCallback = HAL_TIM_PWM_PulseFinishedHalfCpltCallback;
 8008140:	687b      	ldr	r3, [r7, #4]
 8008142:	4a16      	ldr	r2, [pc, #88]	; (800819c <TIM_ResetCallback+0xa4>)
 8008144:	f8c3 20a4 	str.w	r2, [r3, #164]	; 0xa4
  htim->ErrorCallback                     = HAL_TIM_ErrorCallback;
 8008148:	687b      	ldr	r3, [r7, #4]
 800814a:	4a15      	ldr	r2, [pc, #84]	; (80081a0 <TIM_ResetCallback+0xa8>)
 800814c:	f8c3 20a8 	str.w	r2, [r3, #168]	; 0xa8
  htim->CommutationCallback               = HAL_TIMEx_CommutCallback;
 8008150:	687b      	ldr	r3, [r7, #4]
 8008152:	4a14      	ldr	r2, [pc, #80]	; (80081a4 <TIM_ResetCallback+0xac>)
 8008154:	f8c3 20ac 	str.w	r2, [r3, #172]	; 0xac
  htim->CommutationHalfCpltCallback       = HAL_TIMEx_CommutHalfCpltCallback;
 8008158:	687b      	ldr	r3, [r7, #4]
 800815a:	4a13      	ldr	r2, [pc, #76]	; (80081a8 <TIM_ResetCallback+0xb0>)
 800815c:	f8c3 20b0 	str.w	r2, [r3, #176]	; 0xb0
  htim->BreakCallback                     = HAL_TIMEx_BreakCallback;
 8008160:	687b      	ldr	r3, [r7, #4]
 8008162:	4a12      	ldr	r2, [pc, #72]	; (80081ac <TIM_ResetCallback+0xb4>)
 8008164:	f8c3 20b4 	str.w	r2, [r3, #180]	; 0xb4
  htim->Break2Callback                    = HAL_TIMEx_Break2Callback;
 8008168:	687b      	ldr	r3, [r7, #4]
 800816a:	4a11      	ldr	r2, [pc, #68]	; (80081b0 <TIM_ResetCallback+0xb8>)
 800816c:	f8c3 20b8 	str.w	r2, [r3, #184]	; 0xb8
}
 8008170:	bf00      	nop
 8008172:	370c      	adds	r7, #12
 8008174:	46bd      	mov	sp, r7
 8008176:	f85d 7b04 	ldr.w	r7, [sp], #4
 800817a:	4770      	bx	lr
 800817c:	08007b15 	.word	0x08007b15
 8008180:	08007b29 	.word	0x08007b29
 8008184:	08007ba1 	.word	0x08007ba1
 8008188:	08007bb5 	.word	0x08007bb5
 800818c:	08007b51 	.word	0x08007b51
 8008190:	08007b65 	.word	0x08007b65
 8008194:	08007b3d 	.word	0x08007b3d
 8008198:	08007b79 	.word	0x08007b79
 800819c:	08007b8d 	.word	0x08007b8d
 80081a0:	08007bc9 	.word	0x08007bc9
 80081a4:	080082d1 	.word	0x080082d1
 80081a8:	080082e5 	.word	0x080082e5
 80081ac:	080082f9 	.word	0x080082f9
 80081b0:	0800830d 	.word	0x0800830d

080081b4 <HAL_TIMEx_MasterConfigSynchronization>:
  *         mode.
  * @retval HAL status
  */
HAL_StatusTypeDef HAL_TIMEx_MasterConfigSynchronization(TIM_HandleTypeDef *htim,
                                                        const TIM_MasterConfigTypeDef *sMasterConfig)
{
 80081b4:	b480      	push	{r7}
 80081b6:	b085      	sub	sp, #20
 80081b8:	af00      	add	r7, sp, #0
 80081ba:	6078      	str	r0, [r7, #4]
 80081bc:	6039      	str	r1, [r7, #0]
  assert_param(IS_TIM_MASTER_INSTANCE(htim->Instance));
  assert_param(IS_TIM_TRGO_SOURCE(sMasterConfig->MasterOutputTrigger));
  assert_param(IS_TIM_MSM_STATE(sMasterConfig->MasterSlaveMode));

  /* Check input state */
  __HAL_LOCK(htim);
 80081be:	687b      	ldr	r3, [r7, #4]
 80081c0:	f893 303c 	ldrb.w	r3, [r3, #60]	; 0x3c
 80081c4:	2b01      	cmp	r3, #1
 80081c6:	d101      	bne.n	80081cc <HAL_TIMEx_MasterConfigSynchronization+0x18>
 80081c8:	2302      	movs	r3, #2
 80081ca:	e06d      	b.n	80082a8 <HAL_TIMEx_MasterConfigSynchronization+0xf4>
 80081cc:	687b      	ldr	r3, [r7, #4]
 80081ce:	2201      	movs	r2, #1
 80081d0:	f883 203c 	strb.w	r2, [r3, #60]	; 0x3c

  /* Change the handler state */
  htim->State = HAL_TIM_STATE_BUSY;
 80081d4:	687b      	ldr	r3, [r7, #4]
 80081d6:	2202      	movs	r2, #2
 80081d8:	f883 203d 	strb.w	r2, [r3, #61]	; 0x3d

  /* Get the TIMx CR2 register value */
  tmpcr2 = htim->Instance->CR2;
 80081dc:	687b      	ldr	r3, [r7, #4]
 80081de:	681b      	ldr	r3, [r3, #0]
 80081e0:	685b      	ldr	r3, [r3, #4]
 80081e2:	60fb      	str	r3, [r7, #12]

  /* Get the TIMx SMCR register value */
  tmpsmcr = htim->Instance->SMCR;
 80081e4:	687b      	ldr	r3, [r7, #4]
 80081e6:	681b      	ldr	r3, [r3, #0]
 80081e8:	689b      	ldr	r3, [r3, #8]
 80081ea:	60bb      	str	r3, [r7, #8]

  /* If the timer supports ADC synchronization through TRGO2, set the master mode selection 2 */
  if (IS_TIM_TRGO2_INSTANCE(htim->Instance))
 80081ec:	687b      	ldr	r3, [r7, #4]
 80081ee:	681b      	ldr	r3, [r3, #0]
 80081f0:	4a30      	ldr	r2, [pc, #192]	; (80082b4 <HAL_TIMEx_MasterConfigSynchronization+0x100>)
 80081f2:	4293      	cmp	r3, r2
 80081f4:	d004      	beq.n	8008200 <HAL_TIMEx_MasterConfigSynchronization+0x4c>
 80081f6:	687b      	ldr	r3, [r7, #4]
 80081f8:	681b      	ldr	r3, [r3, #0]
 80081fa:	4a2f      	ldr	r2, [pc, #188]	; (80082b8 <HAL_TIMEx_MasterConfigSynchronization+0x104>)
 80081fc:	4293      	cmp	r3, r2
 80081fe:	d108      	bne.n	8008212 <HAL_TIMEx_MasterConfigSynchronization+0x5e>
  {
    /* Check the parameters */
    assert_param(IS_TIM_TRGO2_SOURCE(sMasterConfig->MasterOutputTrigger2));

    /* Clear the MMS2 bits */
    tmpcr2 &= ~TIM_CR2_MMS2;
 8008200:	68fb      	ldr	r3, [r7, #12]
 8008202:	f423 0370 	bic.w	r3, r3, #15728640	; 0xf00000
 8008206:	60fb      	str	r3, [r7, #12]
    /* Select the TRGO2 source*/
    tmpcr2 |= sMasterConfig->MasterOutputTrigger2;
 8008208:	683b      	ldr	r3, [r7, #0]
 800820a:	685b      	ldr	r3, [r3, #4]
 800820c:	68fa      	ldr	r2, [r7, #12]
 800820e:	4313      	orrs	r3, r2
 8008210:	60fb      	str	r3, [r7, #12]
  }

  /* Reset the MMS Bits */
  tmpcr2 &= ~TIM_CR2_MMS;
 8008212:	68fb      	ldr	r3, [r7, #12]
 8008214:	f023 0370 	bic.w	r3, r3, #112	; 0x70
 8008218:	60fb      	str	r3, [r7, #12]
  /* Select the TRGO source */
  tmpcr2 |=  sMasterConfig->MasterOutputTrigger;
 800821a:	683b      	ldr	r3, [r7, #0]
 800821c:	681b      	ldr	r3, [r3, #0]
 800821e:	68fa      	ldr	r2, [r7, #12]
 8008220:	4313      	orrs	r3, r2
 8008222:	60fb      	str	r3, [r7, #12]

  /* Update TIMx CR2 */
  htim->Instance->CR2 = tmpcr2;
 8008224:	687b      	ldr	r3, [r7, #4]
 8008226:	681b      	ldr	r3, [r3, #0]
 8008228:	68fa      	ldr	r2, [r7, #12]
 800822a:	605a      	str	r2, [r3, #4]

  if (IS_TIM_SLAVE_INSTANCE(htim->Instance))
 800822c:	687b      	ldr	r3, [r7, #4]
 800822e:	681b      	ldr	r3, [r3, #0]
 8008230:	4a20      	ldr	r2, [pc, #128]	; (80082b4 <HAL_TIMEx_MasterConfigSynchronization+0x100>)
 8008232:	4293      	cmp	r3, r2
 8008234:	d022      	beq.n	800827c <HAL_TIMEx_MasterConfigSynchronization+0xc8>
 8008236:	687b      	ldr	r3, [r7, #4]
 8008238:	681b      	ldr	r3, [r3, #0]
 800823a:	f1b3 4f80 	cmp.w	r3, #1073741824	; 0x40000000
 800823e:	d01d      	beq.n	800827c <HAL_TIMEx_MasterConfigSynchronization+0xc8>
 8008240:	687b      	ldr	r3, [r7, #4]
 8008242:	681b      	ldr	r3, [r3, #0]
 8008244:	4a1d      	ldr	r2, [pc, #116]	; (80082bc <HAL_TIMEx_MasterConfigSynchronization+0x108>)
 8008246:	4293      	cmp	r3, r2
 8008248:	d018      	beq.n	800827c <HAL_TIMEx_MasterConfigSynchronization+0xc8>
 800824a:	687b      	ldr	r3, [r7, #4]
 800824c:	681b      	ldr	r3, [r3, #0]
 800824e:	4a1c      	ldr	r2, [pc, #112]	; (80082c0 <HAL_TIMEx_MasterConfigSynchronization+0x10c>)
 8008250:	4293      	cmp	r3, r2
 8008252:	d013      	beq.n	800827c <HAL_TIMEx_MasterConfigSynchronization+0xc8>
 8008254:	687b      	ldr	r3, [r7, #4]
 8008256:	681b      	ldr	r3, [r3, #0]
 8008258:	4a1a      	ldr	r2, [pc, #104]	; (80082c4 <HAL_TIMEx_MasterConfigSynchronization+0x110>)
 800825a:	4293      	cmp	r3, r2
 800825c:	d00e      	beq.n	800827c <HAL_TIMEx_MasterConfigSynchronization+0xc8>
 800825e:	687b      	ldr	r3, [r7, #4]
 8008260:	681b      	ldr	r3, [r3, #0]
 8008262:	4a15      	ldr	r2, [pc, #84]	; (80082b8 <HAL_TIMEx_MasterConfigSynchronization+0x104>)
 8008264:	4293      	cmp	r3, r2
 8008266:	d009      	beq.n	800827c <HAL_TIMEx_MasterConfigSynchronization+0xc8>
 8008268:	687b      	ldr	r3, [r7, #4]
 800826a:	681b      	ldr	r3, [r3, #0]
 800826c:	4a16      	ldr	r2, [pc, #88]	; (80082c8 <HAL_TIMEx_MasterConfigSynchronization+0x114>)
 800826e:	4293      	cmp	r3, r2
 8008270:	d004      	beq.n	800827c <HAL_TIMEx_MasterConfigSynchronization+0xc8>
 8008272:	687b      	ldr	r3, [r7, #4]
 8008274:	681b      	ldr	r3, [r3, #0]
 8008276:	4a15      	ldr	r2, [pc, #84]	; (80082cc <HAL_TIMEx_MasterConfigSynchronization+0x118>)
 8008278:	4293      	cmp	r3, r2
 800827a:	d10c      	bne.n	8008296 <HAL_TIMEx_MasterConfigSynchronization+0xe2>
  {
    /* Reset the MSM Bit */
    tmpsmcr &= ~TIM_SMCR_MSM;
 800827c:	68bb      	ldr	r3, [r7, #8]
 800827e:	f023 0380 	bic.w	r3, r3, #128	; 0x80
 8008282:	60bb      	str	r3, [r7, #8]
    /* Set master mode */
    tmpsmcr |= sMasterConfig->MasterSlaveMode;
 8008284:	683b      	ldr	r3, [r7, #0]
 8008286:	689b      	ldr	r3, [r3, #8]
 8008288:	68ba      	ldr	r2, [r7, #8]
 800828a:	4313      	orrs	r3, r2
 800828c:	60bb      	str	r3, [r7, #8]

    /* Update TIMx SMCR */
    htim->Instance->SMCR = tmpsmcr;
 800828e:	687b      	ldr	r3, [r7, #4]
 8008290:	681b      	ldr	r3, [r3, #0]
 8008292:	68ba      	ldr	r2, [r7, #8]
 8008294:	609a      	str	r2, [r3, #8]
  }

  /* Change the htim state */
  htim->State = HAL_TIM_STATE_READY;
 8008296:	687b      	ldr	r3, [r7, #4]
 8008298:	2201      	movs	r2, #1
 800829a:	f883 203d 	strb.w	r2, [r3, #61]	; 0x3d

  __HAL_UNLOCK(htim);
 800829e:	687b      	ldr	r3, [r7, #4]
 80082a0:	2200      	movs	r2, #0
 80082a2:	f883 203c 	strb.w	r2, [r3, #60]	; 0x3c

  return HAL_OK;
 80082a6:	2300      	movs	r3, #0
}
 80082a8:	4618      	mov	r0, r3
 80082aa:	3714      	adds	r7, #20
 80082ac:	46bd      	mov	sp, r7
 80082ae:	f85d 7b04 	ldr.w	r7, [sp], #4
 80082b2:	4770      	bx	lr
 80082b4:	40010000 	.word	0x40010000
 80082b8:	40010400 	.word	0x40010400
 80082bc:	40000400 	.word	0x40000400
 80082c0:	40000800 	.word	0x40000800
 80082c4:	40000c00 	.word	0x40000c00
 80082c8:	40014000 	.word	0x40014000
 80082cc:	40001800 	.word	0x40001800

080082d0 <HAL_TIMEx_CommutCallback>:
  * @brief  Hall commutation changed callback in non-blocking mode
  * @param  htim TIM handle
  * @retval None
  */
__weak void HAL_TIMEx_CommutCallback(TIM_HandleTypeDef *htim)
{
 80082d0:	b480      	push	{r7}
 80082d2:	b083      	sub	sp, #12
 80082d4:	af00      	add	r7, sp, #0
 80082d6:	6078      	str	r0, [r7, #4]
  UNUSED(htim);

  /* NOTE : This function should not be modified, when the callback is needed,
            the HAL_TIMEx_CommutCallback could be implemented in the user file
   */
}
 80082d8:	bf00      	nop
 80082da:	370c      	adds	r7, #12
 80082dc:	46bd      	mov	sp, r7
 80082de:	f85d 7b04 	ldr.w	r7, [sp], #4
 80082e2:	4770      	bx	lr

080082e4 <HAL_TIMEx_CommutHalfCpltCallback>:
  * @brief  Hall commutation changed half complete callback in non-blocking mode
  * @param  htim TIM handle
  * @retval None
  */
__weak void HAL_TIMEx_CommutHalfCpltCallback(TIM_HandleTypeDef *htim)
{
 80082e4:	b480      	push	{r7}
 80082e6:	b083      	sub	sp, #12
 80082e8:	af00      	add	r7, sp, #0
 80082ea:	6078      	str	r0, [r7, #4]
  UNUSED(htim);

  /* NOTE : This function should not be modified, when the callback is needed,
            the HAL_TIMEx_CommutHalfCpltCallback could be implemented in the user file
   */
}
 80082ec:	bf00      	nop
 80082ee:	370c      	adds	r7, #12
 80082f0:	46bd      	mov	sp, r7
 80082f2:	f85d 7b04 	ldr.w	r7, [sp], #4
 80082f6:	4770      	bx	lr

080082f8 <HAL_TIMEx_BreakCallback>:
  * @brief  Hall Break detection callback in non-blocking mode
  * @param  htim TIM handle
  * @retval None
  */
__weak void HAL_TIMEx_BreakCallback(TIM_HandleTypeDef *htim)
{
 80082f8:	b480      	push	{r7}
 80082fa:	b083      	sub	sp, #12
 80082fc:	af00      	add	r7, sp, #0
 80082fe:	6078      	str	r0, [r7, #4]
  UNUSED(htim);

  /* NOTE : This function should not be modified, when the callback is needed,
            the HAL_TIMEx_BreakCallback could be implemented in the user file
   */
}
 8008300:	bf00      	nop
 8008302:	370c      	adds	r7, #12
 8008304:	46bd      	mov	sp, r7
 8008306:	f85d 7b04 	ldr.w	r7, [sp], #4
 800830a:	4770      	bx	lr

0800830c <HAL_TIMEx_Break2Callback>:
  * @brief  Hall Break2 detection callback in non blocking mode
  * @param  htim: TIM handle
  * @retval None
  */
__weak void HAL_TIMEx_Break2Callback(TIM_HandleTypeDef *htim)
{
 800830c:	b480      	push	{r7}
 800830e:	b083      	sub	sp, #12
 8008310:	af00      	add	r7, sp, #0
 8008312:	6078      	str	r0, [r7, #4]
  UNUSED(htim);

  /* NOTE : This function Should not be modified, when the callback is needed,
            the HAL_TIMEx_Break2Callback could be implemented in the user file
   */
}
 8008314:	bf00      	nop
 8008316:	370c      	adds	r7, #12
 8008318:	46bd      	mov	sp, r7
 800831a:	f85d 7b04 	ldr.w	r7, [sp], #4
 800831e:	4770      	bx	lr

08008320 <HAL_UART_Init>:
  *        parameters in the UART_InitTypeDef and initialize the associated handle.
  * @param huart UART handle.
  * @retval HAL status
  */
HAL_StatusTypeDef HAL_UART_Init(UART_HandleTypeDef *huart)
{
 8008320:	b580      	push	{r7, lr}
 8008322:	b082      	sub	sp, #8
 8008324:	af00      	add	r7, sp, #0
 8008326:	6078      	str	r0, [r7, #4]
  /* Check the UART handle allocation */
  if (huart == NULL)
 8008328:	687b      	ldr	r3, [r7, #4]
 800832a:	2b00      	cmp	r3, #0
 800832c:	d101      	bne.n	8008332 <HAL_UART_Init+0x12>
  {
    return HAL_ERROR;
 800832e:	2301      	movs	r3, #1
 8008330:	e04e      	b.n	80083d0 <HAL_UART_Init+0xb0>
  {
    /* Check the parameters */
    assert_param(IS_UART_INSTANCE(huart->Instance));
  }

  if (huart->gState == HAL_UART_STATE_RESET)
 8008332:	687b      	ldr	r3, [r7, #4]
 8008334:	6fdb      	ldr	r3, [r3, #124]	; 0x7c
 8008336:	2b00      	cmp	r3, #0
 8008338:	d114      	bne.n	8008364 <HAL_UART_Init+0x44>
  {
    /* Allocate lock resource and initialize it */
    huart->Lock = HAL_UNLOCKED;
 800833a:	687b      	ldr	r3, [r7, #4]
 800833c:	2200      	movs	r2, #0
 800833e:	f883 2078 	strb.w	r2, [r3, #120]	; 0x78

#if (USE_HAL_UART_REGISTER_CALLBACKS == 1)
    UART_InitCallbacksToDefault(huart);
 8008342:	6878      	ldr	r0, [r7, #4]
 8008344:	f000 fb82 	bl	8008a4c <UART_InitCallbacksToDefault>

    if (huart->MspInitCallback == NULL)
 8008348:	687b      	ldr	r3, [r7, #4]
 800834a:	f8d3 30ac 	ldr.w	r3, [r3, #172]	; 0xac
 800834e:	2b00      	cmp	r3, #0
 8008350:	d103      	bne.n	800835a <HAL_UART_Init+0x3a>
    {
      huart->MspInitCallback = HAL_UART_MspInit;
 8008352:	687b      	ldr	r3, [r7, #4]
 8008354:	4a20      	ldr	r2, [pc, #128]	; (80083d8 <HAL_UART_Init+0xb8>)
 8008356:	f8c3 20ac 	str.w	r2, [r3, #172]	; 0xac
    }

    /* Init the low level hardware */
    huart->MspInitCallback(huart);
 800835a:	687b      	ldr	r3, [r7, #4]
 800835c:	f8d3 30ac 	ldr.w	r3, [r3, #172]	; 0xac
 8008360:	6878      	ldr	r0, [r7, #4]
 8008362:	4798      	blx	r3
    /* Init the low level hardware : GPIO, CLOCK */
    HAL_UART_MspInit(huart);
#endif /* (USE_HAL_UART_REGISTER_CALLBACKS) */
  }

  huart->gState = HAL_UART_STATE_BUSY;
 8008364:	687b      	ldr	r3, [r7, #4]
 8008366:	2224      	movs	r2, #36	; 0x24
 8008368:	67da      	str	r2, [r3, #124]	; 0x7c

  __HAL_UART_DISABLE(huart);
 800836a:	687b      	ldr	r3, [r7, #4]
 800836c:	681b      	ldr	r3, [r3, #0]
 800836e:	681a      	ldr	r2, [r3, #0]
 8008370:	687b      	ldr	r3, [r7, #4]
 8008372:	681b      	ldr	r3, [r3, #0]
 8008374:	f022 0201 	bic.w	r2, r2, #1
 8008378:	601a      	str	r2, [r3, #0]

  /* Set the UART Communication parameters */
  if (UART_SetConfig(huart) == HAL_ERROR)
 800837a:	6878      	ldr	r0, [r7, #4]
 800837c:	f000 fba6 	bl	8008acc <UART_SetConfig>
 8008380:	4603      	mov	r3, r0
 8008382:	2b01      	cmp	r3, #1
 8008384:	d101      	bne.n	800838a <HAL_UART_Init+0x6a>
  {
    return HAL_ERROR;
 8008386:	2301      	movs	r3, #1
 8008388:	e022      	b.n	80083d0 <HAL_UART_Init+0xb0>
  }

  if (huart->AdvancedInit.AdvFeatureInit != UART_ADVFEATURE_NO_INIT)
 800838a:	687b      	ldr	r3, [r7, #4]
 800838c:	6a5b      	ldr	r3, [r3, #36]	; 0x24
 800838e:	2b00      	cmp	r3, #0
 8008390:	d002      	beq.n	8008398 <HAL_UART_Init+0x78>
  {
    UART_AdvFeatureConfig(huart);
 8008392:	6878      	ldr	r0, [r7, #4]
 8008394:	f000 fdfe 	bl	8008f94 <UART_AdvFeatureConfig>
  }

  /* In asynchronous mode, the following bits must be kept cleared:
  - LINEN and CLKEN bits in the USART_CR2 register,
  - SCEN, HDSEL and IREN  bits in the USART_CR3 register.*/
  CLEAR_BIT(huart->Instance->CR2, (USART_CR2_LINEN | USART_CR2_CLKEN));
 8008398:	687b      	ldr	r3, [r7, #4]
 800839a:	681b      	ldr	r3, [r3, #0]
 800839c:	685a      	ldr	r2, [r3, #4]
 800839e:	687b      	ldr	r3, [r7, #4]
 80083a0:	681b      	ldr	r3, [r3, #0]
 80083a2:	f422 4290 	bic.w	r2, r2, #18432	; 0x4800
 80083a6:	605a      	str	r2, [r3, #4]
  CLEAR_BIT(huart->Instance->CR3, (USART_CR3_SCEN | USART_CR3_HDSEL | USART_CR3_IREN));
 80083a8:	687b      	ldr	r3, [r7, #4]
 80083aa:	681b      	ldr	r3, [r3, #0]
 80083ac:	689a      	ldr	r2, [r3, #8]
 80083ae:	687b      	ldr	r3, [r7, #4]
 80083b0:	681b      	ldr	r3, [r3, #0]
 80083b2:	f022 022a 	bic.w	r2, r2, #42	; 0x2a
 80083b6:	609a      	str	r2, [r3, #8]

  __HAL_UART_ENABLE(huart);
 80083b8:	687b      	ldr	r3, [r7, #4]
 80083ba:	681b      	ldr	r3, [r3, #0]
 80083bc:	681a      	ldr	r2, [r3, #0]
 80083be:	687b      	ldr	r3, [r7, #4]
 80083c0:	681b      	ldr	r3, [r3, #0]
 80083c2:	f042 0201 	orr.w	r2, r2, #1
 80083c6:	601a      	str	r2, [r3, #0]

  /* TEACK and/or REACK to check before moving huart->gState and huart->RxState to Ready */
  return (UART_CheckIdleState(huart));
 80083c8:	6878      	ldr	r0, [r7, #4]
 80083ca:	f000 fe85 	bl	80090d8 <UART_CheckIdleState>
 80083ce:	4603      	mov	r3, r0
}
 80083d0:	4618      	mov	r0, r3
 80083d2:	3708      	adds	r7, #8
 80083d4:	46bd      	mov	sp, r7
 80083d6:	bd80      	pop	{r7, pc}
 80083d8:	08004a21 	.word	0x08004a21

080083dc <HAL_UART_IRQHandler>:
  * @brief Handle UART interrupt request.
  * @param huart UART handle.
  * @retval None
  */
void HAL_UART_IRQHandler(UART_HandleTypeDef *huart)
{
 80083dc:	b580      	push	{r7, lr}
 80083de:	b0ba      	sub	sp, #232	; 0xe8
 80083e0:	af00      	add	r7, sp, #0
 80083e2:	6078      	str	r0, [r7, #4]
  uint32_t isrflags   = READ_REG(huart->Instance->ISR);
 80083e4:	687b      	ldr	r3, [r7, #4]
 80083e6:	681b      	ldr	r3, [r3, #0]
 80083e8:	69db      	ldr	r3, [r3, #28]
 80083ea:	f8c7 30e4 	str.w	r3, [r7, #228]	; 0xe4
  uint32_t cr1its     = READ_REG(huart->Instance->CR1);
 80083ee:	687b      	ldr	r3, [r7, #4]
 80083f0:	681b      	ldr	r3, [r3, #0]
 80083f2:	681b      	ldr	r3, [r3, #0]
 80083f4:	f8c7 30e0 	str.w	r3, [r7, #224]	; 0xe0
  uint32_t cr3its     = READ_REG(huart->Instance->CR3);
 80083f8:	687b      	ldr	r3, [r7, #4]
 80083fa:	681b      	ldr	r3, [r3, #0]
 80083fc:	689b      	ldr	r3, [r3, #8]
 80083fe:	f8c7 30dc 	str.w	r3, [r7, #220]	; 0xdc

  uint32_t errorflags;
  uint32_t errorcode;

  /* If no error occurs */
  errorflags = (isrflags & (uint32_t)(USART_ISR_PE | USART_ISR_FE | USART_ISR_ORE | USART_ISR_NE | USART_ISR_RTOF));
 8008402:	f8d7 20e4 	ldr.w	r2, [r7, #228]	; 0xe4
 8008406:	f640 030f 	movw	r3, #2063	; 0x80f
 800840a:	4013      	ands	r3, r2
 800840c:	f8c7 30d8 	str.w	r3, [r7, #216]	; 0xd8
  if (errorflags == 0U)
 8008410:	f8d7 30d8 	ldr.w	r3, [r7, #216]	; 0xd8
 8008414:	2b00      	cmp	r3, #0
 8008416:	d115      	bne.n	8008444 <HAL_UART_IRQHandler+0x68>
  {
    /* UART in mode Receiver ---------------------------------------------------*/
    if (((isrflags & USART_ISR_RXNE) != 0U)
 8008418:	f8d7 30e4 	ldr.w	r3, [r7, #228]	; 0xe4
 800841c:	f003 0320 	and.w	r3, r3, #32
 8008420:	2b00      	cmp	r3, #0
 8008422:	d00f      	beq.n	8008444 <HAL_UART_IRQHandler+0x68>
        && ((cr1its & USART_CR1_RXNEIE) != 0U))
 8008424:	f8d7 30e0 	ldr.w	r3, [r7, #224]	; 0xe0
 8008428:	f003 0320 	and.w	r3, r3, #32
 800842c:	2b00      	cmp	r3, #0
 800842e:	d009      	beq.n	8008444 <HAL_UART_IRQHandler+0x68>
    {
      if (huart->RxISR != NULL)
 8008430:	687b      	ldr	r3, [r7, #4]
 8008432:	6e9b      	ldr	r3, [r3, #104]	; 0x68
 8008434:	2b00      	cmp	r3, #0
 8008436:	f000 82a1 	beq.w	800897c <HAL_UART_IRQHandler+0x5a0>
      {
        huart->RxISR(huart);
 800843a:	687b      	ldr	r3, [r7, #4]
 800843c:	6e9b      	ldr	r3, [r3, #104]	; 0x68
 800843e:	6878      	ldr	r0, [r7, #4]
 8008440:	4798      	blx	r3
      }
      return;
 8008442:	e29b      	b.n	800897c <HAL_UART_IRQHandler+0x5a0>
    }
  }

  /* If some errors occur */
  if ((errorflags != 0U)
 8008444:	f8d7 30d8 	ldr.w	r3, [r7, #216]	; 0xd8
 8008448:	2b00      	cmp	r3, #0
 800844a:	f000 811d 	beq.w	8008688 <HAL_UART_IRQHandler+0x2ac>
      && (((cr3its & USART_CR3_EIE) != 0U)
 800844e:	f8d7 30dc 	ldr.w	r3, [r7, #220]	; 0xdc
 8008452:	f003 0301 	and.w	r3, r3, #1
 8008456:	2b00      	cmp	r3, #0
 8008458:	d106      	bne.n	8008468 <HAL_UART_IRQHandler+0x8c>
          || ((cr1its & (USART_CR1_RXNEIE | USART_CR1_PEIE | USART_CR1_RTOIE)) != 0U)))
 800845a:	f8d7 20e0 	ldr.w	r2, [r7, #224]	; 0xe0
 800845e:	4b88      	ldr	r3, [pc, #544]	; (8008680 <HAL_UART_IRQHandler+0x2a4>)
 8008460:	4013      	ands	r3, r2
 8008462:	2b00      	cmp	r3, #0
 8008464:	f000 8110 	beq.w	8008688 <HAL_UART_IRQHandler+0x2ac>
  {
    /* UART parity error interrupt occurred -------------------------------------*/
    if (((isrflags & USART_ISR_PE) != 0U) && ((cr1its & USART_CR1_PEIE) != 0U))
 8008468:	f8d7 30e4 	ldr.w	r3, [r7, #228]	; 0xe4
 800846c:	f003 0301 	and.w	r3, r3, #1
 8008470:	2b00      	cmp	r3, #0
 8008472:	d011      	beq.n	8008498 <HAL_UART_IRQHandler+0xbc>
 8008474:	f8d7 30e0 	ldr.w	r3, [r7, #224]	; 0xe0
 8008478:	f403 7380 	and.w	r3, r3, #256	; 0x100
 800847c:	2b00      	cmp	r3, #0
 800847e:	d00b      	beq.n	8008498 <HAL_UART_IRQHandler+0xbc>
    {
      __HAL_UART_CLEAR_FLAG(huart, UART_CLEAR_PEF);
 8008480:	687b      	ldr	r3, [r7, #4]
 8008482:	681b      	ldr	r3, [r3, #0]
 8008484:	2201      	movs	r2, #1
 8008486:	621a      	str	r2, [r3, #32]

      huart->ErrorCode |= HAL_UART_ERROR_PE;
 8008488:	687b      	ldr	r3, [r7, #4]
 800848a:	f8d3 3084 	ldr.w	r3, [r3, #132]	; 0x84
 800848e:	f043 0201 	orr.w	r2, r3, #1
 8008492:	687b      	ldr	r3, [r7, #4]
 8008494:	f8c3 2084 	str.w	r2, [r3, #132]	; 0x84
    }

    /* UART frame error interrupt occurred --------------------------------------*/
    if (((isrflags & USART_ISR_FE) != 0U) && ((cr3its & USART_CR3_EIE) != 0U))
 8008498:	f8d7 30e4 	ldr.w	r3, [r7, #228]	; 0xe4
 800849c:	f003 0302 	and.w	r3, r3, #2
 80084a0:	2b00      	cmp	r3, #0
 80084a2:	d011      	beq.n	80084c8 <HAL_UART_IRQHandler+0xec>
 80084a4:	f8d7 30dc 	ldr.w	r3, [r7, #220]	; 0xdc
 80084a8:	f003 0301 	and.w	r3, r3, #1
 80084ac:	2b00      	cmp	r3, #0
 80084ae:	d00b      	beq.n	80084c8 <HAL_UART_IRQHandler+0xec>
    {
      __HAL_UART_CLEAR_FLAG(huart, UART_CLEAR_FEF);
 80084b0:	687b      	ldr	r3, [r7, #4]
 80084b2:	681b      	ldr	r3, [r3, #0]
 80084b4:	2202      	movs	r2, #2
 80084b6:	621a      	str	r2, [r3, #32]

      huart->ErrorCode |= HAL_UART_ERROR_FE;
 80084b8:	687b      	ldr	r3, [r7, #4]
 80084ba:	f8d3 3084 	ldr.w	r3, [r3, #132]	; 0x84
 80084be:	f043 0204 	orr.w	r2, r3, #4
 80084c2:	687b      	ldr	r3, [r7, #4]
 80084c4:	f8c3 2084 	str.w	r2, [r3, #132]	; 0x84
    }

    /* UART noise error interrupt occurred --------------------------------------*/
    if (((isrflags & USART_ISR_NE) != 0U) && ((cr3its & USART_CR3_EIE) != 0U))
 80084c8:	f8d7 30e4 	ldr.w	r3, [r7, #228]	; 0xe4
 80084cc:	f003 0304 	and.w	r3, r3, #4
 80084d0:	2b00      	cmp	r3, #0
 80084d2:	d011      	beq.n	80084f8 <HAL_UART_IRQHandler+0x11c>
 80084d4:	f8d7 30dc 	ldr.w	r3, [r7, #220]	; 0xdc
 80084d8:	f003 0301 	and.w	r3, r3, #1
 80084dc:	2b00      	cmp	r3, #0
 80084de:	d00b      	beq.n	80084f8 <HAL_UART_IRQHandler+0x11c>
    {
      __HAL_UART_CLEAR_FLAG(huart, UART_CLEAR_NEF);
 80084e0:	687b      	ldr	r3, [r7, #4]
 80084e2:	681b      	ldr	r3, [r3, #0]
 80084e4:	2204      	movs	r2, #4
 80084e6:	621a      	str	r2, [r3, #32]

      huart->ErrorCode |= HAL_UART_ERROR_NE;
 80084e8:	687b      	ldr	r3, [r7, #4]
 80084ea:	f8d3 3084 	ldr.w	r3, [r3, #132]	; 0x84
 80084ee:	f043 0202 	orr.w	r2, r3, #2
 80084f2:	687b      	ldr	r3, [r7, #4]
 80084f4:	f8c3 2084 	str.w	r2, [r3, #132]	; 0x84
    }

    /* UART Over-Run interrupt occurred -----------------------------------------*/
    if (((isrflags & USART_ISR_ORE) != 0U)
 80084f8:	f8d7 30e4 	ldr.w	r3, [r7, #228]	; 0xe4
 80084fc:	f003 0308 	and.w	r3, r3, #8
 8008500:	2b00      	cmp	r3, #0
 8008502:	d017      	beq.n	8008534 <HAL_UART_IRQHandler+0x158>
        && (((cr1its & USART_CR1_RXNEIE) != 0U) ||
 8008504:	f8d7 30e0 	ldr.w	r3, [r7, #224]	; 0xe0
 8008508:	f003 0320 	and.w	r3, r3, #32
 800850c:	2b00      	cmp	r3, #0
 800850e:	d105      	bne.n	800851c <HAL_UART_IRQHandler+0x140>
            ((cr3its & USART_CR3_EIE) != 0U)))
 8008510:	f8d7 30dc 	ldr.w	r3, [r7, #220]	; 0xdc
 8008514:	f003 0301 	and.w	r3, r3, #1
        && (((cr1its & USART_CR1_RXNEIE) != 0U) ||
 8008518:	2b00      	cmp	r3, #0
 800851a:	d00b      	beq.n	8008534 <HAL_UART_IRQHandler+0x158>
    {
      __HAL_UART_CLEAR_FLAG(huart, UART_CLEAR_OREF);
 800851c:	687b      	ldr	r3, [r7, #4]
 800851e:	681b      	ldr	r3, [r3, #0]
 8008520:	2208      	movs	r2, #8
 8008522:	621a      	str	r2, [r3, #32]

      huart->ErrorCode |= HAL_UART_ERROR_ORE;
 8008524:	687b      	ldr	r3, [r7, #4]
 8008526:	f8d3 3084 	ldr.w	r3, [r3, #132]	; 0x84
 800852a:	f043 0208 	orr.w	r2, r3, #8
 800852e:	687b      	ldr	r3, [r7, #4]
 8008530:	f8c3 2084 	str.w	r2, [r3, #132]	; 0x84
    }

    /* UART Receiver Timeout interrupt occurred ---------------------------------*/
    if (((isrflags & USART_ISR_RTOF) != 0U) && ((cr1its & USART_CR1_RTOIE) != 0U))
 8008534:	f8d7 30e4 	ldr.w	r3, [r7, #228]	; 0xe4
 8008538:	f403 6300 	and.w	r3, r3, #2048	; 0x800
 800853c:	2b00      	cmp	r3, #0
 800853e:	d012      	beq.n	8008566 <HAL_UART_IRQHandler+0x18a>
 8008540:	f8d7 30e0 	ldr.w	r3, [r7, #224]	; 0xe0
 8008544:	f003 6380 	and.w	r3, r3, #67108864	; 0x4000000
 8008548:	2b00      	cmp	r3, #0
 800854a:	d00c      	beq.n	8008566 <HAL_UART_IRQHandler+0x18a>
    {
      __HAL_UART_CLEAR_FLAG(huart, UART_CLEAR_RTOF);
 800854c:	687b      	ldr	r3, [r7, #4]
 800854e:	681b      	ldr	r3, [r3, #0]
 8008550:	f44f 6200 	mov.w	r2, #2048	; 0x800
 8008554:	621a      	str	r2, [r3, #32]

      huart->ErrorCode |= HAL_UART_ERROR_RTO;
 8008556:	687b      	ldr	r3, [r7, #4]
 8008558:	f8d3 3084 	ldr.w	r3, [r3, #132]	; 0x84
 800855c:	f043 0220 	orr.w	r2, r3, #32
 8008560:	687b      	ldr	r3, [r7, #4]
 8008562:	f8c3 2084 	str.w	r2, [r3, #132]	; 0x84
    }

    /* Call UART Error Call back function if need be ----------------------------*/
    if (huart->ErrorCode != HAL_UART_ERROR_NONE)
 8008566:	687b      	ldr	r3, [r7, #4]
 8008568:	f8d3 3084 	ldr.w	r3, [r3, #132]	; 0x84
 800856c:	2b00      	cmp	r3, #0
 800856e:	f000 8207 	beq.w	8008980 <HAL_UART_IRQHandler+0x5a4>
    {
      /* UART in mode Receiver --------------------------------------------------*/
      if (((isrflags & USART_ISR_RXNE) != 0U)
 8008572:	f8d7 30e4 	ldr.w	r3, [r7, #228]	; 0xe4
 8008576:	f003 0320 	and.w	r3, r3, #32
 800857a:	2b00      	cmp	r3, #0
 800857c:	d00d      	beq.n	800859a <HAL_UART_IRQHandler+0x1be>
          && ((cr1its & USART_CR1_RXNEIE) != 0U))
 800857e:	f8d7 30e0 	ldr.w	r3, [r7, #224]	; 0xe0
 8008582:	f003 0320 	and.w	r3, r3, #32
 8008586:	2b00      	cmp	r3, #0
 8008588:	d007      	beq.n	800859a <HAL_UART_IRQHandler+0x1be>
      {
        if (huart->RxISR != NULL)
 800858a:	687b      	ldr	r3, [r7, #4]
 800858c:	6e9b      	ldr	r3, [r3, #104]	; 0x68
 800858e:	2b00      	cmp	r3, #0
 8008590:	d003      	beq.n	800859a <HAL_UART_IRQHandler+0x1be>
        {
          huart->RxISR(huart);
 8008592:	687b      	ldr	r3, [r7, #4]
 8008594:	6e9b      	ldr	r3, [r3, #104]	; 0x68
 8008596:	6878      	ldr	r0, [r7, #4]
 8008598:	4798      	blx	r3
      /* If Error is to be considered as blocking :
          - Receiver Timeout error in Reception
          - Overrun error in Reception
          - any error occurs in DMA mode reception
      */
      errorcode = huart->ErrorCode;
 800859a:	687b      	ldr	r3, [r7, #4]
 800859c:	f8d3 3084 	ldr.w	r3, [r3, #132]	; 0x84
 80085a0:	f8c7 30d4 	str.w	r3, [r7, #212]	; 0xd4
      if ((HAL_IS_BIT_SET(huart->Instance->CR3, USART_CR3_DMAR)) ||
 80085a4:	687b      	ldr	r3, [r7, #4]
 80085a6:	681b      	ldr	r3, [r3, #0]
 80085a8:	689b      	ldr	r3, [r3, #8]
 80085aa:	f003 0340 	and.w	r3, r3, #64	; 0x40
 80085ae:	2b40      	cmp	r3, #64	; 0x40
 80085b0:	d005      	beq.n	80085be <HAL_UART_IRQHandler+0x1e2>
          ((errorcode & (HAL_UART_ERROR_RTO | HAL_UART_ERROR_ORE)) != 0U))
 80085b2:	f8d7 30d4 	ldr.w	r3, [r7, #212]	; 0xd4
 80085b6:	f003 0328 	and.w	r3, r3, #40	; 0x28
      if ((HAL_IS_BIT_SET(huart->Instance->CR3, USART_CR3_DMAR)) ||
 80085ba:	2b00      	cmp	r3, #0
 80085bc:	d053      	beq.n	8008666 <HAL_UART_IRQHandler+0x28a>
      {
        /* Blocking error : transfer is aborted
           Set the UART state ready to be able to start again the process,
           Disable Rx Interrupts, and disable Rx DMA request, if ongoing */
        UART_EndRxTransfer(huart);
 80085be:	6878      	ldr	r0, [r7, #4]
 80085c0:	f000 fe87 	bl	80092d2 <UART_EndRxTransfer>

        /* Abort the UART DMA Rx channel if enabled */
        if (HAL_IS_BIT_SET(huart->Instance->CR3, USART_CR3_DMAR))
 80085c4:	687b      	ldr	r3, [r7, #4]
 80085c6:	681b      	ldr	r3, [r3, #0]
 80085c8:	689b      	ldr	r3, [r3, #8]
 80085ca:	f003 0340 	and.w	r3, r3, #64	; 0x40
 80085ce:	2b40      	cmp	r3, #64	; 0x40
 80085d0:	d143      	bne.n	800865a <HAL_UART_IRQHandler+0x27e>
        {
          /* Disable the UART DMA Rx request if enabled */
          ATOMIC_CLEAR_BIT(huart->Instance->CR3, USART_CR3_DMAR);
 80085d2:	687b      	ldr	r3, [r7, #4]
 80085d4:	681b      	ldr	r3, [r3, #0]
 80085d6:	3308      	adds	r3, #8
 80085d8:	f8c7 309c 	str.w	r3, [r7, #156]	; 0x9c
 */
__STATIC_FORCEINLINE uint32_t __LDREXW(volatile uint32_t *addr)
{
    uint32_t result;

   __ASM volatile ("ldrex %0, %1" : "=r" (result) : "Q" (*addr) );
 80085dc:	f8d7 309c 	ldr.w	r3, [r7, #156]	; 0x9c
 80085e0:	e853 3f00 	ldrex	r3, [r3]
 80085e4:	f8c7 3098 	str.w	r3, [r7, #152]	; 0x98
   return(result);
 80085e8:	f8d7 3098 	ldr.w	r3, [r7, #152]	; 0x98
 80085ec:	f023 0340 	bic.w	r3, r3, #64	; 0x40
 80085f0:	f8c7 30d0 	str.w	r3, [r7, #208]	; 0xd0
 80085f4:	687b      	ldr	r3, [r7, #4]
 80085f6:	681b      	ldr	r3, [r3, #0]
 80085f8:	3308      	adds	r3, #8
 80085fa:	f8d7 20d0 	ldr.w	r2, [r7, #208]	; 0xd0
 80085fe:	f8c7 20a8 	str.w	r2, [r7, #168]	; 0xa8
 8008602:	f8c7 30a4 	str.w	r3, [r7, #164]	; 0xa4
 */
__STATIC_FORCEINLINE uint32_t __STREXW(uint32_t value, volatile uint32_t *addr)
{
   uint32_t result;

   __ASM volatile ("strex %0, %2, %1" : "=&r" (result), "=Q" (*addr) : "r" (value) );
 8008606:	f8d7 10a4 	ldr.w	r1, [r7, #164]	; 0xa4
 800860a:	f8d7 20a8 	ldr.w	r2, [r7, #168]	; 0xa8
 800860e:	e841 2300 	strex	r3, r2, [r1]
 8008612:	f8c7 30a0 	str.w	r3, [r7, #160]	; 0xa0
   return(result);
 8008616:	f8d7 30a0 	ldr.w	r3, [r7, #160]	; 0xa0
 800861a:	2b00      	cmp	r3, #0
 800861c:	d1d9      	bne.n	80085d2 <HAL_UART_IRQHandler+0x1f6>

          /* Abort the UART DMA Rx channel */
          if (huart->hdmarx != NULL)
 800861e:	687b      	ldr	r3, [r7, #4]
 8008620:	6f5b      	ldr	r3, [r3, #116]	; 0x74
 8008622:	2b00      	cmp	r3, #0
 8008624:	d013      	beq.n	800864e <HAL_UART_IRQHandler+0x272>
          {
            /* Set the UART DMA Abort callback :
               will lead to call HAL_UART_ErrorCallback() at end of DMA abort procedure */
            huart->hdmarx->XferAbortCallback = UART_DMAAbortOnError;
 8008626:	687b      	ldr	r3, [r7, #4]
 8008628:	6f5b      	ldr	r3, [r3, #116]	; 0x74
 800862a:	4a16      	ldr	r2, [pc, #88]	; (8008684 <HAL_UART_IRQHandler+0x2a8>)
 800862c:	651a      	str	r2, [r3, #80]	; 0x50

            /* Abort DMA RX */
            if (HAL_DMA_Abort_IT(huart->hdmarx) != HAL_OK)
 800862e:	687b      	ldr	r3, [r7, #4]
 8008630:	6f5b      	ldr	r3, [r3, #116]	; 0x74
 8008632:	4618      	mov	r0, r3
 8008634:	f7fc ffcd 	bl	80055d2 <HAL_DMA_Abort_IT>
 8008638:	4603      	mov	r3, r0
 800863a:	2b00      	cmp	r3, #0
 800863c:	d01d      	beq.n	800867a <HAL_UART_IRQHandler+0x29e>
            {
              /* Call Directly huart->hdmarx->XferAbortCallback function in case of error */
              huart->hdmarx->XferAbortCallback(huart->hdmarx);
 800863e:	687b      	ldr	r3, [r7, #4]
 8008640:	6f5b      	ldr	r3, [r3, #116]	; 0x74
 8008642:	6d1b      	ldr	r3, [r3, #80]	; 0x50
 8008644:	687a      	ldr	r2, [r7, #4]
 8008646:	6f52      	ldr	r2, [r2, #116]	; 0x74
 8008648:	4610      	mov	r0, r2
 800864a:	4798      	blx	r3
        if (HAL_IS_BIT_SET(huart->Instance->CR3, USART_CR3_DMAR))
 800864c:	e015      	b.n	800867a <HAL_UART_IRQHandler+0x29e>
          else
          {
            /* Call user error callback */
#if (USE_HAL_UART_REGISTER_CALLBACKS == 1)
            /*Call registered error callback*/
            huart->ErrorCallback(huart);
 800864e:	687b      	ldr	r3, [r7, #4]
 8008650:	f8d3 3098 	ldr.w	r3, [r3, #152]	; 0x98
 8008654:	6878      	ldr	r0, [r7, #4]
 8008656:	4798      	blx	r3
        if (HAL_IS_BIT_SET(huart->Instance->CR3, USART_CR3_DMAR))
 8008658:	e00f      	b.n	800867a <HAL_UART_IRQHandler+0x29e>
        else
        {
          /* Call user error callback */
#if (USE_HAL_UART_REGISTER_CALLBACKS == 1)
          /*Call registered error callback*/
          huart->ErrorCallback(huart);
 800865a:	687b      	ldr	r3, [r7, #4]
 800865c:	f8d3 3098 	ldr.w	r3, [r3, #152]	; 0x98
 8008660:	6878      	ldr	r0, [r7, #4]
 8008662:	4798      	blx	r3
        if (HAL_IS_BIT_SET(huart->Instance->CR3, USART_CR3_DMAR))
 8008664:	e009      	b.n	800867a <HAL_UART_IRQHandler+0x29e>
      {
        /* Non Blocking error : transfer could go on.
           Error is notified to user through user error callback */
#if (USE_HAL_UART_REGISTER_CALLBACKS == 1)
        /*Call registered error callback*/
        huart->ErrorCallback(huart);
 8008666:	687b      	ldr	r3, [r7, #4]
 8008668:	f8d3 3098 	ldr.w	r3, [r3, #152]	; 0x98
 800866c:	6878      	ldr	r0, [r7, #4]
 800866e:	4798      	blx	r3
#else
        /*Call legacy weak error callback*/
        HAL_UART_ErrorCallback(huart);
#endif /* USE_HAL_UART_REGISTER_CALLBACKS */
        huart->ErrorCode = HAL_UART_ERROR_NONE;
 8008670:	687b      	ldr	r3, [r7, #4]
 8008672:	2200      	movs	r2, #0
 8008674:	f8c3 2084 	str.w	r2, [r3, #132]	; 0x84
      }
    }
    return;
 8008678:	e182      	b.n	8008980 <HAL_UART_IRQHandler+0x5a4>
        if (HAL_IS_BIT_SET(huart->Instance->CR3, USART_CR3_DMAR))
 800867a:	bf00      	nop
    return;
 800867c:	e180      	b.n	8008980 <HAL_UART_IRQHandler+0x5a4>
 800867e:	bf00      	nop
 8008680:	04000120 	.word	0x04000120
 8008684:	0800939b 	.word	0x0800939b

  } /* End if some error occurs */

  /* Check current reception Mode :
     If Reception till IDLE event has been selected : */
  if ((huart->ReceptionType == HAL_UART_RECEPTION_TOIDLE)
 8008688:	687b      	ldr	r3, [r7, #4]
 800868a:	6e1b      	ldr	r3, [r3, #96]	; 0x60
 800868c:	2b01      	cmp	r3, #1
 800868e:	f040 8150 	bne.w	8008932 <HAL_UART_IRQHandler+0x556>
      && ((isrflags & USART_ISR_IDLE) != 0U)
 8008692:	f8d7 30e4 	ldr.w	r3, [r7, #228]	; 0xe4
 8008696:	f003 0310 	and.w	r3, r3, #16
 800869a:	2b00      	cmp	r3, #0
 800869c:	f000 8149 	beq.w	8008932 <HAL_UART_IRQHandler+0x556>
      && ((cr1its & USART_ISR_IDLE) != 0U))
 80086a0:	f8d7 30e0 	ldr.w	r3, [r7, #224]	; 0xe0
 80086a4:	f003 0310 	and.w	r3, r3, #16
 80086a8:	2b00      	cmp	r3, #0
 80086aa:	f000 8142 	beq.w	8008932 <HAL_UART_IRQHandler+0x556>
  {
    __HAL_UART_CLEAR_FLAG(huart, UART_CLEAR_IDLEF);
 80086ae:	687b      	ldr	r3, [r7, #4]
 80086b0:	681b      	ldr	r3, [r3, #0]
 80086b2:	2210      	movs	r2, #16
 80086b4:	621a      	str	r2, [r3, #32]

    /* Check if DMA mode is enabled in UART */
    if (HAL_IS_BIT_SET(huart->Instance->CR3, USART_CR3_DMAR))
 80086b6:	687b      	ldr	r3, [r7, #4]
 80086b8:	681b      	ldr	r3, [r3, #0]
 80086ba:	689b      	ldr	r3, [r3, #8]
 80086bc:	f003 0340 	and.w	r3, r3, #64	; 0x40
 80086c0:	2b40      	cmp	r3, #64	; 0x40
 80086c2:	f040 80b8 	bne.w	8008836 <HAL_UART_IRQHandler+0x45a>
    {
      /* DMA mode enabled */
      /* Check received length : If all expected data are received, do nothing,
         (DMA cplt callback will be called).
         Otherwise, if at least one data has already been received, IDLE event is to be notified to user */
      uint16_t nb_remaining_rx_data = (uint16_t) __HAL_DMA_GET_COUNTER(huart->hdmarx);
 80086c6:	687b      	ldr	r3, [r7, #4]
 80086c8:	6f5b      	ldr	r3, [r3, #116]	; 0x74
 80086ca:	681b      	ldr	r3, [r3, #0]
 80086cc:	685b      	ldr	r3, [r3, #4]
 80086ce:	f8a7 30be 	strh.w	r3, [r7, #190]	; 0xbe
      if ((nb_remaining_rx_data > 0U)
 80086d2:	f8b7 30be 	ldrh.w	r3, [r7, #190]	; 0xbe
 80086d6:	2b00      	cmp	r3, #0
 80086d8:	f000 8154 	beq.w	8008984 <HAL_UART_IRQHandler+0x5a8>
          && (nb_remaining_rx_data < huart->RxXferSize))
 80086dc:	687b      	ldr	r3, [r7, #4]
 80086de:	f8b3 3058 	ldrh.w	r3, [r3, #88]	; 0x58
 80086e2:	f8b7 20be 	ldrh.w	r2, [r7, #190]	; 0xbe
 80086e6:	429a      	cmp	r2, r3
 80086e8:	f080 814c 	bcs.w	8008984 <HAL_UART_IRQHandler+0x5a8>
      {
        /* Reception is not complete */
        huart->RxXferCount = nb_remaining_rx_data;
 80086ec:	687b      	ldr	r3, [r7, #4]
 80086ee:	f8b7 20be 	ldrh.w	r2, [r7, #190]	; 0xbe
 80086f2:	f8a3 205a 	strh.w	r2, [r3, #90]	; 0x5a

        /* In Normal mode, end DMA xfer and HAL UART Rx process*/
        if (huart->hdmarx->Init.Mode != DMA_CIRCULAR)
 80086f6:	687b      	ldr	r3, [r7, #4]
 80086f8:	6f5b      	ldr	r3, [r3, #116]	; 0x74
 80086fa:	69db      	ldr	r3, [r3, #28]
 80086fc:	f5b3 7f80 	cmp.w	r3, #256	; 0x100
 8008700:	f000 8086 	beq.w	8008810 <HAL_UART_IRQHandler+0x434>
        {
          /* Disable PE and ERR (Frame error, noise error, overrun error) interrupts */
          ATOMIC_CLEAR_BIT(huart->Instance->CR1, USART_CR1_PEIE);
 8008704:	687b      	ldr	r3, [r7, #4]
 8008706:	681b      	ldr	r3, [r3, #0]
 8008708:	f8c7 3088 	str.w	r3, [r7, #136]	; 0x88
   __ASM volatile ("ldrex %0, %1" : "=r" (result) : "Q" (*addr) );
 800870c:	f8d7 3088 	ldr.w	r3, [r7, #136]	; 0x88
 8008710:	e853 3f00 	ldrex	r3, [r3]
 8008714:	f8c7 3084 	str.w	r3, [r7, #132]	; 0x84
   return(result);
 8008718:	f8d7 3084 	ldr.w	r3, [r7, #132]	; 0x84
 800871c:	f423 7380 	bic.w	r3, r3, #256	; 0x100
 8008720:	f8c7 30b8 	str.w	r3, [r7, #184]	; 0xb8
 8008724:	687b      	ldr	r3, [r7, #4]
 8008726:	681b      	ldr	r3, [r3, #0]
 8008728:	461a      	mov	r2, r3
 800872a:	f8d7 30b8 	ldr.w	r3, [r7, #184]	; 0xb8
 800872e:	f8c7 3094 	str.w	r3, [r7, #148]	; 0x94
 8008732:	f8c7 2090 	str.w	r2, [r7, #144]	; 0x90
   __ASM volatile ("strex %0, %2, %1" : "=&r" (result), "=Q" (*addr) : "r" (value) );
 8008736:	f8d7 1090 	ldr.w	r1, [r7, #144]	; 0x90
 800873a:	f8d7 2094 	ldr.w	r2, [r7, #148]	; 0x94
 800873e:	e841 2300 	strex	r3, r2, [r1]
 8008742:	f8c7 308c 	str.w	r3, [r7, #140]	; 0x8c
   return(result);
 8008746:	f8d7 308c 	ldr.w	r3, [r7, #140]	; 0x8c
 800874a:	2b00      	cmp	r3, #0
 800874c:	d1da      	bne.n	8008704 <HAL_UART_IRQHandler+0x328>
          ATOMIC_CLEAR_BIT(huart->Instance->CR3, USART_CR3_EIE);
 800874e:	687b      	ldr	r3, [r7, #4]
 8008750:	681b      	ldr	r3, [r3, #0]
 8008752:	3308      	adds	r3, #8
 8008754:	677b      	str	r3, [r7, #116]	; 0x74
   __ASM volatile ("ldrex %0, %1" : "=r" (result) : "Q" (*addr) );
 8008756:	6f7b      	ldr	r3, [r7, #116]	; 0x74
 8008758:	e853 3f00 	ldrex	r3, [r3]
 800875c:	673b      	str	r3, [r7, #112]	; 0x70
   return(result);
 800875e:	6f3b      	ldr	r3, [r7, #112]	; 0x70
 8008760:	f023 0301 	bic.w	r3, r3, #1
 8008764:	f8c7 30b4 	str.w	r3, [r7, #180]	; 0xb4
 8008768:	687b      	ldr	r3, [r7, #4]
 800876a:	681b      	ldr	r3, [r3, #0]
 800876c:	3308      	adds	r3, #8
 800876e:	f8d7 20b4 	ldr.w	r2, [r7, #180]	; 0xb4
 8008772:	f8c7 2080 	str.w	r2, [r7, #128]	; 0x80
 8008776:	67fb      	str	r3, [r7, #124]	; 0x7c
   __ASM volatile ("strex %0, %2, %1" : "=&r" (result), "=Q" (*addr) : "r" (value) );
 8008778:	6ff9      	ldr	r1, [r7, #124]	; 0x7c
 800877a:	f8d7 2080 	ldr.w	r2, [r7, #128]	; 0x80
 800877e:	e841 2300 	strex	r3, r2, [r1]
 8008782:	67bb      	str	r3, [r7, #120]	; 0x78
   return(result);
 8008784:	6fbb      	ldr	r3, [r7, #120]	; 0x78
 8008786:	2b00      	cmp	r3, #0
 8008788:	d1e1      	bne.n	800874e <HAL_UART_IRQHandler+0x372>

          /* Disable the DMA transfer for the receiver request by resetting the DMAR bit
             in the UART CR3 register */
          ATOMIC_CLEAR_BIT(huart->Instance->CR3, USART_CR3_DMAR);
 800878a:	687b      	ldr	r3, [r7, #4]
 800878c:	681b      	ldr	r3, [r3, #0]
 800878e:	3308      	adds	r3, #8
 8008790:	663b      	str	r3, [r7, #96]	; 0x60
   __ASM volatile ("ldrex %0, %1" : "=r" (result) : "Q" (*addr) );
 8008792:	6e3b      	ldr	r3, [r7, #96]	; 0x60
 8008794:	e853 3f00 	ldrex	r3, [r3]
 8008798:	65fb      	str	r3, [r7, #92]	; 0x5c
   return(result);
 800879a:	6dfb      	ldr	r3, [r7, #92]	; 0x5c
 800879c:	f023 0340 	bic.w	r3, r3, #64	; 0x40
 80087a0:	f8c7 30b0 	str.w	r3, [r7, #176]	; 0xb0
 80087a4:	687b      	ldr	r3, [r7, #4]
 80087a6:	681b      	ldr	r3, [r3, #0]
 80087a8:	3308      	adds	r3, #8
 80087aa:	f8d7 20b0 	ldr.w	r2, [r7, #176]	; 0xb0
 80087ae:	66fa      	str	r2, [r7, #108]	; 0x6c
 80087b0:	66bb      	str	r3, [r7, #104]	; 0x68
   __ASM volatile ("strex %0, %2, %1" : "=&r" (result), "=Q" (*addr) : "r" (value) );
 80087b2:	6eb9      	ldr	r1, [r7, #104]	; 0x68
 80087b4:	6efa      	ldr	r2, [r7, #108]	; 0x6c
 80087b6:	e841 2300 	strex	r3, r2, [r1]
 80087ba:	667b      	str	r3, [r7, #100]	; 0x64
   return(result);
 80087bc:	6e7b      	ldr	r3, [r7, #100]	; 0x64
 80087be:	2b00      	cmp	r3, #0
 80087c0:	d1e3      	bne.n	800878a <HAL_UART_IRQHandler+0x3ae>

          /* At end of Rx process, restore huart->RxState to Ready */
          huart->RxState = HAL_UART_STATE_READY;
 80087c2:	687b      	ldr	r3, [r7, #4]
 80087c4:	2220      	movs	r2, #32
 80087c6:	f8c3 2080 	str.w	r2, [r3, #128]	; 0x80
          huart->ReceptionType = HAL_UART_RECEPTION_STANDARD;
 80087ca:	687b      	ldr	r3, [r7, #4]
 80087cc:	2200      	movs	r2, #0
 80087ce:	661a      	str	r2, [r3, #96]	; 0x60

          ATOMIC_CLEAR_BIT(huart->Instance->CR1, USART_CR1_IDLEIE);
 80087d0:	687b      	ldr	r3, [r7, #4]
 80087d2:	681b      	ldr	r3, [r3, #0]
 80087d4:	64fb      	str	r3, [r7, #76]	; 0x4c
   __ASM volatile ("ldrex %0, %1" : "=r" (result) : "Q" (*addr) );
 80087d6:	6cfb      	ldr	r3, [r7, #76]	; 0x4c
 80087d8:	e853 3f00 	ldrex	r3, [r3]
 80087dc:	64bb      	str	r3, [r7, #72]	; 0x48
   return(result);
 80087de:	6cbb      	ldr	r3, [r7, #72]	; 0x48
 80087e0:	f023 0310 	bic.w	r3, r3, #16
 80087e4:	f8c7 30ac 	str.w	r3, [r7, #172]	; 0xac
 80087e8:	687b      	ldr	r3, [r7, #4]
 80087ea:	681b      	ldr	r3, [r3, #0]
 80087ec:	461a      	mov	r2, r3
 80087ee:	f8d7 30ac 	ldr.w	r3, [r7, #172]	; 0xac
 80087f2:	65bb      	str	r3, [r7, #88]	; 0x58
 80087f4:	657a      	str	r2, [r7, #84]	; 0x54
   __ASM volatile ("strex %0, %2, %1" : "=&r" (result), "=Q" (*addr) : "r" (value) );
 80087f6:	6d79      	ldr	r1, [r7, #84]	; 0x54
 80087f8:	6dba      	ldr	r2, [r7, #88]	; 0x58
 80087fa:	e841 2300 	strex	r3, r2, [r1]
 80087fe:	653b      	str	r3, [r7, #80]	; 0x50
   return(result);
 8008800:	6d3b      	ldr	r3, [r7, #80]	; 0x50
 8008802:	2b00      	cmp	r3, #0
 8008804:	d1e4      	bne.n	80087d0 <HAL_UART_IRQHandler+0x3f4>

          /* Last bytes received, so no need as the abort is immediate */
          (void)HAL_DMA_Abort(huart->hdmarx);
 8008806:	687b      	ldr	r3, [r7, #4]
 8008808:	6f5b      	ldr	r3, [r3, #116]	; 0x74
 800880a:	4618      	mov	r0, r3
 800880c:	f7fc fe71 	bl	80054f2 <HAL_DMA_Abort>
        }

        /* Initialize type of RxEvent that correspond to RxEvent callback execution;
           In this case, Rx Event type is Idle Event */
        huart->RxEventType = HAL_UART_RXEVENT_IDLE;
 8008810:	687b      	ldr	r3, [r7, #4]
 8008812:	2202      	movs	r2, #2
 8008814:	665a      	str	r2, [r3, #100]	; 0x64

#if (USE_HAL_UART_REGISTER_CALLBACKS == 1)
        /*Call registered Rx Event callback*/
        huart->RxEventCallback(huart, (huart->RxXferSize - huart->RxXferCount));
 8008816:	687b      	ldr	r3, [r7, #4]
 8008818:	f8d3 30a8 	ldr.w	r3, [r3, #168]	; 0xa8
 800881c:	687a      	ldr	r2, [r7, #4]
 800881e:	f8b2 1058 	ldrh.w	r1, [r2, #88]	; 0x58
 8008822:	687a      	ldr	r2, [r7, #4]
 8008824:	f8b2 205a 	ldrh.w	r2, [r2, #90]	; 0x5a
 8008828:	b292      	uxth	r2, r2
 800882a:	1a8a      	subs	r2, r1, r2
 800882c:	b292      	uxth	r2, r2
 800882e:	4611      	mov	r1, r2
 8008830:	6878      	ldr	r0, [r7, #4]
 8008832:	4798      	blx	r3
#else
        /*Call legacy weak Rx Event callback*/
        HAL_UARTEx_RxEventCallback(huart, (huart->RxXferSize - huart->RxXferCount));
#endif /* (USE_HAL_UART_REGISTER_CALLBACKS) */
      }
      return;
 8008834:	e0a6      	b.n	8008984 <HAL_UART_IRQHandler+0x5a8>
    else
    {
      /* DMA mode not enabled */
      /* Check received length : If all expected data are received, do nothing.
         Otherwise, if at least one data has already been received, IDLE event is to be notified to user */
      uint16_t nb_rx_data = huart->RxXferSize - huart->RxXferCount;
 8008836:	687b      	ldr	r3, [r7, #4]
 8008838:	f8b3 2058 	ldrh.w	r2, [r3, #88]	; 0x58
 800883c:	687b      	ldr	r3, [r7, #4]
 800883e:	f8b3 305a 	ldrh.w	r3, [r3, #90]	; 0x5a
 8008842:	b29b      	uxth	r3, r3
 8008844:	1ad3      	subs	r3, r2, r3
 8008846:	f8a7 30ce 	strh.w	r3, [r7, #206]	; 0xce
      if ((huart->RxXferCount > 0U)
 800884a:	687b      	ldr	r3, [r7, #4]
 800884c:	f8b3 305a 	ldrh.w	r3, [r3, #90]	; 0x5a
 8008850:	b29b      	uxth	r3, r3
 8008852:	2b00      	cmp	r3, #0
 8008854:	f000 8098 	beq.w	8008988 <HAL_UART_IRQHandler+0x5ac>
          && (nb_rx_data > 0U))
 8008858:	f8b7 30ce 	ldrh.w	r3, [r7, #206]	; 0xce
 800885c:	2b00      	cmp	r3, #0
 800885e:	f000 8093 	beq.w	8008988 <HAL_UART_IRQHandler+0x5ac>
      {
        /* Disable the UART Parity Error Interrupt and RXNE interrupts */
        ATOMIC_CLEAR_BIT(huart->Instance->CR1, (USART_CR1_RXNEIE | USART_CR1_PEIE));
 8008862:	687b      	ldr	r3, [r7, #4]
 8008864:	681b      	ldr	r3, [r3, #0]
 8008866:	63bb      	str	r3, [r7, #56]	; 0x38
   __ASM volatile ("ldrex %0, %1" : "=r" (result) : "Q" (*addr) );
 8008868:	6bbb      	ldr	r3, [r7, #56]	; 0x38
 800886a:	e853 3f00 	ldrex	r3, [r3]
 800886e:	637b      	str	r3, [r7, #52]	; 0x34
   return(result);
 8008870:	6b7b      	ldr	r3, [r7, #52]	; 0x34
 8008872:	f423 7390 	bic.w	r3, r3, #288	; 0x120
 8008876:	f8c7 30c8 	str.w	r3, [r7, #200]	; 0xc8
 800887a:	687b      	ldr	r3, [r7, #4]
 800887c:	681b      	ldr	r3, [r3, #0]
 800887e:	461a      	mov	r2, r3
 8008880:	f8d7 30c8 	ldr.w	r3, [r7, #200]	; 0xc8
 8008884:	647b      	str	r3, [r7, #68]	; 0x44
 8008886:	643a      	str	r2, [r7, #64]	; 0x40
   __ASM volatile ("strex %0, %2, %1" : "=&r" (result), "=Q" (*addr) : "r" (value) );
 8008888:	6c39      	ldr	r1, [r7, #64]	; 0x40
 800888a:	6c7a      	ldr	r2, [r7, #68]	; 0x44
 800888c:	e841 2300 	strex	r3, r2, [r1]
 8008890:	63fb      	str	r3, [r7, #60]	; 0x3c
   return(result);
 8008892:	6bfb      	ldr	r3, [r7, #60]	; 0x3c
 8008894:	2b00      	cmp	r3, #0
 8008896:	d1e4      	bne.n	8008862 <HAL_UART_IRQHandler+0x486>

        /* Disable the UART Error Interrupt: (Frame error, noise error, overrun error) */
        ATOMIC_CLEAR_BIT(huart->Instance->CR3, USART_CR3_EIE);
 8008898:	687b      	ldr	r3, [r7, #4]
 800889a:	681b      	ldr	r3, [r3, #0]
 800889c:	3308      	adds	r3, #8
 800889e:	627b      	str	r3, [r7, #36]	; 0x24
   __ASM volatile ("ldrex %0, %1" : "=r" (result) : "Q" (*addr) );
 80088a0:	6a7b      	ldr	r3, [r7, #36]	; 0x24
 80088a2:	e853 3f00 	ldrex	r3, [r3]
 80088a6:	623b      	str	r3, [r7, #32]
   return(result);
 80088a8:	6a3b      	ldr	r3, [r7, #32]
 80088aa:	f023 0301 	bic.w	r3, r3, #1
 80088ae:	f8c7 30c4 	str.w	r3, [r7, #196]	; 0xc4
 80088b2:	687b      	ldr	r3, [r7, #4]
 80088b4:	681b      	ldr	r3, [r3, #0]
 80088b6:	3308      	adds	r3, #8
 80088b8:	f8d7 20c4 	ldr.w	r2, [r7, #196]	; 0xc4
 80088bc:	633a      	str	r2, [r7, #48]	; 0x30
 80088be:	62fb      	str	r3, [r7, #44]	; 0x2c
   __ASM volatile ("strex %0, %2, %1" : "=&r" (result), "=Q" (*addr) : "r" (value) );
 80088c0:	6af9      	ldr	r1, [r7, #44]	; 0x2c
 80088c2:	6b3a      	ldr	r2, [r7, #48]	; 0x30
 80088c4:	e841 2300 	strex	r3, r2, [r1]
 80088c8:	62bb      	str	r3, [r7, #40]	; 0x28
   return(result);
 80088ca:	6abb      	ldr	r3, [r7, #40]	; 0x28
 80088cc:	2b00      	cmp	r3, #0
 80088ce:	d1e3      	bne.n	8008898 <HAL_UART_IRQHandler+0x4bc>

        /* Rx process is completed, restore huart->RxState to Ready */
        huart->RxState = HAL_UART_STATE_READY;
 80088d0:	687b      	ldr	r3, [r7, #4]
 80088d2:	2220      	movs	r2, #32
 80088d4:	f8c3 2080 	str.w	r2, [r3, #128]	; 0x80
        huart->ReceptionType = HAL_UART_RECEPTION_STANDARD;
 80088d8:	687b      	ldr	r3, [r7, #4]
 80088da:	2200      	movs	r2, #0
 80088dc:	661a      	str	r2, [r3, #96]	; 0x60

        /* Clear RxISR function pointer */
        huart->RxISR = NULL;
 80088de:	687b      	ldr	r3, [r7, #4]
 80088e0:	2200      	movs	r2, #0
 80088e2:	669a      	str	r2, [r3, #104]	; 0x68

        ATOMIC_CLEAR_BIT(huart->Instance->CR1, USART_CR1_IDLEIE);
 80088e4:	687b      	ldr	r3, [r7, #4]
 80088e6:	681b      	ldr	r3, [r3, #0]
 80088e8:	613b      	str	r3, [r7, #16]
   __ASM volatile ("ldrex %0, %1" : "=r" (result) : "Q" (*addr) );
 80088ea:	693b      	ldr	r3, [r7, #16]
 80088ec:	e853 3f00 	ldrex	r3, [r3]
 80088f0:	60fb      	str	r3, [r7, #12]
   return(result);
 80088f2:	68fb      	ldr	r3, [r7, #12]
 80088f4:	f023 0310 	bic.w	r3, r3, #16
 80088f8:	f8c7 30c0 	str.w	r3, [r7, #192]	; 0xc0
 80088fc:	687b      	ldr	r3, [r7, #4]
 80088fe:	681b      	ldr	r3, [r3, #0]
 8008900:	461a      	mov	r2, r3
 8008902:	f8d7 30c0 	ldr.w	r3, [r7, #192]	; 0xc0
 8008906:	61fb      	str	r3, [r7, #28]
 8008908:	61ba      	str	r2, [r7, #24]
   __ASM volatile ("strex %0, %2, %1" : "=&r" (result), "=Q" (*addr) : "r" (value) );
 800890a:	69b9      	ldr	r1, [r7, #24]
 800890c:	69fa      	ldr	r2, [r7, #28]
 800890e:	e841 2300 	strex	r3, r2, [r1]
 8008912:	617b      	str	r3, [r7, #20]
   return(result);
 8008914:	697b      	ldr	r3, [r7, #20]
 8008916:	2b00      	cmp	r3, #0
 8008918:	d1e4      	bne.n	80088e4 <HAL_UART_IRQHandler+0x508>

        /* Initialize type of RxEvent that correspond to RxEvent callback execution;
           In this case, Rx Event type is Idle Event */
        huart->RxEventType = HAL_UART_RXEVENT_IDLE;
 800891a:	687b      	ldr	r3, [r7, #4]
 800891c:	2202      	movs	r2, #2
 800891e:	665a      	str	r2, [r3, #100]	; 0x64

#if (USE_HAL_UART_REGISTER_CALLBACKS == 1)
        /*Call registered Rx complete callback*/
        huart->RxEventCallback(huart, nb_rx_data);
 8008920:	687b      	ldr	r3, [r7, #4]
 8008922:	f8d3 30a8 	ldr.w	r3, [r3, #168]	; 0xa8
 8008926:	f8b7 20ce 	ldrh.w	r2, [r7, #206]	; 0xce
 800892a:	4611      	mov	r1, r2
 800892c:	6878      	ldr	r0, [r7, #4]
 800892e:	4798      	blx	r3
#else
        /*Call legacy weak Rx Event callback*/
        HAL_UARTEx_RxEventCallback(huart, nb_rx_data);
#endif /* (USE_HAL_UART_REGISTER_CALLBACKS) */
      }
      return;
 8008930:	e02a      	b.n	8008988 <HAL_UART_IRQHandler+0x5ac>
  }
#endif /* USART_CR3_WUFIE */
#endif /* USART_CR1_UESM */

  /* UART in mode Transmitter ------------------------------------------------*/
  if (((isrflags & USART_ISR_TXE) != 0U)
 8008932:	f8d7 30e4 	ldr.w	r3, [r7, #228]	; 0xe4
 8008936:	f003 0380 	and.w	r3, r3, #128	; 0x80
 800893a:	2b00      	cmp	r3, #0
 800893c:	d00e      	beq.n	800895c <HAL_UART_IRQHandler+0x580>
      && ((cr1its & USART_CR1_TXEIE) != 0U))
 800893e:	f8d7 30e0 	ldr.w	r3, [r7, #224]	; 0xe0
 8008942:	f003 0380 	and.w	r3, r3, #128	; 0x80
 8008946:	2b00      	cmp	r3, #0
 8008948:	d008      	beq.n	800895c <HAL_UART_IRQHandler+0x580>
  {
    if (huart->TxISR != NULL)
 800894a:	687b      	ldr	r3, [r7, #4]
 800894c:	6edb      	ldr	r3, [r3, #108]	; 0x6c
 800894e:	2b00      	cmp	r3, #0
 8008950:	d01c      	beq.n	800898c <HAL_UART_IRQHandler+0x5b0>
    {
      huart->TxISR(huart);
 8008952:	687b      	ldr	r3, [r7, #4]
 8008954:	6edb      	ldr	r3, [r3, #108]	; 0x6c
 8008956:	6878      	ldr	r0, [r7, #4]
 8008958:	4798      	blx	r3
    }
    return;
 800895a:	e017      	b.n	800898c <HAL_UART_IRQHandler+0x5b0>
  }

  /* UART in mode Transmitter (transmission end) -----------------------------*/
  if (((isrflags & USART_ISR_TC) != 0U) && ((cr1its & USART_CR1_TCIE) != 0U))
 800895c:	f8d7 30e4 	ldr.w	r3, [r7, #228]	; 0xe4
 8008960:	f003 0340 	and.w	r3, r3, #64	; 0x40
 8008964:	2b00      	cmp	r3, #0
 8008966:	d012      	beq.n	800898e <HAL_UART_IRQHandler+0x5b2>
 8008968:	f8d7 30e0 	ldr.w	r3, [r7, #224]	; 0xe0
 800896c:	f003 0340 	and.w	r3, r3, #64	; 0x40
 8008970:	2b00      	cmp	r3, #0
 8008972:	d00c      	beq.n	800898e <HAL_UART_IRQHandler+0x5b2>
  {
    UART_EndTransmit_IT(huart);
 8008974:	6878      	ldr	r0, [r7, #4]
 8008976:	f000 fd28 	bl	80093ca <UART_EndTransmit_IT>
    return;
 800897a:	e008      	b.n	800898e <HAL_UART_IRQHandler+0x5b2>
      return;
 800897c:	bf00      	nop
 800897e:	e006      	b.n	800898e <HAL_UART_IRQHandler+0x5b2>
    return;
 8008980:	bf00      	nop
 8008982:	e004      	b.n	800898e <HAL_UART_IRQHandler+0x5b2>
      return;
 8008984:	bf00      	nop
 8008986:	e002      	b.n	800898e <HAL_UART_IRQHandler+0x5b2>
      return;
 8008988:	bf00      	nop
 800898a:	e000      	b.n	800898e <HAL_UART_IRQHandler+0x5b2>
    return;
 800898c:	bf00      	nop
  }

}
 800898e:	37e8      	adds	r7, #232	; 0xe8
 8008990:	46bd      	mov	sp, r7
 8008992:	bd80      	pop	{r7, pc}

08008994 <HAL_UART_TxCpltCallback>:
  * @brief Tx Transfer completed callback.
  * @param huart UART handle.
  * @retval None
  */
__weak void HAL_UART_TxCpltCallback(UART_HandleTypeDef *huart)
{
 8008994:	b480      	push	{r7}
 8008996:	b083      	sub	sp, #12
 8008998:	af00      	add	r7, sp, #0
 800899a:	6078      	str	r0, [r7, #4]
  UNUSED(huart);

  /* NOTE : This function should not be modified, when the callback is needed,
            the HAL_UART_TxCpltCallback can be implemented in the user file.
   */
}
 800899c:	bf00      	nop
 800899e:	370c      	adds	r7, #12
 80089a0:	46bd      	mov	sp, r7
 80089a2:	f85d 7b04 	ldr.w	r7, [sp], #4
 80089a6:	4770      	bx	lr

080089a8 <HAL_UART_TxHalfCpltCallback>:
  * @brief  Tx Half Transfer completed callback.
  * @param  huart UART handle.
  * @retval None
  */
__weak void HAL_UART_TxHalfCpltCallback(UART_HandleTypeDef *huart)
{
 80089a8:	b480      	push	{r7}
 80089aa:	b083      	sub	sp, #12
 80089ac:	af00      	add	r7, sp, #0
 80089ae:	6078      	str	r0, [r7, #4]
  UNUSED(huart);

  /* NOTE: This function should not be modified, when the callback is needed,
           the HAL_UART_TxHalfCpltCallback can be implemented in the user file.
   */
}
 80089b0:	bf00      	nop
 80089b2:	370c      	adds	r7, #12
 80089b4:	46bd      	mov	sp, r7
 80089b6:	f85d 7b04 	ldr.w	r7, [sp], #4
 80089ba:	4770      	bx	lr

080089bc <HAL_UART_RxCpltCallback>:
  * @brief  Rx Transfer completed callback.
  * @param  huart UART handle.
  * @retval None
  */
__weak void HAL_UART_RxCpltCallback(UART_HandleTypeDef *huart)
{
 80089bc:	b480      	push	{r7}
 80089be:	b083      	sub	sp, #12
 80089c0:	af00      	add	r7, sp, #0
 80089c2:	6078      	str	r0, [r7, #4]
  UNUSED(huart);

  /* NOTE : This function should not be modified, when the callback is needed,
            the HAL_UART_RxCpltCallback can be implemented in the user file.
   */
}
 80089c4:	bf00      	nop
 80089c6:	370c      	adds	r7, #12
 80089c8:	46bd      	mov	sp, r7
 80089ca:	f85d 7b04 	ldr.w	r7, [sp], #4
 80089ce:	4770      	bx	lr

080089d0 <HAL_UART_RxHalfCpltCallback>:
  * @brief  Rx Half Transfer completed callback.
  * @param  huart UART handle.
  * @retval None
  */
__weak void HAL_UART_RxHalfCpltCallback(UART_HandleTypeDef *huart)
{
 80089d0:	b480      	push	{r7}
 80089d2:	b083      	sub	sp, #12
 80089d4:	af00      	add	r7, sp, #0
 80089d6:	6078      	str	r0, [r7, #4]
  UNUSED(huart);

  /* NOTE: This function should not be modified, when the callback is needed,
           the HAL_UART_RxHalfCpltCallback can be implemented in the user file.
   */
}
 80089d8:	bf00      	nop
 80089da:	370c      	adds	r7, #12
 80089dc:	46bd      	mov	sp, r7
 80089de:	f85d 7b04 	ldr.w	r7, [sp], #4
 80089e2:	4770      	bx	lr

080089e4 <HAL_UART_ErrorCallback>:
  * @brief  UART error callback.
  * @param  huart UART handle.
  * @retval None
  */
__weak void HAL_UART_ErrorCallback(UART_HandleTypeDef *huart)
{
 80089e4:	b480      	push	{r7}
 80089e6:	b083      	sub	sp, #12
 80089e8:	af00      	add	r7, sp, #0
 80089ea:	6078      	str	r0, [r7, #4]
  UNUSED(huart);

  /* NOTE : This function should not be modified, when the callback is needed,
            the HAL_UART_ErrorCallback can be implemented in the user file.
   */
}
 80089ec:	bf00      	nop
 80089ee:	370c      	adds	r7, #12
 80089f0:	46bd      	mov	sp, r7
 80089f2:	f85d 7b04 	ldr.w	r7, [sp], #4
 80089f6:	4770      	bx	lr

080089f8 <HAL_UART_AbortCpltCallback>:
  * @brief  UART Abort Complete callback.
  * @param  huart UART handle.
  * @retval None
  */
__weak void HAL_UART_AbortCpltCallback(UART_HandleTypeDef *huart)
{
 80089f8:	b480      	push	{r7}
 80089fa:	b083      	sub	sp, #12
 80089fc:	af00      	add	r7, sp, #0
 80089fe:	6078      	str	r0, [r7, #4]
  UNUSED(huart);

  /* NOTE : This function should not be modified, when the callback is needed,
            the HAL_UART_AbortCpltCallback can be implemented in the user file.
   */
}
 8008a00:	bf00      	nop
 8008a02:	370c      	adds	r7, #12
 8008a04:	46bd      	mov	sp, r7
 8008a06:	f85d 7b04 	ldr.w	r7, [sp], #4
 8008a0a:	4770      	bx	lr

08008a0c <HAL_UART_AbortTransmitCpltCallback>:
  * @brief  UART Abort Complete callback.
  * @param  huart UART handle.
  * @retval None
  */
__weak void HAL_UART_AbortTransmitCpltCallback(UART_HandleTypeDef *huart)
{
 8008a0c:	b480      	push	{r7}
 8008a0e:	b083      	sub	sp, #12
 8008a10:	af00      	add	r7, sp, #0
 8008a12:	6078      	str	r0, [r7, #4]
  UNUSED(huart);

  /* NOTE : This function should not be modified, when the callback is needed,
            the HAL_UART_AbortTransmitCpltCallback can be implemented in the user file.
   */
}
 8008a14:	bf00      	nop
 8008a16:	370c      	adds	r7, #12
 8008a18:	46bd      	mov	sp, r7
 8008a1a:	f85d 7b04 	ldr.w	r7, [sp], #4
 8008a1e:	4770      	bx	lr

08008a20 <HAL_UART_AbortReceiveCpltCallback>:
  * @brief  UART Abort Receive Complete callback.
  * @param  huart UART handle.
  * @retval None
  */
__weak void HAL_UART_AbortReceiveCpltCallback(UART_HandleTypeDef *huart)
{
 8008a20:	b480      	push	{r7}
 8008a22:	b083      	sub	sp, #12
 8008a24:	af00      	add	r7, sp, #0
 8008a26:	6078      	str	r0, [r7, #4]
  UNUSED(huart);

  /* NOTE : This function should not be modified, when the callback is needed,
            the HAL_UART_AbortReceiveCpltCallback can be implemented in the user file.
   */
}
 8008a28:	bf00      	nop
 8008a2a:	370c      	adds	r7, #12
 8008a2c:	46bd      	mov	sp, r7
 8008a2e:	f85d 7b04 	ldr.w	r7, [sp], #4
 8008a32:	4770      	bx	lr

08008a34 <HAL_UARTEx_RxEventCallback>:
  * @param  Size  Number of data available in application reception buffer (indicates a position in
  *               reception buffer until which, data are available)
  * @retval None
  */
__weak void HAL_UARTEx_RxEventCallback(UART_HandleTypeDef *huart, uint16_t Size)
{
 8008a34:	b480      	push	{r7}
 8008a36:	b083      	sub	sp, #12
 8008a38:	af00      	add	r7, sp, #0
 8008a3a:	6078      	str	r0, [r7, #4]
 8008a3c:	460b      	mov	r3, r1
 8008a3e:	807b      	strh	r3, [r7, #2]
  UNUSED(Size);

  /* NOTE : This function should not be modified, when the callback is needed,
            the HAL_UARTEx_RxEventCallback can be implemented in the user file.
   */
}
 8008a40:	bf00      	nop
 8008a42:	370c      	adds	r7, #12
 8008a44:	46bd      	mov	sp, r7
 8008a46:	f85d 7b04 	ldr.w	r7, [sp], #4
 8008a4a:	4770      	bx	lr

08008a4c <UART_InitCallbacksToDefault>:
  * @param  huart UART handle.
  * @retval none
  */
#if (USE_HAL_UART_REGISTER_CALLBACKS == 1)
void UART_InitCallbacksToDefault(UART_HandleTypeDef *huart)
{
 8008a4c:	b480      	push	{r7}
 8008a4e:	b083      	sub	sp, #12
 8008a50:	af00      	add	r7, sp, #0
 8008a52:	6078      	str	r0, [r7, #4]
  /* Init the UART Callback settings */
  huart->TxHalfCpltCallback        = HAL_UART_TxHalfCpltCallback;        /* Legacy weak TxHalfCpltCallback        */
 8008a54:	687b      	ldr	r3, [r7, #4]
 8008a56:	4a14      	ldr	r2, [pc, #80]	; (8008aa8 <UART_InitCallbacksToDefault+0x5c>)
 8008a58:	f8c3 2088 	str.w	r2, [r3, #136]	; 0x88
  huart->TxCpltCallback            = HAL_UART_TxCpltCallback;            /* Legacy weak TxCpltCallback            */
 8008a5c:	687b      	ldr	r3, [r7, #4]
 8008a5e:	4a13      	ldr	r2, [pc, #76]	; (8008aac <UART_InitCallbacksToDefault+0x60>)
 8008a60:	f8c3 208c 	str.w	r2, [r3, #140]	; 0x8c
  huart->RxHalfCpltCallback        = HAL_UART_RxHalfCpltCallback;        /* Legacy weak RxHalfCpltCallback        */
 8008a64:	687b      	ldr	r3, [r7, #4]
 8008a66:	4a12      	ldr	r2, [pc, #72]	; (8008ab0 <UART_InitCallbacksToDefault+0x64>)
 8008a68:	f8c3 2090 	str.w	r2, [r3, #144]	; 0x90
  huart->RxCpltCallback            = HAL_UART_RxCpltCallback;            /* Legacy weak RxCpltCallback            */
 8008a6c:	687b      	ldr	r3, [r7, #4]
 8008a6e:	4a11      	ldr	r2, [pc, #68]	; (8008ab4 <UART_InitCallbacksToDefault+0x68>)
 8008a70:	f8c3 2094 	str.w	r2, [r3, #148]	; 0x94
  huart->ErrorCallback             = HAL_UART_ErrorCallback;             /* Legacy weak ErrorCallback             */
 8008a74:	687b      	ldr	r3, [r7, #4]
 8008a76:	4a10      	ldr	r2, [pc, #64]	; (8008ab8 <UART_InitCallbacksToDefault+0x6c>)
 8008a78:	f8c3 2098 	str.w	r2, [r3, #152]	; 0x98
  huart->AbortCpltCallback         = HAL_UART_AbortCpltCallback;         /* Legacy weak AbortCpltCallback         */
 8008a7c:	687b      	ldr	r3, [r7, #4]
 8008a7e:	4a0f      	ldr	r2, [pc, #60]	; (8008abc <UART_InitCallbacksToDefault+0x70>)
 8008a80:	f8c3 209c 	str.w	r2, [r3, #156]	; 0x9c
  huart->AbortTransmitCpltCallback = HAL_UART_AbortTransmitCpltCallback; /* Legacy weak AbortTransmitCpltCallback */
 8008a84:	687b      	ldr	r3, [r7, #4]
 8008a86:	4a0e      	ldr	r2, [pc, #56]	; (8008ac0 <UART_InitCallbacksToDefault+0x74>)
 8008a88:	f8c3 20a0 	str.w	r2, [r3, #160]	; 0xa0
  huart->AbortReceiveCpltCallback  = HAL_UART_AbortReceiveCpltCallback;  /* Legacy weak AbortReceiveCpltCallback  */
 8008a8c:	687b      	ldr	r3, [r7, #4]
 8008a8e:	4a0d      	ldr	r2, [pc, #52]	; (8008ac4 <UART_InitCallbacksToDefault+0x78>)
 8008a90:	f8c3 20a4 	str.w	r2, [r3, #164]	; 0xa4
#if defined(USART_CR1_UESM)
#if defined(USART_CR3_WUFIE)
  huart->WakeupCallback            = HAL_UARTEx_WakeupCallback;          /* Legacy weak WakeupCallback            */
#endif /* USART_CR3_WUFIE */
#endif /* USART_CR1_UESM */
  huart->RxEventCallback           = HAL_UARTEx_RxEventCallback;         /* Legacy weak RxEventCallback           */
 8008a94:	687b      	ldr	r3, [r7, #4]
 8008a96:	4a0c      	ldr	r2, [pc, #48]	; (8008ac8 <UART_InitCallbacksToDefault+0x7c>)
 8008a98:	f8c3 20a8 	str.w	r2, [r3, #168]	; 0xa8

}
 8008a9c:	bf00      	nop
 8008a9e:	370c      	adds	r7, #12
 8008aa0:	46bd      	mov	sp, r7
 8008aa2:	f85d 7b04 	ldr.w	r7, [sp], #4
 8008aa6:	4770      	bx	lr
 8008aa8:	080089a9 	.word	0x080089a9
 8008aac:	08008995 	.word	0x08008995
 8008ab0:	080089d1 	.word	0x080089d1
 8008ab4:	080089bd 	.word	0x080089bd
 8008ab8:	080089e5 	.word	0x080089e5
 8008abc:	080089f9 	.word	0x080089f9
 8008ac0:	08008a0d 	.word	0x08008a0d
 8008ac4:	08008a21 	.word	0x08008a21
 8008ac8:	08008a35 	.word	0x08008a35

08008acc <UART_SetConfig>:
  * @brief Configure the UART peripheral.
  * @param huart UART handle.
  * @retval HAL status
  */
HAL_StatusTypeDef UART_SetConfig(UART_HandleTypeDef *huart)
{
 8008acc:	b580      	push	{r7, lr}
 8008ace:	b088      	sub	sp, #32
 8008ad0:	af00      	add	r7, sp, #0
 8008ad2:	6078      	str	r0, [r7, #4]
  uint32_t tmpreg;
  uint16_t brrtemp;
  UART_ClockSourceTypeDef clocksource;
  uint32_t usartdiv;
  HAL_StatusTypeDef ret               = HAL_OK;
 8008ad4:	2300      	movs	r3, #0
 8008ad6:	77bb      	strb	r3, [r7, #30]
  *  the UART Word Length, Parity, Mode and oversampling:
  *  set the M bits according to huart->Init.WordLength value
  *  set PCE and PS bits according to huart->Init.Parity value
  *  set TE and RE bits according to huart->Init.Mode value
  *  set OVER8 bit according to huart->Init.OverSampling value */
  tmpreg = (uint32_t)huart->Init.WordLength | huart->Init.Parity | huart->Init.Mode | huart->Init.OverSampling ;
 8008ad8:	687b      	ldr	r3, [r7, #4]
 8008ada:	689a      	ldr	r2, [r3, #8]
 8008adc:	687b      	ldr	r3, [r7, #4]
 8008ade:	691b      	ldr	r3, [r3, #16]
 8008ae0:	431a      	orrs	r2, r3
 8008ae2:	687b      	ldr	r3, [r7, #4]
 8008ae4:	695b      	ldr	r3, [r3, #20]
 8008ae6:	431a      	orrs	r2, r3
 8008ae8:	687b      	ldr	r3, [r7, #4]
 8008aea:	69db      	ldr	r3, [r3, #28]
 8008aec:	4313      	orrs	r3, r2
 8008aee:	617b      	str	r3, [r7, #20]
  MODIFY_REG(huart->Instance->CR1, USART_CR1_FIELDS, tmpreg);
 8008af0:	687b      	ldr	r3, [r7, #4]
 8008af2:	681b      	ldr	r3, [r3, #0]
 8008af4:	681a      	ldr	r2, [r3, #0]
 8008af6:	4ba6      	ldr	r3, [pc, #664]	; (8008d90 <UART_SetConfig+0x2c4>)
 8008af8:	4013      	ands	r3, r2
 8008afa:	687a      	ldr	r2, [r7, #4]
 8008afc:	6812      	ldr	r2, [r2, #0]
 8008afe:	6979      	ldr	r1, [r7, #20]
 8008b00:	430b      	orrs	r3, r1
 8008b02:	6013      	str	r3, [r2, #0]

  /*-------------------------- USART CR2 Configuration -----------------------*/
  /* Configure the UART Stop Bits: Set STOP[13:12] bits according
  * to huart->Init.StopBits value */
  MODIFY_REG(huart->Instance->CR2, USART_CR2_STOP, huart->Init.StopBits);
 8008b04:	687b      	ldr	r3, [r7, #4]
 8008b06:	681b      	ldr	r3, [r3, #0]
 8008b08:	685b      	ldr	r3, [r3, #4]
 8008b0a:	f423 5140 	bic.w	r1, r3, #12288	; 0x3000
 8008b0e:	687b      	ldr	r3, [r7, #4]
 8008b10:	68da      	ldr	r2, [r3, #12]
 8008b12:	687b      	ldr	r3, [r7, #4]
 8008b14:	681b      	ldr	r3, [r3, #0]
 8008b16:	430a      	orrs	r2, r1
 8008b18:	605a      	str	r2, [r3, #4]
  /* Configure
  * - UART HardWare Flow Control: set CTSE and RTSE bits according
  *   to huart->Init.HwFlowCtl value
  * - one-bit sampling method versus three samples' majority rule according
  *   to huart->Init.OneBitSampling (not applicable to LPUART) */
  tmpreg = (uint32_t)huart->Init.HwFlowCtl;
 8008b1a:	687b      	ldr	r3, [r7, #4]
 8008b1c:	699b      	ldr	r3, [r3, #24]
 8008b1e:	617b      	str	r3, [r7, #20]

  tmpreg |= huart->Init.OneBitSampling;
 8008b20:	687b      	ldr	r3, [r7, #4]
 8008b22:	6a1b      	ldr	r3, [r3, #32]
 8008b24:	697a      	ldr	r2, [r7, #20]
 8008b26:	4313      	orrs	r3, r2
 8008b28:	617b      	str	r3, [r7, #20]
  MODIFY_REG(huart->Instance->CR3, USART_CR3_FIELDS, tmpreg);
 8008b2a:	687b      	ldr	r3, [r7, #4]
 8008b2c:	681b      	ldr	r3, [r3, #0]
 8008b2e:	689b      	ldr	r3, [r3, #8]
 8008b30:	f423 6130 	bic.w	r1, r3, #2816	; 0xb00
 8008b34:	687b      	ldr	r3, [r7, #4]
 8008b36:	681b      	ldr	r3, [r3, #0]
 8008b38:	697a      	ldr	r2, [r7, #20]
 8008b3a:	430a      	orrs	r2, r1
 8008b3c:	609a      	str	r2, [r3, #8]


  /*-------------------------- USART BRR Configuration -----------------------*/
  UART_GETCLOCKSOURCE(huart, clocksource);
 8008b3e:	687b      	ldr	r3, [r7, #4]
 8008b40:	681b      	ldr	r3, [r3, #0]
 8008b42:	4a94      	ldr	r2, [pc, #592]	; (8008d94 <UART_SetConfig+0x2c8>)
 8008b44:	4293      	cmp	r3, r2
 8008b46:	d120      	bne.n	8008b8a <UART_SetConfig+0xbe>
 8008b48:	4b93      	ldr	r3, [pc, #588]	; (8008d98 <UART_SetConfig+0x2cc>)
 8008b4a:	f8d3 3090 	ldr.w	r3, [r3, #144]	; 0x90
 8008b4e:	f003 0303 	and.w	r3, r3, #3
 8008b52:	2b03      	cmp	r3, #3
 8008b54:	d816      	bhi.n	8008b84 <UART_SetConfig+0xb8>
 8008b56:	a201      	add	r2, pc, #4	; (adr r2, 8008b5c <UART_SetConfig+0x90>)
 8008b58:	f852 f023 	ldr.w	pc, [r2, r3, lsl #2]
 8008b5c:	08008b6d 	.word	0x08008b6d
 8008b60:	08008b79 	.word	0x08008b79
 8008b64:	08008b73 	.word	0x08008b73
 8008b68:	08008b7f 	.word	0x08008b7f
 8008b6c:	2301      	movs	r3, #1
 8008b6e:	77fb      	strb	r3, [r7, #31]
 8008b70:	e150      	b.n	8008e14 <UART_SetConfig+0x348>
 8008b72:	2302      	movs	r3, #2
 8008b74:	77fb      	strb	r3, [r7, #31]
 8008b76:	e14d      	b.n	8008e14 <UART_SetConfig+0x348>
 8008b78:	2304      	movs	r3, #4
 8008b7a:	77fb      	strb	r3, [r7, #31]
 8008b7c:	e14a      	b.n	8008e14 <UART_SetConfig+0x348>
 8008b7e:	2308      	movs	r3, #8
 8008b80:	77fb      	strb	r3, [r7, #31]
 8008b82:	e147      	b.n	8008e14 <UART_SetConfig+0x348>
 8008b84:	2310      	movs	r3, #16
 8008b86:	77fb      	strb	r3, [r7, #31]
 8008b88:	e144      	b.n	8008e14 <UART_SetConfig+0x348>
 8008b8a:	687b      	ldr	r3, [r7, #4]
 8008b8c:	681b      	ldr	r3, [r3, #0]
 8008b8e:	4a83      	ldr	r2, [pc, #524]	; (8008d9c <UART_SetConfig+0x2d0>)
 8008b90:	4293      	cmp	r3, r2
 8008b92:	d132      	bne.n	8008bfa <UART_SetConfig+0x12e>
 8008b94:	4b80      	ldr	r3, [pc, #512]	; (8008d98 <UART_SetConfig+0x2cc>)
 8008b96:	f8d3 3090 	ldr.w	r3, [r3, #144]	; 0x90
 8008b9a:	f003 030c 	and.w	r3, r3, #12
 8008b9e:	2b0c      	cmp	r3, #12
 8008ba0:	d828      	bhi.n	8008bf4 <UART_SetConfig+0x128>
 8008ba2:	a201      	add	r2, pc, #4	; (adr r2, 8008ba8 <UART_SetConfig+0xdc>)
 8008ba4:	f852 f023 	ldr.w	pc, [r2, r3, lsl #2]
 8008ba8:	08008bdd 	.word	0x08008bdd
 8008bac:	08008bf5 	.word	0x08008bf5
 8008bb0:	08008bf5 	.word	0x08008bf5
 8008bb4:	08008bf5 	.word	0x08008bf5
 8008bb8:	08008be9 	.word	0x08008be9
 8008bbc:	08008bf5 	.word	0x08008bf5
 8008bc0:	08008bf5 	.word	0x08008bf5
 8008bc4:	08008bf5 	.word	0x08008bf5
 8008bc8:	08008be3 	.word	0x08008be3
 8008bcc:	08008bf5 	.word	0x08008bf5
 8008bd0:	08008bf5 	.word	0x08008bf5
 8008bd4:	08008bf5 	.word	0x08008bf5
 8008bd8:	08008bef 	.word	0x08008bef
 8008bdc:	2300      	movs	r3, #0
 8008bde:	77fb      	strb	r3, [r7, #31]
 8008be0:	e118      	b.n	8008e14 <UART_SetConfig+0x348>
 8008be2:	2302      	movs	r3, #2
 8008be4:	77fb      	strb	r3, [r7, #31]
 8008be6:	e115      	b.n	8008e14 <UART_SetConfig+0x348>
 8008be8:	2304      	movs	r3, #4
 8008bea:	77fb      	strb	r3, [r7, #31]
 8008bec:	e112      	b.n	8008e14 <UART_SetConfig+0x348>
 8008bee:	2308      	movs	r3, #8
 8008bf0:	77fb      	strb	r3, [r7, #31]
 8008bf2:	e10f      	b.n	8008e14 <UART_SetConfig+0x348>
 8008bf4:	2310      	movs	r3, #16
 8008bf6:	77fb      	strb	r3, [r7, #31]
 8008bf8:	e10c      	b.n	8008e14 <UART_SetConfig+0x348>
 8008bfa:	687b      	ldr	r3, [r7, #4]
 8008bfc:	681b      	ldr	r3, [r3, #0]
 8008bfe:	4a68      	ldr	r2, [pc, #416]	; (8008da0 <UART_SetConfig+0x2d4>)
 8008c00:	4293      	cmp	r3, r2
 8008c02:	d120      	bne.n	8008c46 <UART_SetConfig+0x17a>
 8008c04:	4b64      	ldr	r3, [pc, #400]	; (8008d98 <UART_SetConfig+0x2cc>)
 8008c06:	f8d3 3090 	ldr.w	r3, [r3, #144]	; 0x90
 8008c0a:	f003 0330 	and.w	r3, r3, #48	; 0x30
 8008c0e:	2b30      	cmp	r3, #48	; 0x30
 8008c10:	d013      	beq.n	8008c3a <UART_SetConfig+0x16e>
 8008c12:	2b30      	cmp	r3, #48	; 0x30
 8008c14:	d814      	bhi.n	8008c40 <UART_SetConfig+0x174>
 8008c16:	2b20      	cmp	r3, #32
 8008c18:	d009      	beq.n	8008c2e <UART_SetConfig+0x162>
 8008c1a:	2b20      	cmp	r3, #32
 8008c1c:	d810      	bhi.n	8008c40 <UART_SetConfig+0x174>
 8008c1e:	2b00      	cmp	r3, #0
 8008c20:	d002      	beq.n	8008c28 <UART_SetConfig+0x15c>
 8008c22:	2b10      	cmp	r3, #16
 8008c24:	d006      	beq.n	8008c34 <UART_SetConfig+0x168>
 8008c26:	e00b      	b.n	8008c40 <UART_SetConfig+0x174>
 8008c28:	2300      	movs	r3, #0
 8008c2a:	77fb      	strb	r3, [r7, #31]
 8008c2c:	e0f2      	b.n	8008e14 <UART_SetConfig+0x348>
 8008c2e:	2302      	movs	r3, #2
 8008c30:	77fb      	strb	r3, [r7, #31]
 8008c32:	e0ef      	b.n	8008e14 <UART_SetConfig+0x348>
 8008c34:	2304      	movs	r3, #4
 8008c36:	77fb      	strb	r3, [r7, #31]
 8008c38:	e0ec      	b.n	8008e14 <UART_SetConfig+0x348>
 8008c3a:	2308      	movs	r3, #8
 8008c3c:	77fb      	strb	r3, [r7, #31]
 8008c3e:	e0e9      	b.n	8008e14 <UART_SetConfig+0x348>
 8008c40:	2310      	movs	r3, #16
 8008c42:	77fb      	strb	r3, [r7, #31]
 8008c44:	e0e6      	b.n	8008e14 <UART_SetConfig+0x348>
 8008c46:	687b      	ldr	r3, [r7, #4]
 8008c48:	681b      	ldr	r3, [r3, #0]
 8008c4a:	4a56      	ldr	r2, [pc, #344]	; (8008da4 <UART_SetConfig+0x2d8>)
 8008c4c:	4293      	cmp	r3, r2
 8008c4e:	d120      	bne.n	8008c92 <UART_SetConfig+0x1c6>
 8008c50:	4b51      	ldr	r3, [pc, #324]	; (8008d98 <UART_SetConfig+0x2cc>)
 8008c52:	f8d3 3090 	ldr.w	r3, [r3, #144]	; 0x90
 8008c56:	f003 03c0 	and.w	r3, r3, #192	; 0xc0
 8008c5a:	2bc0      	cmp	r3, #192	; 0xc0
 8008c5c:	d013      	beq.n	8008c86 <UART_SetConfig+0x1ba>
 8008c5e:	2bc0      	cmp	r3, #192	; 0xc0
 8008c60:	d814      	bhi.n	8008c8c <UART_SetConfig+0x1c0>
 8008c62:	2b80      	cmp	r3, #128	; 0x80
 8008c64:	d009      	beq.n	8008c7a <UART_SetConfig+0x1ae>
 8008c66:	2b80      	cmp	r3, #128	; 0x80
 8008c68:	d810      	bhi.n	8008c8c <UART_SetConfig+0x1c0>
 8008c6a:	2b00      	cmp	r3, #0
 8008c6c:	d002      	beq.n	8008c74 <UART_SetConfig+0x1a8>
 8008c6e:	2b40      	cmp	r3, #64	; 0x40
 8008c70:	d006      	beq.n	8008c80 <UART_SetConfig+0x1b4>
 8008c72:	e00b      	b.n	8008c8c <UART_SetConfig+0x1c0>
 8008c74:	2300      	movs	r3, #0
 8008c76:	77fb      	strb	r3, [r7, #31]
 8008c78:	e0cc      	b.n	8008e14 <UART_SetConfig+0x348>
 8008c7a:	2302      	movs	r3, #2
 8008c7c:	77fb      	strb	r3, [r7, #31]
 8008c7e:	e0c9      	b.n	8008e14 <UART_SetConfig+0x348>
 8008c80:	2304      	movs	r3, #4
 8008c82:	77fb      	strb	r3, [r7, #31]
 8008c84:	e0c6      	b.n	8008e14 <UART_SetConfig+0x348>
 8008c86:	2308      	movs	r3, #8
 8008c88:	77fb      	strb	r3, [r7, #31]
 8008c8a:	e0c3      	b.n	8008e14 <UART_SetConfig+0x348>
 8008c8c:	2310      	movs	r3, #16
 8008c8e:	77fb      	strb	r3, [r7, #31]
 8008c90:	e0c0      	b.n	8008e14 <UART_SetConfig+0x348>
 8008c92:	687b      	ldr	r3, [r7, #4]
 8008c94:	681b      	ldr	r3, [r3, #0]
 8008c96:	4a44      	ldr	r2, [pc, #272]	; (8008da8 <UART_SetConfig+0x2dc>)
 8008c98:	4293      	cmp	r3, r2
 8008c9a:	d125      	bne.n	8008ce8 <UART_SetConfig+0x21c>
 8008c9c:	4b3e      	ldr	r3, [pc, #248]	; (8008d98 <UART_SetConfig+0x2cc>)
 8008c9e:	f8d3 3090 	ldr.w	r3, [r3, #144]	; 0x90
 8008ca2:	f403 7340 	and.w	r3, r3, #768	; 0x300
 8008ca6:	f5b3 7f40 	cmp.w	r3, #768	; 0x300
 8008caa:	d017      	beq.n	8008cdc <UART_SetConfig+0x210>
 8008cac:	f5b3 7f40 	cmp.w	r3, #768	; 0x300
 8008cb0:	d817      	bhi.n	8008ce2 <UART_SetConfig+0x216>
 8008cb2:	f5b3 7f00 	cmp.w	r3, #512	; 0x200
 8008cb6:	d00b      	beq.n	8008cd0 <UART_SetConfig+0x204>
 8008cb8:	f5b3 7f00 	cmp.w	r3, #512	; 0x200
 8008cbc:	d811      	bhi.n	8008ce2 <UART_SetConfig+0x216>
 8008cbe:	2b00      	cmp	r3, #0
 8008cc0:	d003      	beq.n	8008cca <UART_SetConfig+0x1fe>
 8008cc2:	f5b3 7f80 	cmp.w	r3, #256	; 0x100
 8008cc6:	d006      	beq.n	8008cd6 <UART_SetConfig+0x20a>
 8008cc8:	e00b      	b.n	8008ce2 <UART_SetConfig+0x216>
 8008cca:	2300      	movs	r3, #0
 8008ccc:	77fb      	strb	r3, [r7, #31]
 8008cce:	e0a1      	b.n	8008e14 <UART_SetConfig+0x348>
 8008cd0:	2302      	movs	r3, #2
 8008cd2:	77fb      	strb	r3, [r7, #31]
 8008cd4:	e09e      	b.n	8008e14 <UART_SetConfig+0x348>
 8008cd6:	2304      	movs	r3, #4
 8008cd8:	77fb      	strb	r3, [r7, #31]
 8008cda:	e09b      	b.n	8008e14 <UART_SetConfig+0x348>
 8008cdc:	2308      	movs	r3, #8
 8008cde:	77fb      	strb	r3, [r7, #31]
 8008ce0:	e098      	b.n	8008e14 <UART_SetConfig+0x348>
 8008ce2:	2310      	movs	r3, #16
 8008ce4:	77fb      	strb	r3, [r7, #31]
 8008ce6:	e095      	b.n	8008e14 <UART_SetConfig+0x348>
 8008ce8:	687b      	ldr	r3, [r7, #4]
 8008cea:	681b      	ldr	r3, [r3, #0]
 8008cec:	4a2f      	ldr	r2, [pc, #188]	; (8008dac <UART_SetConfig+0x2e0>)
 8008cee:	4293      	cmp	r3, r2
 8008cf0:	d125      	bne.n	8008d3e <UART_SetConfig+0x272>
 8008cf2:	4b29      	ldr	r3, [pc, #164]	; (8008d98 <UART_SetConfig+0x2cc>)
 8008cf4:	f8d3 3090 	ldr.w	r3, [r3, #144]	; 0x90
 8008cf8:	f403 6340 	and.w	r3, r3, #3072	; 0xc00
 8008cfc:	f5b3 6f40 	cmp.w	r3, #3072	; 0xc00
 8008d00:	d017      	beq.n	8008d32 <UART_SetConfig+0x266>
 8008d02:	f5b3 6f40 	cmp.w	r3, #3072	; 0xc00
 8008d06:	d817      	bhi.n	8008d38 <UART_SetConfig+0x26c>
 8008d08:	f5b3 6f00 	cmp.w	r3, #2048	; 0x800
 8008d0c:	d00b      	beq.n	8008d26 <UART_SetConfig+0x25a>
 8008d0e:	f5b3 6f00 	cmp.w	r3, #2048	; 0x800
 8008d12:	d811      	bhi.n	8008d38 <UART_SetConfig+0x26c>
 8008d14:	2b00      	cmp	r3, #0
 8008d16:	d003      	beq.n	8008d20 <UART_SetConfig+0x254>
 8008d18:	f5b3 6f80 	cmp.w	r3, #1024	; 0x400
 8008d1c:	d006      	beq.n	8008d2c <UART_SetConfig+0x260>
 8008d1e:	e00b      	b.n	8008d38 <UART_SetConfig+0x26c>
 8008d20:	2301      	movs	r3, #1
 8008d22:	77fb      	strb	r3, [r7, #31]
 8008d24:	e076      	b.n	8008e14 <UART_SetConfig+0x348>
 8008d26:	2302      	movs	r3, #2
 8008d28:	77fb      	strb	r3, [r7, #31]
 8008d2a:	e073      	b.n	8008e14 <UART_SetConfig+0x348>
 8008d2c:	2304      	movs	r3, #4
 8008d2e:	77fb      	strb	r3, [r7, #31]
 8008d30:	e070      	b.n	8008e14 <UART_SetConfig+0x348>
 8008d32:	2308      	movs	r3, #8
 8008d34:	77fb      	strb	r3, [r7, #31]
 8008d36:	e06d      	b.n	8008e14 <UART_SetConfig+0x348>
 8008d38:	2310      	movs	r3, #16
 8008d3a:	77fb      	strb	r3, [r7, #31]
 8008d3c:	e06a      	b.n	8008e14 <UART_SetConfig+0x348>
 8008d3e:	687b      	ldr	r3, [r7, #4]
 8008d40:	681b      	ldr	r3, [r3, #0]
 8008d42:	4a1b      	ldr	r2, [pc, #108]	; (8008db0 <UART_SetConfig+0x2e4>)
 8008d44:	4293      	cmp	r3, r2
 8008d46:	d138      	bne.n	8008dba <UART_SetConfig+0x2ee>
 8008d48:	4b13      	ldr	r3, [pc, #76]	; (8008d98 <UART_SetConfig+0x2cc>)
 8008d4a:	f8d3 3090 	ldr.w	r3, [r3, #144]	; 0x90
 8008d4e:	f403 5340 	and.w	r3, r3, #12288	; 0x3000
 8008d52:	f5b3 5f40 	cmp.w	r3, #12288	; 0x3000
 8008d56:	d017      	beq.n	8008d88 <UART_SetConfig+0x2bc>
 8008d58:	f5b3 5f40 	cmp.w	r3, #12288	; 0x3000
 8008d5c:	d82a      	bhi.n	8008db4 <UART_SetConfig+0x2e8>
 8008d5e:	f5b3 5f00 	cmp.w	r3, #8192	; 0x2000
 8008d62:	d00b      	beq.n	8008d7c <UART_SetConfig+0x2b0>
 8008d64:	f5b3 5f00 	cmp.w	r3, #8192	; 0x2000
 8008d68:	d824      	bhi.n	8008db4 <UART_SetConfig+0x2e8>
 8008d6a:	2b00      	cmp	r3, #0
 8008d6c:	d003      	beq.n	8008d76 <UART_SetConfig+0x2aa>
 8008d6e:	f5b3 5f80 	cmp.w	r3, #4096	; 0x1000
 8008d72:	d006      	beq.n	8008d82 <UART_SetConfig+0x2b6>
 8008d74:	e01e      	b.n	8008db4 <UART_SetConfig+0x2e8>
 8008d76:	2300      	movs	r3, #0
 8008d78:	77fb      	strb	r3, [r7, #31]
 8008d7a:	e04b      	b.n	8008e14 <UART_SetConfig+0x348>
 8008d7c:	2302      	movs	r3, #2
 8008d7e:	77fb      	strb	r3, [r7, #31]
 8008d80:	e048      	b.n	8008e14 <UART_SetConfig+0x348>
 8008d82:	2304      	movs	r3, #4
 8008d84:	77fb      	strb	r3, [r7, #31]
 8008d86:	e045      	b.n	8008e14 <UART_SetConfig+0x348>
 8008d88:	2308      	movs	r3, #8
 8008d8a:	77fb      	strb	r3, [r7, #31]
 8008d8c:	e042      	b.n	8008e14 <UART_SetConfig+0x348>
 8008d8e:	bf00      	nop
 8008d90:	efff69f3 	.word	0xefff69f3
 8008d94:	40011000 	.word	0x40011000
 8008d98:	40023800 	.word	0x40023800
 8008d9c:	40004400 	.word	0x40004400
 8008da0:	40004800 	.word	0x40004800
 8008da4:	40004c00 	.word	0x40004c00
 8008da8:	40005000 	.word	0x40005000
 8008dac:	40011400 	.word	0x40011400
 8008db0:	40007800 	.word	0x40007800
 8008db4:	2310      	movs	r3, #16
 8008db6:	77fb      	strb	r3, [r7, #31]
 8008db8:	e02c      	b.n	8008e14 <UART_SetConfig+0x348>
 8008dba:	687b      	ldr	r3, [r7, #4]
 8008dbc:	681b      	ldr	r3, [r3, #0]
 8008dbe:	4a72      	ldr	r2, [pc, #456]	; (8008f88 <UART_SetConfig+0x4bc>)
 8008dc0:	4293      	cmp	r3, r2
 8008dc2:	d125      	bne.n	8008e10 <UART_SetConfig+0x344>
 8008dc4:	4b71      	ldr	r3, [pc, #452]	; (8008f8c <UART_SetConfig+0x4c0>)
 8008dc6:	f8d3 3090 	ldr.w	r3, [r3, #144]	; 0x90
 8008dca:	f403 4340 	and.w	r3, r3, #49152	; 0xc000
 8008dce:	f5b3 4f40 	cmp.w	r3, #49152	; 0xc000
 8008dd2:	d017      	beq.n	8008e04 <UART_SetConfig+0x338>
 8008dd4:	f5b3 4f40 	cmp.w	r3, #49152	; 0xc000
 8008dd8:	d817      	bhi.n	8008e0a <UART_SetConfig+0x33e>
 8008dda:	f5b3 4f00 	cmp.w	r3, #32768	; 0x8000
 8008dde:	d00b      	beq.n	8008df8 <UART_SetConfig+0x32c>
 8008de0:	f5b3 4f00 	cmp.w	r3, #32768	; 0x8000
 8008de4:	d811      	bhi.n	8008e0a <UART_SetConfig+0x33e>
 8008de6:	2b00      	cmp	r3, #0
 8008de8:	d003      	beq.n	8008df2 <UART_SetConfig+0x326>
 8008dea:	f5b3 4f80 	cmp.w	r3, #16384	; 0x4000
 8008dee:	d006      	beq.n	8008dfe <UART_SetConfig+0x332>
 8008df0:	e00b      	b.n	8008e0a <UART_SetConfig+0x33e>
 8008df2:	2300      	movs	r3, #0
 8008df4:	77fb      	strb	r3, [r7, #31]
 8008df6:	e00d      	b.n	8008e14 <UART_SetConfig+0x348>
 8008df8:	2302      	movs	r3, #2
 8008dfa:	77fb      	strb	r3, [r7, #31]
 8008dfc:	e00a      	b.n	8008e14 <UART_SetConfig+0x348>
 8008dfe:	2304      	movs	r3, #4
 8008e00:	77fb      	strb	r3, [r7, #31]
 8008e02:	e007      	b.n	8008e14 <UART_SetConfig+0x348>
 8008e04:	2308      	movs	r3, #8
 8008e06:	77fb      	strb	r3, [r7, #31]
 8008e08:	e004      	b.n	8008e14 <UART_SetConfig+0x348>
 8008e0a:	2310      	movs	r3, #16
 8008e0c:	77fb      	strb	r3, [r7, #31]
 8008e0e:	e001      	b.n	8008e14 <UART_SetConfig+0x348>
 8008e10:	2310      	movs	r3, #16
 8008e12:	77fb      	strb	r3, [r7, #31]

  if (huart->Init.OverSampling == UART_OVERSAMPLING_8)
 8008e14:	687b      	ldr	r3, [r7, #4]
 8008e16:	69db      	ldr	r3, [r3, #28]
 8008e18:	f5b3 4f00 	cmp.w	r3, #32768	; 0x8000
 8008e1c:	d15b      	bne.n	8008ed6 <UART_SetConfig+0x40a>
  {
    switch (clocksource)
 8008e1e:	7ffb      	ldrb	r3, [r7, #31]
 8008e20:	2b08      	cmp	r3, #8
 8008e22:	d828      	bhi.n	8008e76 <UART_SetConfig+0x3aa>
 8008e24:	a201      	add	r2, pc, #4	; (adr r2, 8008e2c <UART_SetConfig+0x360>)
 8008e26:	f852 f023 	ldr.w	pc, [r2, r3, lsl #2]
 8008e2a:	bf00      	nop
 8008e2c:	08008e51 	.word	0x08008e51
 8008e30:	08008e59 	.word	0x08008e59
 8008e34:	08008e61 	.word	0x08008e61
 8008e38:	08008e77 	.word	0x08008e77
 8008e3c:	08008e67 	.word	0x08008e67
 8008e40:	08008e77 	.word	0x08008e77
 8008e44:	08008e77 	.word	0x08008e77
 8008e48:	08008e77 	.word	0x08008e77
 8008e4c:	08008e6f 	.word	0x08008e6f
    {
      case UART_CLOCKSOURCE_PCLK1:
        pclk = HAL_RCC_GetPCLK1Freq();
 8008e50:	f7fd faec 	bl	800642c <HAL_RCC_GetPCLK1Freq>
 8008e54:	61b8      	str	r0, [r7, #24]
        break;
 8008e56:	e013      	b.n	8008e80 <UART_SetConfig+0x3b4>
      case UART_CLOCKSOURCE_PCLK2:
        pclk = HAL_RCC_GetPCLK2Freq();
 8008e58:	f7fd fafc 	bl	8006454 <HAL_RCC_GetPCLK2Freq>
 8008e5c:	61b8      	str	r0, [r7, #24]
        break;
 8008e5e:	e00f      	b.n	8008e80 <UART_SetConfig+0x3b4>
      case UART_CLOCKSOURCE_HSI:
        pclk = (uint32_t) HSI_VALUE;
 8008e60:	4b4b      	ldr	r3, [pc, #300]	; (8008f90 <UART_SetConfig+0x4c4>)
 8008e62:	61bb      	str	r3, [r7, #24]
        break;
 8008e64:	e00c      	b.n	8008e80 <UART_SetConfig+0x3b4>
      case UART_CLOCKSOURCE_SYSCLK:
        pclk = HAL_RCC_GetSysClockFreq();
 8008e66:	f7fd f9cf 	bl	8006208 <HAL_RCC_GetSysClockFreq>
 8008e6a:	61b8      	str	r0, [r7, #24]
        break;
 8008e6c:	e008      	b.n	8008e80 <UART_SetConfig+0x3b4>
      case UART_CLOCKSOURCE_LSE:
        pclk = (uint32_t) LSE_VALUE;
 8008e6e:	f44f 4300 	mov.w	r3, #32768	; 0x8000
 8008e72:	61bb      	str	r3, [r7, #24]
        break;
 8008e74:	e004      	b.n	8008e80 <UART_SetConfig+0x3b4>
      default:
        pclk = 0U;
 8008e76:	2300      	movs	r3, #0
 8008e78:	61bb      	str	r3, [r7, #24]
        ret = HAL_ERROR;
 8008e7a:	2301      	movs	r3, #1
 8008e7c:	77bb      	strb	r3, [r7, #30]
        break;
 8008e7e:	bf00      	nop
    }

    /* USARTDIV must be greater than or equal to 0d16 */
    if (pclk != 0U)
 8008e80:	69bb      	ldr	r3, [r7, #24]
 8008e82:	2b00      	cmp	r3, #0
 8008e84:	d074      	beq.n	8008f70 <UART_SetConfig+0x4a4>
    {
      usartdiv = (uint32_t)(UART_DIV_SAMPLING8(pclk, huart->Init.BaudRate));
 8008e86:	69bb      	ldr	r3, [r7, #24]
 8008e88:	005a      	lsls	r2, r3, #1
 8008e8a:	687b      	ldr	r3, [r7, #4]
 8008e8c:	685b      	ldr	r3, [r3, #4]
 8008e8e:	085b      	lsrs	r3, r3, #1
 8008e90:	441a      	add	r2, r3
 8008e92:	687b      	ldr	r3, [r7, #4]
 8008e94:	685b      	ldr	r3, [r3, #4]
 8008e96:	fbb2 f3f3 	udiv	r3, r2, r3
 8008e9a:	613b      	str	r3, [r7, #16]
      if ((usartdiv >= UART_BRR_MIN) && (usartdiv <= UART_BRR_MAX))
 8008e9c:	693b      	ldr	r3, [r7, #16]
 8008e9e:	2b0f      	cmp	r3, #15
 8008ea0:	d916      	bls.n	8008ed0 <UART_SetConfig+0x404>
 8008ea2:	693b      	ldr	r3, [r7, #16]
 8008ea4:	f5b3 3f80 	cmp.w	r3, #65536	; 0x10000
 8008ea8:	d212      	bcs.n	8008ed0 <UART_SetConfig+0x404>
      {
        brrtemp = (uint16_t)(usartdiv & 0xFFF0U);
 8008eaa:	693b      	ldr	r3, [r7, #16]
 8008eac:	b29b      	uxth	r3, r3
 8008eae:	f023 030f 	bic.w	r3, r3, #15
 8008eb2:	81fb      	strh	r3, [r7, #14]
        brrtemp |= (uint16_t)((usartdiv & (uint16_t)0x000FU) >> 1U);
 8008eb4:	693b      	ldr	r3, [r7, #16]
 8008eb6:	085b      	lsrs	r3, r3, #1
 8008eb8:	b29b      	uxth	r3, r3
 8008eba:	f003 0307 	and.w	r3, r3, #7
 8008ebe:	b29a      	uxth	r2, r3
 8008ec0:	89fb      	ldrh	r3, [r7, #14]
 8008ec2:	4313      	orrs	r3, r2
 8008ec4:	81fb      	strh	r3, [r7, #14]
        huart->Instance->BRR = brrtemp;
 8008ec6:	687b      	ldr	r3, [r7, #4]
 8008ec8:	681b      	ldr	r3, [r3, #0]
 8008eca:	89fa      	ldrh	r2, [r7, #14]
 8008ecc:	60da      	str	r2, [r3, #12]
 8008ece:	e04f      	b.n	8008f70 <UART_SetConfig+0x4a4>
      }
      else
      {
        ret = HAL_ERROR;
 8008ed0:	2301      	movs	r3, #1
 8008ed2:	77bb      	strb	r3, [r7, #30]
 8008ed4:	e04c      	b.n	8008f70 <UART_SetConfig+0x4a4>
      }
    }
  }
  else
  {
    switch (clocksource)
 8008ed6:	7ffb      	ldrb	r3, [r7, #31]
 8008ed8:	2b08      	cmp	r3, #8
 8008eda:	d828      	bhi.n	8008f2e <UART_SetConfig+0x462>
 8008edc:	a201      	add	r2, pc, #4	; (adr r2, 8008ee4 <UART_SetConfig+0x418>)
 8008ede:	f852 f023 	ldr.w	pc, [r2, r3, lsl #2]
 8008ee2:	bf00      	nop
 8008ee4:	08008f09 	.word	0x08008f09
 8008ee8:	08008f11 	.word	0x08008f11
 8008eec:	08008f19 	.word	0x08008f19
 8008ef0:	08008f2f 	.word	0x08008f2f
 8008ef4:	08008f1f 	.word	0x08008f1f
 8008ef8:	08008f2f 	.word	0x08008f2f
 8008efc:	08008f2f 	.word	0x08008f2f
 8008f00:	08008f2f 	.word	0x08008f2f
 8008f04:	08008f27 	.word	0x08008f27
    {
      case UART_CLOCKSOURCE_PCLK1:
        pclk = HAL_RCC_GetPCLK1Freq();
 8008f08:	f7fd fa90 	bl	800642c <HAL_RCC_GetPCLK1Freq>
 8008f0c:	61b8      	str	r0, [r7, #24]
        break;
 8008f0e:	e013      	b.n	8008f38 <UART_SetConfig+0x46c>
      case UART_CLOCKSOURCE_PCLK2:
        pclk = HAL_RCC_GetPCLK2Freq();
 8008f10:	f7fd faa0 	bl	8006454 <HAL_RCC_GetPCLK2Freq>
 8008f14:	61b8      	str	r0, [r7, #24]
        break;
 8008f16:	e00f      	b.n	8008f38 <UART_SetConfig+0x46c>
      case UART_CLOCKSOURCE_HSI:
        pclk = (uint32_t) HSI_VALUE;
 8008f18:	4b1d      	ldr	r3, [pc, #116]	; (8008f90 <UART_SetConfig+0x4c4>)
 8008f1a:	61bb      	str	r3, [r7, #24]
        break;
 8008f1c:	e00c      	b.n	8008f38 <UART_SetConfig+0x46c>
      case UART_CLOCKSOURCE_SYSCLK:
        pclk = HAL_RCC_GetSysClockFreq();
 8008f1e:	f7fd f973 	bl	8006208 <HAL_RCC_GetSysClockFreq>
 8008f22:	61b8      	str	r0, [r7, #24]
        break;
 8008f24:	e008      	b.n	8008f38 <UART_SetConfig+0x46c>
      case UART_CLOCKSOURCE_LSE:
        pclk = (uint32_t) LSE_VALUE;
 8008f26:	f44f 4300 	mov.w	r3, #32768	; 0x8000
 8008f2a:	61bb      	str	r3, [r7, #24]
        break;
 8008f2c:	e004      	b.n	8008f38 <UART_SetConfig+0x46c>
      default:
        pclk = 0U;
 8008f2e:	2300      	movs	r3, #0
 8008f30:	61bb      	str	r3, [r7, #24]
        ret = HAL_ERROR;
 8008f32:	2301      	movs	r3, #1
 8008f34:	77bb      	strb	r3, [r7, #30]
        break;
 8008f36:	bf00      	nop
    }

    if (pclk != 0U)
 8008f38:	69bb      	ldr	r3, [r7, #24]
 8008f3a:	2b00      	cmp	r3, #0
 8008f3c:	d018      	beq.n	8008f70 <UART_SetConfig+0x4a4>
    {
      /* USARTDIV must be greater than or equal to 0d16 */
      usartdiv = (uint32_t)(UART_DIV_SAMPLING16(pclk, huart->Init.BaudRate));
 8008f3e:	687b      	ldr	r3, [r7, #4]
 8008f40:	685b      	ldr	r3, [r3, #4]
 8008f42:	085a      	lsrs	r2, r3, #1
 8008f44:	69bb      	ldr	r3, [r7, #24]
 8008f46:	441a      	add	r2, r3
 8008f48:	687b      	ldr	r3, [r7, #4]
 8008f4a:	685b      	ldr	r3, [r3, #4]
 8008f4c:	fbb2 f3f3 	udiv	r3, r2, r3
 8008f50:	613b      	str	r3, [r7, #16]
      if ((usartdiv >= UART_BRR_MIN) && (usartdiv <= UART_BRR_MAX))
 8008f52:	693b      	ldr	r3, [r7, #16]
 8008f54:	2b0f      	cmp	r3, #15
 8008f56:	d909      	bls.n	8008f6c <UART_SetConfig+0x4a0>
 8008f58:	693b      	ldr	r3, [r7, #16]
 8008f5a:	f5b3 3f80 	cmp.w	r3, #65536	; 0x10000
 8008f5e:	d205      	bcs.n	8008f6c <UART_SetConfig+0x4a0>
      {
        huart->Instance->BRR = (uint16_t)usartdiv;
 8008f60:	693b      	ldr	r3, [r7, #16]
 8008f62:	b29a      	uxth	r2, r3
 8008f64:	687b      	ldr	r3, [r7, #4]
 8008f66:	681b      	ldr	r3, [r3, #0]
 8008f68:	60da      	str	r2, [r3, #12]
 8008f6a:	e001      	b.n	8008f70 <UART_SetConfig+0x4a4>
      }
      else
      {
        ret = HAL_ERROR;
 8008f6c:	2301      	movs	r3, #1
 8008f6e:	77bb      	strb	r3, [r7, #30]
    }
  }


  /* Clear ISR function pointers */
  huart->RxISR = NULL;
 8008f70:	687b      	ldr	r3, [r7, #4]
 8008f72:	2200      	movs	r2, #0
 8008f74:	669a      	str	r2, [r3, #104]	; 0x68
  huart->TxISR = NULL;
 8008f76:	687b      	ldr	r3, [r7, #4]
 8008f78:	2200      	movs	r2, #0
 8008f7a:	66da      	str	r2, [r3, #108]	; 0x6c

  return ret;
 8008f7c:	7fbb      	ldrb	r3, [r7, #30]
}
 8008f7e:	4618      	mov	r0, r3
 8008f80:	3720      	adds	r7, #32
 8008f82:	46bd      	mov	sp, r7
 8008f84:	bd80      	pop	{r7, pc}
 8008f86:	bf00      	nop
 8008f88:	40007c00 	.word	0x40007c00
 8008f8c:	40023800 	.word	0x40023800
 8008f90:	00f42400 	.word	0x00f42400

08008f94 <UART_AdvFeatureConfig>:
  * @brief Configure the UART peripheral advanced features.
  * @param huart UART handle.
  * @retval None
  */
void UART_AdvFeatureConfig(UART_HandleTypeDef *huart)
{
 8008f94:	b480      	push	{r7}
 8008f96:	b083      	sub	sp, #12
 8008f98:	af00      	add	r7, sp, #0
 8008f9a:	6078      	str	r0, [r7, #4]
  /* Check whether the set of advanced features to configure is properly set */
  assert_param(IS_UART_ADVFEATURE_INIT(huart->AdvancedInit.AdvFeatureInit));

  /* if required, configure TX pin active level inversion */
  if (HAL_IS_BIT_SET(huart->AdvancedInit.AdvFeatureInit, UART_ADVFEATURE_TXINVERT_INIT))
 8008f9c:	687b      	ldr	r3, [r7, #4]
 8008f9e:	6a5b      	ldr	r3, [r3, #36]	; 0x24
 8008fa0:	f003 0301 	and.w	r3, r3, #1
 8008fa4:	2b00      	cmp	r3, #0
 8008fa6:	d00a      	beq.n	8008fbe <UART_AdvFeatureConfig+0x2a>
  {
    assert_param(IS_UART_ADVFEATURE_TXINV(huart->AdvancedInit.TxPinLevelInvert));
    MODIFY_REG(huart->Instance->CR2, USART_CR2_TXINV, huart->AdvancedInit.TxPinLevelInvert);
 8008fa8:	687b      	ldr	r3, [r7, #4]
 8008faa:	681b      	ldr	r3, [r3, #0]
 8008fac:	685b      	ldr	r3, [r3, #4]
 8008fae:	f423 3100 	bic.w	r1, r3, #131072	; 0x20000
 8008fb2:	687b      	ldr	r3, [r7, #4]
 8008fb4:	6a9a      	ldr	r2, [r3, #40]	; 0x28
 8008fb6:	687b      	ldr	r3, [r7, #4]
 8008fb8:	681b      	ldr	r3, [r3, #0]
 8008fba:	430a      	orrs	r2, r1
 8008fbc:	605a      	str	r2, [r3, #4]
  }

  /* if required, configure RX pin active level inversion */
  if (HAL_IS_BIT_SET(huart->AdvancedInit.AdvFeatureInit, UART_ADVFEATURE_RXINVERT_INIT))
 8008fbe:	687b      	ldr	r3, [r7, #4]
 8008fc0:	6a5b      	ldr	r3, [r3, #36]	; 0x24
 8008fc2:	f003 0302 	and.w	r3, r3, #2
 8008fc6:	2b00      	cmp	r3, #0
 8008fc8:	d00a      	beq.n	8008fe0 <UART_AdvFeatureConfig+0x4c>
  {
    assert_param(IS_UART_ADVFEATURE_RXINV(huart->AdvancedInit.RxPinLevelInvert));
    MODIFY_REG(huart->Instance->CR2, USART_CR2_RXINV, huart->AdvancedInit.RxPinLevelInvert);
 8008fca:	687b      	ldr	r3, [r7, #4]
 8008fcc:	681b      	ldr	r3, [r3, #0]
 8008fce:	685b      	ldr	r3, [r3, #4]
 8008fd0:	f423 3180 	bic.w	r1, r3, #65536	; 0x10000
 8008fd4:	687b      	ldr	r3, [r7, #4]
 8008fd6:	6ada      	ldr	r2, [r3, #44]	; 0x2c
 8008fd8:	687b      	ldr	r3, [r7, #4]
 8008fda:	681b      	ldr	r3, [r3, #0]
 8008fdc:	430a      	orrs	r2, r1
 8008fde:	605a      	str	r2, [r3, #4]
  }

  /* if required, configure data inversion */
  if (HAL_IS_BIT_SET(huart->AdvancedInit.AdvFeatureInit, UART_ADVFEATURE_DATAINVERT_INIT))
 8008fe0:	687b      	ldr	r3, [r7, #4]
 8008fe2:	6a5b      	ldr	r3, [r3, #36]	; 0x24
 8008fe4:	f003 0304 	and.w	r3, r3, #4
 8008fe8:	2b00      	cmp	r3, #0
 8008fea:	d00a      	beq.n	8009002 <UART_AdvFeatureConfig+0x6e>
  {
    assert_param(IS_UART_ADVFEATURE_DATAINV(huart->AdvancedInit.DataInvert));
    MODIFY_REG(huart->Instance->CR2, USART_CR2_DATAINV, huart->AdvancedInit.DataInvert);
 8008fec:	687b      	ldr	r3, [r7, #4]
 8008fee:	681b      	ldr	r3, [r3, #0]
 8008ff0:	685b      	ldr	r3, [r3, #4]
 8008ff2:	f423 2180 	bic.w	r1, r3, #262144	; 0x40000
 8008ff6:	687b      	ldr	r3, [r7, #4]
 8008ff8:	6b1a      	ldr	r2, [r3, #48]	; 0x30
 8008ffa:	687b      	ldr	r3, [r7, #4]
 8008ffc:	681b      	ldr	r3, [r3, #0]
 8008ffe:	430a      	orrs	r2, r1
 8009000:	605a      	str	r2, [r3, #4]
  }

  /* if required, configure RX/TX pins swap */
  if (HAL_IS_BIT_SET(huart->AdvancedInit.AdvFeatureInit, UART_ADVFEATURE_SWAP_INIT))
 8009002:	687b      	ldr	r3, [r7, #4]
 8009004:	6a5b      	ldr	r3, [r3, #36]	; 0x24
 8009006:	f003 0308 	and.w	r3, r3, #8
 800900a:	2b00      	cmp	r3, #0
 800900c:	d00a      	beq.n	8009024 <UART_AdvFeatureConfig+0x90>
  {
    assert_param(IS_UART_ADVFEATURE_SWAP(huart->AdvancedInit.Swap));
    MODIFY_REG(huart->Instance->CR2, USART_CR2_SWAP, huart->AdvancedInit.Swap);
 800900e:	687b      	ldr	r3, [r7, #4]
 8009010:	681b      	ldr	r3, [r3, #0]
 8009012:	685b      	ldr	r3, [r3, #4]
 8009014:	f423 4100 	bic.w	r1, r3, #32768	; 0x8000
 8009018:	687b      	ldr	r3, [r7, #4]
 800901a:	6b5a      	ldr	r2, [r3, #52]	; 0x34
 800901c:	687b      	ldr	r3, [r7, #4]
 800901e:	681b      	ldr	r3, [r3, #0]
 8009020:	430a      	orrs	r2, r1
 8009022:	605a      	str	r2, [r3, #4]
  }

  /* if required, configure RX overrun detection disabling */
  if (HAL_IS_BIT_SET(huart->AdvancedInit.AdvFeatureInit, UART_ADVFEATURE_RXOVERRUNDISABLE_INIT))
 8009024:	687b      	ldr	r3, [r7, #4]
 8009026:	6a5b      	ldr	r3, [r3, #36]	; 0x24
 8009028:	f003 0310 	and.w	r3, r3, #16
 800902c:	2b00      	cmp	r3, #0
 800902e:	d00a      	beq.n	8009046 <UART_AdvFeatureConfig+0xb2>
  {
    assert_param(IS_UART_OVERRUN(huart->AdvancedInit.OverrunDisable));
    MODIFY_REG(huart->Instance->CR3, USART_CR3_OVRDIS, huart->AdvancedInit.OverrunDisable);
 8009030:	687b      	ldr	r3, [r7, #4]
 8009032:	681b      	ldr	r3, [r3, #0]
 8009034:	689b      	ldr	r3, [r3, #8]
 8009036:	f423 5180 	bic.w	r1, r3, #4096	; 0x1000
 800903a:	687b      	ldr	r3, [r7, #4]
 800903c:	6b9a      	ldr	r2, [r3, #56]	; 0x38
 800903e:	687b      	ldr	r3, [r7, #4]
 8009040:	681b      	ldr	r3, [r3, #0]
 8009042:	430a      	orrs	r2, r1
 8009044:	609a      	str	r2, [r3, #8]
  }

  /* if required, configure DMA disabling on reception error */
  if (HAL_IS_BIT_SET(huart->AdvancedInit.AdvFeatureInit, UART_ADVFEATURE_DMADISABLEONERROR_INIT))
 8009046:	687b      	ldr	r3, [r7, #4]
 8009048:	6a5b      	ldr	r3, [r3, #36]	; 0x24
 800904a:	f003 0320 	and.w	r3, r3, #32
 800904e:	2b00      	cmp	r3, #0
 8009050:	d00a      	beq.n	8009068 <UART_AdvFeatureConfig+0xd4>
  {
    assert_param(IS_UART_ADVFEATURE_DMAONRXERROR(huart->AdvancedInit.DMADisableonRxError));
    MODIFY_REG(huart->Instance->CR3, USART_CR3_DDRE, huart->AdvancedInit.DMADisableonRxError);
 8009052:	687b      	ldr	r3, [r7, #4]
 8009054:	681b      	ldr	r3, [r3, #0]
 8009056:	689b      	ldr	r3, [r3, #8]
 8009058:	f423 5100 	bic.w	r1, r3, #8192	; 0x2000
 800905c:	687b      	ldr	r3, [r7, #4]
 800905e:	6bda      	ldr	r2, [r3, #60]	; 0x3c
 8009060:	687b      	ldr	r3, [r7, #4]
 8009062:	681b      	ldr	r3, [r3, #0]
 8009064:	430a      	orrs	r2, r1
 8009066:	609a      	str	r2, [r3, #8]
  }

  /* if required, configure auto Baud rate detection scheme */
  if (HAL_IS_BIT_SET(huart->AdvancedInit.AdvFeatureInit, UART_ADVFEATURE_AUTOBAUDRATE_INIT))
 8009068:	687b      	ldr	r3, [r7, #4]
 800906a:	6a5b      	ldr	r3, [r3, #36]	; 0x24
 800906c:	f003 0340 	and.w	r3, r3, #64	; 0x40
 8009070:	2b00      	cmp	r3, #0
 8009072:	d01a      	beq.n	80090aa <UART_AdvFeatureConfig+0x116>
  {
    assert_param(IS_USART_AUTOBAUDRATE_DETECTION_INSTANCE(huart->Instance));
    assert_param(IS_UART_ADVFEATURE_AUTOBAUDRATE(huart->AdvancedInit.AutoBaudRateEnable));
    MODIFY_REG(huart->Instance->CR2, USART_CR2_ABREN, huart->AdvancedInit.AutoBaudRateEnable);
 8009074:	687b      	ldr	r3, [r7, #4]
 8009076:	681b      	ldr	r3, [r3, #0]
 8009078:	685b      	ldr	r3, [r3, #4]
 800907a:	f423 1180 	bic.w	r1, r3, #1048576	; 0x100000
 800907e:	687b      	ldr	r3, [r7, #4]
 8009080:	6c1a      	ldr	r2, [r3, #64]	; 0x40
 8009082:	687b      	ldr	r3, [r7, #4]
 8009084:	681b      	ldr	r3, [r3, #0]
 8009086:	430a      	orrs	r2, r1
 8009088:	605a      	str	r2, [r3, #4]
    /* set auto Baudrate detection parameters if detection is enabled */
    if (huart->AdvancedInit.AutoBaudRateEnable == UART_ADVFEATURE_AUTOBAUDRATE_ENABLE)
 800908a:	687b      	ldr	r3, [r7, #4]
 800908c:	6c1b      	ldr	r3, [r3, #64]	; 0x40
 800908e:	f5b3 1f80 	cmp.w	r3, #1048576	; 0x100000
 8009092:	d10a      	bne.n	80090aa <UART_AdvFeatureConfig+0x116>
    {
      assert_param(IS_UART_ADVFEATURE_AUTOBAUDRATEMODE(huart->AdvancedInit.AutoBaudRateMode));
      MODIFY_REG(huart->Instance->CR2, USART_CR2_ABRMODE, huart->AdvancedInit.AutoBaudRateMode);
 8009094:	687b      	ldr	r3, [r7, #4]
 8009096:	681b      	ldr	r3, [r3, #0]
 8009098:	685b      	ldr	r3, [r3, #4]
 800909a:	f423 01c0 	bic.w	r1, r3, #6291456	; 0x600000
 800909e:	687b      	ldr	r3, [r7, #4]
 80090a0:	6c5a      	ldr	r2, [r3, #68]	; 0x44
 80090a2:	687b      	ldr	r3, [r7, #4]
 80090a4:	681b      	ldr	r3, [r3, #0]
 80090a6:	430a      	orrs	r2, r1
 80090a8:	605a      	str	r2, [r3, #4]
    }
  }

  /* if required, configure MSB first on communication line */
  if (HAL_IS_BIT_SET(huart->AdvancedInit.AdvFeatureInit, UART_ADVFEATURE_MSBFIRST_INIT))
 80090aa:	687b      	ldr	r3, [r7, #4]
 80090ac:	6a5b      	ldr	r3, [r3, #36]	; 0x24
 80090ae:	f003 0380 	and.w	r3, r3, #128	; 0x80
 80090b2:	2b00      	cmp	r3, #0
 80090b4:	d00a      	beq.n	80090cc <UART_AdvFeatureConfig+0x138>
  {
    assert_param(IS_UART_ADVFEATURE_MSBFIRST(huart->AdvancedInit.MSBFirst));
    MODIFY_REG(huart->Instance->CR2, USART_CR2_MSBFIRST, huart->AdvancedInit.MSBFirst);
 80090b6:	687b      	ldr	r3, [r7, #4]
 80090b8:	681b      	ldr	r3, [r3, #0]
 80090ba:	685b      	ldr	r3, [r3, #4]
 80090bc:	f423 2100 	bic.w	r1, r3, #524288	; 0x80000
 80090c0:	687b      	ldr	r3, [r7, #4]
 80090c2:	6c9a      	ldr	r2, [r3, #72]	; 0x48
 80090c4:	687b      	ldr	r3, [r7, #4]
 80090c6:	681b      	ldr	r3, [r3, #0]
 80090c8:	430a      	orrs	r2, r1
 80090ca:	605a      	str	r2, [r3, #4]
  }
}
 80090cc:	bf00      	nop
 80090ce:	370c      	adds	r7, #12
 80090d0:	46bd      	mov	sp, r7
 80090d2:	f85d 7b04 	ldr.w	r7, [sp], #4
 80090d6:	4770      	bx	lr

080090d8 <UART_CheckIdleState>:
  * @brief Check the UART Idle State.
  * @param huart UART handle.
  * @retval HAL status
  */
HAL_StatusTypeDef UART_CheckIdleState(UART_HandleTypeDef *huart)
{
 80090d8:	b580      	push	{r7, lr}
 80090da:	b086      	sub	sp, #24
 80090dc:	af02      	add	r7, sp, #8
 80090de:	6078      	str	r0, [r7, #4]
  uint32_t tickstart;

  /* Initialize the UART ErrorCode */
  huart->ErrorCode = HAL_UART_ERROR_NONE;
 80090e0:	687b      	ldr	r3, [r7, #4]
 80090e2:	2200      	movs	r2, #0
 80090e4:	f8c3 2084 	str.w	r2, [r3, #132]	; 0x84

  /* Init tickstart for timeout management */
  tickstart = HAL_GetTick();
 80090e8:	f7fb fd7c 	bl	8004be4 <HAL_GetTick>
 80090ec:	60f8      	str	r0, [r7, #12]

  /* Check if the Transmitter is enabled */
  if ((huart->Instance->CR1 & USART_CR1_TE) == USART_CR1_TE)
 80090ee:	687b      	ldr	r3, [r7, #4]
 80090f0:	681b      	ldr	r3, [r3, #0]
 80090f2:	681b      	ldr	r3, [r3, #0]
 80090f4:	f003 0308 	and.w	r3, r3, #8
 80090f8:	2b08      	cmp	r3, #8
 80090fa:	d10e      	bne.n	800911a <UART_CheckIdleState+0x42>
  {
    /* Wait until TEACK flag is set */
    if (UART_WaitOnFlagUntilTimeout(huart, USART_ISR_TEACK, RESET, tickstart, HAL_UART_TIMEOUT_VALUE) != HAL_OK)
 80090fc:	f06f 437e 	mvn.w	r3, #4261412864	; 0xfe000000
 8009100:	9300      	str	r3, [sp, #0]
 8009102:	68fb      	ldr	r3, [r7, #12]
 8009104:	2200      	movs	r2, #0
 8009106:	f44f 1100 	mov.w	r1, #2097152	; 0x200000
 800910a:	6878      	ldr	r0, [r7, #4]
 800910c:	f000 f81b 	bl	8009146 <UART_WaitOnFlagUntilTimeout>
 8009110:	4603      	mov	r3, r0
 8009112:	2b00      	cmp	r3, #0
 8009114:	d001      	beq.n	800911a <UART_CheckIdleState+0x42>
    {
      /* Timeout occurred */
      return HAL_TIMEOUT;
 8009116:	2303      	movs	r3, #3
 8009118:	e011      	b.n	800913e <UART_CheckIdleState+0x66>
    }
  }
#endif /* USART_ISR_REACK */

  /* Initialize the UART State */
  huart->gState = HAL_UART_STATE_READY;
 800911a:	687b      	ldr	r3, [r7, #4]
 800911c:	2220      	movs	r2, #32
 800911e:	67da      	str	r2, [r3, #124]	; 0x7c
  huart->RxState = HAL_UART_STATE_READY;
 8009120:	687b      	ldr	r3, [r7, #4]
 8009122:	2220      	movs	r2, #32
 8009124:	f8c3 2080 	str.w	r2, [r3, #128]	; 0x80
  huart->ReceptionType = HAL_UART_RECEPTION_STANDARD;
 8009128:	687b      	ldr	r3, [r7, #4]
 800912a:	2200      	movs	r2, #0
 800912c:	661a      	str	r2, [r3, #96]	; 0x60
  huart->RxEventType = HAL_UART_RXEVENT_TC;
 800912e:	687b      	ldr	r3, [r7, #4]
 8009130:	2200      	movs	r2, #0
 8009132:	665a      	str	r2, [r3, #100]	; 0x64

  __HAL_UNLOCK(huart);
 8009134:	687b      	ldr	r3, [r7, #4]
 8009136:	2200      	movs	r2, #0
 8009138:	f883 2078 	strb.w	r2, [r3, #120]	; 0x78

  return HAL_OK;
 800913c:	2300      	movs	r3, #0
}
 800913e:	4618      	mov	r0, r3
 8009140:	3710      	adds	r7, #16
 8009142:	46bd      	mov	sp, r7
 8009144:	bd80      	pop	{r7, pc}

08009146 <UART_WaitOnFlagUntilTimeout>:
  * @param Timeout   Timeout duration
  * @retval HAL status
  */
HAL_StatusTypeDef UART_WaitOnFlagUntilTimeout(UART_HandleTypeDef *huart, uint32_t Flag, FlagStatus Status,
                                              uint32_t Tickstart, uint32_t Timeout)
{
 8009146:	b580      	push	{r7, lr}
 8009148:	b09c      	sub	sp, #112	; 0x70
 800914a:	af00      	add	r7, sp, #0
 800914c:	60f8      	str	r0, [r7, #12]
 800914e:	60b9      	str	r1, [r7, #8]
 8009150:	603b      	str	r3, [r7, #0]
 8009152:	4613      	mov	r3, r2
 8009154:	71fb      	strb	r3, [r7, #7]
  /* Wait until flag is set */
  while ((__HAL_UART_GET_FLAG(huart, Flag) ? SET : RESET) == Status)
 8009156:	e0a7      	b.n	80092a8 <UART_WaitOnFlagUntilTimeout+0x162>
  {
    /* Check for the Timeout */
    if (Timeout != HAL_MAX_DELAY)
 8009158:	6fbb      	ldr	r3, [r7, #120]	; 0x78
 800915a:	f1b3 3fff 	cmp.w	r3, #4294967295	; 0xffffffff
 800915e:	f000 80a3 	beq.w	80092a8 <UART_WaitOnFlagUntilTimeout+0x162>
    {
      if (((HAL_GetTick() - Tickstart) > Timeout) || (Timeout == 0U))
 8009162:	f7fb fd3f 	bl	8004be4 <HAL_GetTick>
 8009166:	4602      	mov	r2, r0
 8009168:	683b      	ldr	r3, [r7, #0]
 800916a:	1ad3      	subs	r3, r2, r3
 800916c:	6fba      	ldr	r2, [r7, #120]	; 0x78
 800916e:	429a      	cmp	r2, r3
 8009170:	d302      	bcc.n	8009178 <UART_WaitOnFlagUntilTimeout+0x32>
 8009172:	6fbb      	ldr	r3, [r7, #120]	; 0x78
 8009174:	2b00      	cmp	r3, #0
 8009176:	d13f      	bne.n	80091f8 <UART_WaitOnFlagUntilTimeout+0xb2>
      {
        /* Disable TXE, RXNE, PE and ERR (Frame error, noise error, overrun error)
           interrupts for the interrupt process */
        ATOMIC_CLEAR_BIT(huart->Instance->CR1, (USART_CR1_RXNEIE | USART_CR1_PEIE | USART_CR1_TXEIE));
 8009178:	68fb      	ldr	r3, [r7, #12]
 800917a:	681b      	ldr	r3, [r3, #0]
 800917c:	653b      	str	r3, [r7, #80]	; 0x50
   __ASM volatile ("ldrex %0, %1" : "=r" (result) : "Q" (*addr) );
 800917e:	6d3b      	ldr	r3, [r7, #80]	; 0x50
 8009180:	e853 3f00 	ldrex	r3, [r3]
 8009184:	64fb      	str	r3, [r7, #76]	; 0x4c
   return(result);
 8009186:	6cfb      	ldr	r3, [r7, #76]	; 0x4c
 8009188:	f423 73d0 	bic.w	r3, r3, #416	; 0x1a0
 800918c:	667b      	str	r3, [r7, #100]	; 0x64
 800918e:	68fb      	ldr	r3, [r7, #12]
 8009190:	681b      	ldr	r3, [r3, #0]
 8009192:	461a      	mov	r2, r3
 8009194:	6e7b      	ldr	r3, [r7, #100]	; 0x64
 8009196:	65fb      	str	r3, [r7, #92]	; 0x5c
 8009198:	65ba      	str	r2, [r7, #88]	; 0x58
   __ASM volatile ("strex %0, %2, %1" : "=&r" (result), "=Q" (*addr) : "r" (value) );
 800919a:	6db9      	ldr	r1, [r7, #88]	; 0x58
 800919c:	6dfa      	ldr	r2, [r7, #92]	; 0x5c
 800919e:	e841 2300 	strex	r3, r2, [r1]
 80091a2:	657b      	str	r3, [r7, #84]	; 0x54
   return(result);
 80091a4:	6d7b      	ldr	r3, [r7, #84]	; 0x54
 80091a6:	2b00      	cmp	r3, #0
 80091a8:	d1e6      	bne.n	8009178 <UART_WaitOnFlagUntilTimeout+0x32>
        ATOMIC_CLEAR_BIT(huart->Instance->CR3, USART_CR3_EIE);
 80091aa:	68fb      	ldr	r3, [r7, #12]
 80091ac:	681b      	ldr	r3, [r3, #0]
 80091ae:	3308      	adds	r3, #8
 80091b0:	63fb      	str	r3, [r7, #60]	; 0x3c
   __ASM volatile ("ldrex %0, %1" : "=r" (result) : "Q" (*addr) );
 80091b2:	6bfb      	ldr	r3, [r7, #60]	; 0x3c
 80091b4:	e853 3f00 	ldrex	r3, [r3]
 80091b8:	63bb      	str	r3, [r7, #56]	; 0x38
   return(result);
 80091ba:	6bbb      	ldr	r3, [r7, #56]	; 0x38
 80091bc:	f023 0301 	bic.w	r3, r3, #1
 80091c0:	663b      	str	r3, [r7, #96]	; 0x60
 80091c2:	68fb      	ldr	r3, [r7, #12]
 80091c4:	681b      	ldr	r3, [r3, #0]
 80091c6:	3308      	adds	r3, #8
 80091c8:	6e3a      	ldr	r2, [r7, #96]	; 0x60
 80091ca:	64ba      	str	r2, [r7, #72]	; 0x48
 80091cc:	647b      	str	r3, [r7, #68]	; 0x44
   __ASM volatile ("strex %0, %2, %1" : "=&r" (result), "=Q" (*addr) : "r" (value) );
 80091ce:	6c79      	ldr	r1, [r7, #68]	; 0x44
 80091d0:	6cba      	ldr	r2, [r7, #72]	; 0x48
 80091d2:	e841 2300 	strex	r3, r2, [r1]
 80091d6:	643b      	str	r3, [r7, #64]	; 0x40
   return(result);
 80091d8:	6c3b      	ldr	r3, [r7, #64]	; 0x40
 80091da:	2b00      	cmp	r3, #0
 80091dc:	d1e5      	bne.n	80091aa <UART_WaitOnFlagUntilTimeout+0x64>

        huart->gState = HAL_UART_STATE_READY;
 80091de:	68fb      	ldr	r3, [r7, #12]
 80091e0:	2220      	movs	r2, #32
 80091e2:	67da      	str	r2, [r3, #124]	; 0x7c
        huart->RxState = HAL_UART_STATE_READY;
 80091e4:	68fb      	ldr	r3, [r7, #12]
 80091e6:	2220      	movs	r2, #32
 80091e8:	f8c3 2080 	str.w	r2, [r3, #128]	; 0x80

        __HAL_UNLOCK(huart);
 80091ec:	68fb      	ldr	r3, [r7, #12]
 80091ee:	2200      	movs	r2, #0
 80091f0:	f883 2078 	strb.w	r2, [r3, #120]	; 0x78

        return HAL_TIMEOUT;
 80091f4:	2303      	movs	r3, #3
 80091f6:	e068      	b.n	80092ca <UART_WaitOnFlagUntilTimeout+0x184>
      }

      if (READ_BIT(huart->Instance->CR1, USART_CR1_RE) != 0U)
 80091f8:	68fb      	ldr	r3, [r7, #12]
 80091fa:	681b      	ldr	r3, [r3, #0]
 80091fc:	681b      	ldr	r3, [r3, #0]
 80091fe:	f003 0304 	and.w	r3, r3, #4
 8009202:	2b00      	cmp	r3, #0
 8009204:	d050      	beq.n	80092a8 <UART_WaitOnFlagUntilTimeout+0x162>
      {
        if (__HAL_UART_GET_FLAG(huart, UART_FLAG_RTOF) == SET)
 8009206:	68fb      	ldr	r3, [r7, #12]
 8009208:	681b      	ldr	r3, [r3, #0]
 800920a:	69db      	ldr	r3, [r3, #28]
 800920c:	f403 6300 	and.w	r3, r3, #2048	; 0x800
 8009210:	f5b3 6f00 	cmp.w	r3, #2048	; 0x800
 8009214:	d148      	bne.n	80092a8 <UART_WaitOnFlagUntilTimeout+0x162>
        {
          /* Clear Receiver Timeout flag*/
          __HAL_UART_CLEAR_FLAG(huart, UART_CLEAR_RTOF);
 8009216:	68fb      	ldr	r3, [r7, #12]
 8009218:	681b      	ldr	r3, [r3, #0]
 800921a:	f44f 6200 	mov.w	r2, #2048	; 0x800
 800921e:	621a      	str	r2, [r3, #32]

          /* Disable TXE, RXNE, PE and ERR (Frame error, noise error, overrun error)
             interrupts for the interrupt process */
          ATOMIC_CLEAR_BIT(huart->Instance->CR1, (USART_CR1_RXNEIE | USART_CR1_PEIE | USART_CR1_TXEIE));
 8009220:	68fb      	ldr	r3, [r7, #12]
 8009222:	681b      	ldr	r3, [r3, #0]
 8009224:	62bb      	str	r3, [r7, #40]	; 0x28
   __ASM volatile ("ldrex %0, %1" : "=r" (result) : "Q" (*addr) );
 8009226:	6abb      	ldr	r3, [r7, #40]	; 0x28
 8009228:	e853 3f00 	ldrex	r3, [r3]
 800922c:	627b      	str	r3, [r7, #36]	; 0x24
   return(result);
 800922e:	6a7b      	ldr	r3, [r7, #36]	; 0x24
 8009230:	f423 73d0 	bic.w	r3, r3, #416	; 0x1a0
 8009234:	66fb      	str	r3, [r7, #108]	; 0x6c
 8009236:	68fb      	ldr	r3, [r7, #12]
 8009238:	681b      	ldr	r3, [r3, #0]
 800923a:	461a      	mov	r2, r3
 800923c:	6efb      	ldr	r3, [r7, #108]	; 0x6c
 800923e:	637b      	str	r3, [r7, #52]	; 0x34
 8009240:	633a      	str	r2, [r7, #48]	; 0x30
   __ASM volatile ("strex %0, %2, %1" : "=&r" (result), "=Q" (*addr) : "r" (value) );
 8009242:	6b39      	ldr	r1, [r7, #48]	; 0x30
 8009244:	6b7a      	ldr	r2, [r7, #52]	; 0x34
 8009246:	e841 2300 	strex	r3, r2, [r1]
 800924a:	62fb      	str	r3, [r7, #44]	; 0x2c
   return(result);
 800924c:	6afb      	ldr	r3, [r7, #44]	; 0x2c
 800924e:	2b00      	cmp	r3, #0
 8009250:	d1e6      	bne.n	8009220 <UART_WaitOnFlagUntilTimeout+0xda>
          ATOMIC_CLEAR_BIT(huart->Instance->CR3, USART_CR3_EIE);
 8009252:	68fb      	ldr	r3, [r7, #12]
 8009254:	681b      	ldr	r3, [r3, #0]
 8009256:	3308      	adds	r3, #8
 8009258:	617b      	str	r3, [r7, #20]
   __ASM volatile ("ldrex %0, %1" : "=r" (result) : "Q" (*addr) );
 800925a:	697b      	ldr	r3, [r7, #20]
 800925c:	e853 3f00 	ldrex	r3, [r3]
 8009260:	613b      	str	r3, [r7, #16]
   return(result);
 8009262:	693b      	ldr	r3, [r7, #16]
 8009264:	f023 0301 	bic.w	r3, r3, #1
 8009268:	66bb      	str	r3, [r7, #104]	; 0x68
 800926a:	68fb      	ldr	r3, [r7, #12]
 800926c:	681b      	ldr	r3, [r3, #0]
 800926e:	3308      	adds	r3, #8
 8009270:	6eba      	ldr	r2, [r7, #104]	; 0x68
 8009272:	623a      	str	r2, [r7, #32]
 8009274:	61fb      	str	r3, [r7, #28]
   __ASM volatile ("strex %0, %2, %1" : "=&r" (result), "=Q" (*addr) : "r" (value) );
 8009276:	69f9      	ldr	r1, [r7, #28]
 8009278:	6a3a      	ldr	r2, [r7, #32]
 800927a:	e841 2300 	strex	r3, r2, [r1]
 800927e:	61bb      	str	r3, [r7, #24]
   return(result);
 8009280:	69bb      	ldr	r3, [r7, #24]
 8009282:	2b00      	cmp	r3, #0
 8009284:	d1e5      	bne.n	8009252 <UART_WaitOnFlagUntilTimeout+0x10c>

          huart->gState = HAL_UART_STATE_READY;
 8009286:	68fb      	ldr	r3, [r7, #12]
 8009288:	2220      	movs	r2, #32
 800928a:	67da      	str	r2, [r3, #124]	; 0x7c
          huart->RxState = HAL_UART_STATE_READY;
 800928c:	68fb      	ldr	r3, [r7, #12]
 800928e:	2220      	movs	r2, #32
 8009290:	f8c3 2080 	str.w	r2, [r3, #128]	; 0x80
          huart->ErrorCode = HAL_UART_ERROR_RTO;
 8009294:	68fb      	ldr	r3, [r7, #12]
 8009296:	2220      	movs	r2, #32
 8009298:	f8c3 2084 	str.w	r2, [r3, #132]	; 0x84

          /* Process Unlocked */
          __HAL_UNLOCK(huart);
 800929c:	68fb      	ldr	r3, [r7, #12]
 800929e:	2200      	movs	r2, #0
 80092a0:	f883 2078 	strb.w	r2, [r3, #120]	; 0x78

          return HAL_TIMEOUT;
 80092a4:	2303      	movs	r3, #3
 80092a6:	e010      	b.n	80092ca <UART_WaitOnFlagUntilTimeout+0x184>
  while ((__HAL_UART_GET_FLAG(huart, Flag) ? SET : RESET) == Status)
 80092a8:	68fb      	ldr	r3, [r7, #12]
 80092aa:	681b      	ldr	r3, [r3, #0]
 80092ac:	69da      	ldr	r2, [r3, #28]
 80092ae:	68bb      	ldr	r3, [r7, #8]
 80092b0:	4013      	ands	r3, r2
 80092b2:	68ba      	ldr	r2, [r7, #8]
 80092b4:	429a      	cmp	r2, r3
 80092b6:	bf0c      	ite	eq
 80092b8:	2301      	moveq	r3, #1
 80092ba:	2300      	movne	r3, #0
 80092bc:	b2db      	uxtb	r3, r3
 80092be:	461a      	mov	r2, r3
 80092c0:	79fb      	ldrb	r3, [r7, #7]
 80092c2:	429a      	cmp	r2, r3
 80092c4:	f43f af48 	beq.w	8009158 <UART_WaitOnFlagUntilTimeout+0x12>
        }
      }
    }
  }
  return HAL_OK;
 80092c8:	2300      	movs	r3, #0
}
 80092ca:	4618      	mov	r0, r3
 80092cc:	3770      	adds	r7, #112	; 0x70
 80092ce:	46bd      	mov	sp, r7
 80092d0:	bd80      	pop	{r7, pc}

080092d2 <UART_EndRxTransfer>:
  * @brief  End ongoing Rx transfer on UART peripheral (following error detection or Reception completion).
  * @param  huart UART handle.
  * @retval None
  */
static void UART_EndRxTransfer(UART_HandleTypeDef *huart)
{
 80092d2:	b480      	push	{r7}
 80092d4:	b095      	sub	sp, #84	; 0x54
 80092d6:	af00      	add	r7, sp, #0
 80092d8:	6078      	str	r0, [r7, #4]
  /* Disable RXNE, PE and ERR (Frame error, noise error, overrun error) interrupts */
  ATOMIC_CLEAR_BIT(huart->Instance->CR1, (USART_CR1_RXNEIE | USART_CR1_PEIE));
 80092da:	687b      	ldr	r3, [r7, #4]
 80092dc:	681b      	ldr	r3, [r3, #0]
 80092de:	637b      	str	r3, [r7, #52]	; 0x34
   __ASM volatile ("ldrex %0, %1" : "=r" (result) : "Q" (*addr) );
 80092e0:	6b7b      	ldr	r3, [r7, #52]	; 0x34
 80092e2:	e853 3f00 	ldrex	r3, [r3]
 80092e6:	633b      	str	r3, [r7, #48]	; 0x30
   return(result);
 80092e8:	6b3b      	ldr	r3, [r7, #48]	; 0x30
 80092ea:	f423 7390 	bic.w	r3, r3, #288	; 0x120
 80092ee:	64fb      	str	r3, [r7, #76]	; 0x4c
 80092f0:	687b      	ldr	r3, [r7, #4]
 80092f2:	681b      	ldr	r3, [r3, #0]
 80092f4:	461a      	mov	r2, r3
 80092f6:	6cfb      	ldr	r3, [r7, #76]	; 0x4c
 80092f8:	643b      	str	r3, [r7, #64]	; 0x40
 80092fa:	63fa      	str	r2, [r7, #60]	; 0x3c
   __ASM volatile ("strex %0, %2, %1" : "=&r" (result), "=Q" (*addr) : "r" (value) );
 80092fc:	6bf9      	ldr	r1, [r7, #60]	; 0x3c
 80092fe:	6c3a      	ldr	r2, [r7, #64]	; 0x40
 8009300:	e841 2300 	strex	r3, r2, [r1]
 8009304:	63bb      	str	r3, [r7, #56]	; 0x38
   return(result);
 8009306:	6bbb      	ldr	r3, [r7, #56]	; 0x38
 8009308:	2b00      	cmp	r3, #0
 800930a:	d1e6      	bne.n	80092da <UART_EndRxTransfer+0x8>
  ATOMIC_CLEAR_BIT(huart->Instance->CR3, USART_CR3_EIE);
 800930c:	687b      	ldr	r3, [r7, #4]
 800930e:	681b      	ldr	r3, [r3, #0]
 8009310:	3308      	adds	r3, #8
 8009312:	623b      	str	r3, [r7, #32]
   __ASM volatile ("ldrex %0, %1" : "=r" (result) : "Q" (*addr) );
 8009314:	6a3b      	ldr	r3, [r7, #32]
 8009316:	e853 3f00 	ldrex	r3, [r3]
 800931a:	61fb      	str	r3, [r7, #28]
   return(result);
 800931c:	69fb      	ldr	r3, [r7, #28]
 800931e:	f023 0301 	bic.w	r3, r3, #1
 8009322:	64bb      	str	r3, [r7, #72]	; 0x48
 8009324:	687b      	ldr	r3, [r7, #4]
 8009326:	681b      	ldr	r3, [r3, #0]
 8009328:	3308      	adds	r3, #8
 800932a:	6cba      	ldr	r2, [r7, #72]	; 0x48
 800932c:	62fa      	str	r2, [r7, #44]	; 0x2c
 800932e:	62bb      	str	r3, [r7, #40]	; 0x28
   __ASM volatile ("strex %0, %2, %1" : "=&r" (result), "=Q" (*addr) : "r" (value) );
 8009330:	6ab9      	ldr	r1, [r7, #40]	; 0x28
 8009332:	6afa      	ldr	r2, [r7, #44]	; 0x2c
 8009334:	e841 2300 	strex	r3, r2, [r1]
 8009338:	627b      	str	r3, [r7, #36]	; 0x24
   return(result);
 800933a:	6a7b      	ldr	r3, [r7, #36]	; 0x24
 800933c:	2b00      	cmp	r3, #0
 800933e:	d1e5      	bne.n	800930c <UART_EndRxTransfer+0x3a>

  /* In case of reception waiting for IDLE event, disable also the IDLE IE interrupt source */
  if (huart->ReceptionType == HAL_UART_RECEPTION_TOIDLE)
 8009340:	687b      	ldr	r3, [r7, #4]
 8009342:	6e1b      	ldr	r3, [r3, #96]	; 0x60
 8009344:	2b01      	cmp	r3, #1
 8009346:	d118      	bne.n	800937a <UART_EndRxTransfer+0xa8>
  {
    ATOMIC_CLEAR_BIT(huart->Instance->CR1, USART_CR1_IDLEIE);
 8009348:	687b      	ldr	r3, [r7, #4]
 800934a:	681b      	ldr	r3, [r3, #0]
 800934c:	60fb      	str	r3, [r7, #12]
   __ASM volatile ("ldrex %0, %1" : "=r" (result) : "Q" (*addr) );
 800934e:	68fb      	ldr	r3, [r7, #12]
 8009350:	e853 3f00 	ldrex	r3, [r3]
 8009354:	60bb      	str	r3, [r7, #8]
   return(result);
 8009356:	68bb      	ldr	r3, [r7, #8]
 8009358:	f023 0310 	bic.w	r3, r3, #16
 800935c:	647b      	str	r3, [r7, #68]	; 0x44
 800935e:	687b      	ldr	r3, [r7, #4]
 8009360:	681b      	ldr	r3, [r3, #0]
 8009362:	461a      	mov	r2, r3
 8009364:	6c7b      	ldr	r3, [r7, #68]	; 0x44
 8009366:	61bb      	str	r3, [r7, #24]
 8009368:	617a      	str	r2, [r7, #20]
   __ASM volatile ("strex %0, %2, %1" : "=&r" (result), "=Q" (*addr) : "r" (value) );
 800936a:	6979      	ldr	r1, [r7, #20]
 800936c:	69ba      	ldr	r2, [r7, #24]
 800936e:	e841 2300 	strex	r3, r2, [r1]
 8009372:	613b      	str	r3, [r7, #16]
   return(result);
 8009374:	693b      	ldr	r3, [r7, #16]
 8009376:	2b00      	cmp	r3, #0
 8009378:	d1e6      	bne.n	8009348 <UART_EndRxTransfer+0x76>
  }

  /* At end of Rx process, restore huart->RxState to Ready */
  huart->RxState = HAL_UART_STATE_READY;
 800937a:	687b      	ldr	r3, [r7, #4]
 800937c:	2220      	movs	r2, #32
 800937e:	f8c3 2080 	str.w	r2, [r3, #128]	; 0x80
  huart->ReceptionType = HAL_UART_RECEPTION_STANDARD;
 8009382:	687b      	ldr	r3, [r7, #4]
 8009384:	2200      	movs	r2, #0
 8009386:	661a      	str	r2, [r3, #96]	; 0x60

  /* Reset RxIsr function pointer */
  huart->RxISR = NULL;
 8009388:	687b      	ldr	r3, [r7, #4]
 800938a:	2200      	movs	r2, #0
 800938c:	669a      	str	r2, [r3, #104]	; 0x68
}
 800938e:	bf00      	nop
 8009390:	3754      	adds	r7, #84	; 0x54
 8009392:	46bd      	mov	sp, r7
 8009394:	f85d 7b04 	ldr.w	r7, [sp], #4
 8009398:	4770      	bx	lr

0800939a <UART_DMAAbortOnError>:
  *         (To be called at end of DMA Abort procedure following error occurrence).
  * @param  hdma DMA handle.
  * @retval None
  */
static void UART_DMAAbortOnError(DMA_HandleTypeDef *hdma)
{
 800939a:	b580      	push	{r7, lr}
 800939c:	b084      	sub	sp, #16
 800939e:	af00      	add	r7, sp, #0
 80093a0:	6078      	str	r0, [r7, #4]
  UART_HandleTypeDef *huart = (UART_HandleTypeDef *)(hdma->Parent);
 80093a2:	687b      	ldr	r3, [r7, #4]
 80093a4:	6b9b      	ldr	r3, [r3, #56]	; 0x38
 80093a6:	60fb      	str	r3, [r7, #12]
  huart->RxXferCount = 0U;
 80093a8:	68fb      	ldr	r3, [r7, #12]
 80093aa:	2200      	movs	r2, #0
 80093ac:	f8a3 205a 	strh.w	r2, [r3, #90]	; 0x5a
  huart->TxXferCount = 0U;
 80093b0:	68fb      	ldr	r3, [r7, #12]
 80093b2:	2200      	movs	r2, #0
 80093b4:	f8a3 2052 	strh.w	r2, [r3, #82]	; 0x52

#if (USE_HAL_UART_REGISTER_CALLBACKS == 1)
  /*Call registered error callback*/
  huart->ErrorCallback(huart);
 80093b8:	68fb      	ldr	r3, [r7, #12]
 80093ba:	f8d3 3098 	ldr.w	r3, [r3, #152]	; 0x98
 80093be:	68f8      	ldr	r0, [r7, #12]
 80093c0:	4798      	blx	r3
#else
  /*Call legacy weak error callback*/
  HAL_UART_ErrorCallback(huart);
#endif /* USE_HAL_UART_REGISTER_CALLBACKS */
}
 80093c2:	bf00      	nop
 80093c4:	3710      	adds	r7, #16
 80093c6:	46bd      	mov	sp, r7
 80093c8:	bd80      	pop	{r7, pc}

080093ca <UART_EndTransmit_IT>:
  * @param  huart pointer to a UART_HandleTypeDef structure that contains
  *                the configuration information for the specified UART module.
  * @retval None
  */
static void UART_EndTransmit_IT(UART_HandleTypeDef *huart)
{
 80093ca:	b580      	push	{r7, lr}
 80093cc:	b088      	sub	sp, #32
 80093ce:	af00      	add	r7, sp, #0
 80093d0:	6078      	str	r0, [r7, #4]
  /* Disable the UART Transmit Complete Interrupt */
  ATOMIC_CLEAR_BIT(huart->Instance->CR1, USART_CR1_TCIE);
 80093d2:	687b      	ldr	r3, [r7, #4]
 80093d4:	681b      	ldr	r3, [r3, #0]
 80093d6:	60fb      	str	r3, [r7, #12]
   __ASM volatile ("ldrex %0, %1" : "=r" (result) : "Q" (*addr) );
 80093d8:	68fb      	ldr	r3, [r7, #12]
 80093da:	e853 3f00 	ldrex	r3, [r3]
 80093de:	60bb      	str	r3, [r7, #8]
   return(result);
 80093e0:	68bb      	ldr	r3, [r7, #8]
 80093e2:	f023 0340 	bic.w	r3, r3, #64	; 0x40
 80093e6:	61fb      	str	r3, [r7, #28]
 80093e8:	687b      	ldr	r3, [r7, #4]
 80093ea:	681b      	ldr	r3, [r3, #0]
 80093ec:	461a      	mov	r2, r3
 80093ee:	69fb      	ldr	r3, [r7, #28]
 80093f0:	61bb      	str	r3, [r7, #24]
 80093f2:	617a      	str	r2, [r7, #20]
   __ASM volatile ("strex %0, %2, %1" : "=&r" (result), "=Q" (*addr) : "r" (value) );
 80093f4:	6979      	ldr	r1, [r7, #20]
 80093f6:	69ba      	ldr	r2, [r7, #24]
 80093f8:	e841 2300 	strex	r3, r2, [r1]
 80093fc:	613b      	str	r3, [r7, #16]
   return(result);
 80093fe:	693b      	ldr	r3, [r7, #16]
 8009400:	2b00      	cmp	r3, #0
 8009402:	d1e6      	bne.n	80093d2 <UART_EndTransmit_IT+0x8>

  /* Tx process is ended, restore huart->gState to Ready */
  huart->gState = HAL_UART_STATE_READY;
 8009404:	687b      	ldr	r3, [r7, #4]
 8009406:	2220      	movs	r2, #32
 8009408:	67da      	str	r2, [r3, #124]	; 0x7c

  /* Cleat TxISR function pointer */
  huart->TxISR = NULL;
 800940a:	687b      	ldr	r3, [r7, #4]
 800940c:	2200      	movs	r2, #0
 800940e:	66da      	str	r2, [r3, #108]	; 0x6c

#if (USE_HAL_UART_REGISTER_CALLBACKS == 1)
  /*Call registered Tx complete callback*/
  huart->TxCpltCallback(huart);
 8009410:	687b      	ldr	r3, [r7, #4]
 8009412:	f8d3 308c 	ldr.w	r3, [r3, #140]	; 0x8c
 8009416:	6878      	ldr	r0, [r7, #4]
 8009418:	4798      	blx	r3
#else
  /*Call legacy weak Tx complete callback*/
  HAL_UART_TxCpltCallback(huart);
#endif /* USE_HAL_UART_REGISTER_CALLBACKS */
}
 800941a:	bf00      	nop
 800941c:	3720      	adds	r7, #32
 800941e:	46bd      	mov	sp, r7
 8009420:	bd80      	pop	{r7, pc}

08009422 <_ZdlPvj>:
 8009422:	f000 b811 	b.w	8009448 <_ZdlPv>

08009426 <_Znwj>:
 8009426:	2801      	cmp	r0, #1
 8009428:	bf38      	it	cc
 800942a:	2001      	movcc	r0, #1
 800942c:	b510      	push	{r4, lr}
 800942e:	4604      	mov	r4, r0
 8009430:	4620      	mov	r0, r4
 8009432:	f000 f81b 	bl	800946c <malloc>
 8009436:	b100      	cbz	r0, 800943a <_Znwj+0x14>
 8009438:	bd10      	pop	{r4, pc}
 800943a:	f000 f807 	bl	800944c <_ZSt15get_new_handlerv>
 800943e:	b908      	cbnz	r0, 8009444 <_Znwj+0x1e>
 8009440:	f000 f80c 	bl	800945c <abort>
 8009444:	4780      	blx	r0
 8009446:	e7f3      	b.n	8009430 <_Znwj+0xa>

08009448 <_ZdlPv>:
 8009448:	f000 b818 	b.w	800947c <free>

0800944c <_ZSt15get_new_handlerv>:
 800944c:	4b02      	ldr	r3, [pc, #8]	; (8009458 <_ZSt15get_new_handlerv+0xc>)
 800944e:	6818      	ldr	r0, [r3, #0]
 8009450:	f3bf 8f5b 	dmb	ish
 8009454:	4770      	bx	lr
 8009456:	bf00      	nop
 8009458:	20000420 	.word	0x20000420

0800945c <abort>:
 800945c:	b508      	push	{r3, lr}
 800945e:	2006      	movs	r0, #6
 8009460:	f000 f8f0 	bl	8009644 <raise>
 8009464:	2001      	movs	r0, #1
 8009466:	f7fa ff39 	bl	80042dc <_exit>
	...

0800946c <malloc>:
 800946c:	4b02      	ldr	r3, [pc, #8]	; (8009478 <malloc+0xc>)
 800946e:	4601      	mov	r1, r0
 8009470:	6818      	ldr	r0, [r3, #0]
 8009472:	f000 b82b 	b.w	80094cc <_malloc_r>
 8009476:	bf00      	nop
 8009478:	2000018c 	.word	0x2000018c

0800947c <free>:
 800947c:	4b02      	ldr	r3, [pc, #8]	; (8009488 <free+0xc>)
 800947e:	4601      	mov	r1, r0
 8009480:	6818      	ldr	r0, [r3, #0]
 8009482:	f000 b945 	b.w	8009710 <_free_r>
 8009486:	bf00      	nop
 8009488:	2000018c 	.word	0x2000018c

0800948c <sbrk_aligned>:
 800948c:	b570      	push	{r4, r5, r6, lr}
 800948e:	4e0e      	ldr	r6, [pc, #56]	; (80094c8 <sbrk_aligned+0x3c>)
 8009490:	460c      	mov	r4, r1
 8009492:	6831      	ldr	r1, [r6, #0]
 8009494:	4605      	mov	r5, r0
 8009496:	b911      	cbnz	r1, 800949e <sbrk_aligned+0x12>
 8009498:	f000 f8f0 	bl	800967c <_sbrk_r>
 800949c:	6030      	str	r0, [r6, #0]
 800949e:	4621      	mov	r1, r4
 80094a0:	4628      	mov	r0, r5
 80094a2:	f000 f8eb 	bl	800967c <_sbrk_r>
 80094a6:	1c43      	adds	r3, r0, #1
 80094a8:	d00a      	beq.n	80094c0 <sbrk_aligned+0x34>
 80094aa:	1cc4      	adds	r4, r0, #3
 80094ac:	f024 0403 	bic.w	r4, r4, #3
 80094b0:	42a0      	cmp	r0, r4
 80094b2:	d007      	beq.n	80094c4 <sbrk_aligned+0x38>
 80094b4:	1a21      	subs	r1, r4, r0
 80094b6:	4628      	mov	r0, r5
 80094b8:	f000 f8e0 	bl	800967c <_sbrk_r>
 80094bc:	3001      	adds	r0, #1
 80094be:	d101      	bne.n	80094c4 <sbrk_aligned+0x38>
 80094c0:	f04f 34ff 	mov.w	r4, #4294967295	; 0xffffffff
 80094c4:	4620      	mov	r0, r4
 80094c6:	bd70      	pop	{r4, r5, r6, pc}
 80094c8:	20000428 	.word	0x20000428

080094cc <_malloc_r>:
 80094cc:	e92d 43f8 	stmdb	sp!, {r3, r4, r5, r6, r7, r8, r9, lr}
 80094d0:	1ccd      	adds	r5, r1, #3
 80094d2:	f025 0503 	bic.w	r5, r5, #3
 80094d6:	3508      	adds	r5, #8
 80094d8:	2d0c      	cmp	r5, #12
 80094da:	bf38      	it	cc
 80094dc:	250c      	movcc	r5, #12
 80094de:	2d00      	cmp	r5, #0
 80094e0:	4607      	mov	r7, r0
 80094e2:	db01      	blt.n	80094e8 <_malloc_r+0x1c>
 80094e4:	42a9      	cmp	r1, r5
 80094e6:	d905      	bls.n	80094f4 <_malloc_r+0x28>
 80094e8:	230c      	movs	r3, #12
 80094ea:	603b      	str	r3, [r7, #0]
 80094ec:	2600      	movs	r6, #0
 80094ee:	4630      	mov	r0, r6
 80094f0:	e8bd 83f8 	ldmia.w	sp!, {r3, r4, r5, r6, r7, r8, r9, pc}
 80094f4:	f8df 80d0 	ldr.w	r8, [pc, #208]	; 80095c8 <_malloc_r+0xfc>
 80094f8:	f000 f868 	bl	80095cc <__malloc_lock>
 80094fc:	f8d8 3000 	ldr.w	r3, [r8]
 8009500:	461c      	mov	r4, r3
 8009502:	bb5c      	cbnz	r4, 800955c <_malloc_r+0x90>
 8009504:	4629      	mov	r1, r5
 8009506:	4638      	mov	r0, r7
 8009508:	f7ff ffc0 	bl	800948c <sbrk_aligned>
 800950c:	1c43      	adds	r3, r0, #1
 800950e:	4604      	mov	r4, r0
 8009510:	d155      	bne.n	80095be <_malloc_r+0xf2>
 8009512:	f8d8 4000 	ldr.w	r4, [r8]
 8009516:	4626      	mov	r6, r4
 8009518:	2e00      	cmp	r6, #0
 800951a:	d145      	bne.n	80095a8 <_malloc_r+0xdc>
 800951c:	2c00      	cmp	r4, #0
 800951e:	d048      	beq.n	80095b2 <_malloc_r+0xe6>
 8009520:	6823      	ldr	r3, [r4, #0]
 8009522:	4631      	mov	r1, r6
 8009524:	4638      	mov	r0, r7
 8009526:	eb04 0903 	add.w	r9, r4, r3
 800952a:	f000 f8a7 	bl	800967c <_sbrk_r>
 800952e:	4581      	cmp	r9, r0
 8009530:	d13f      	bne.n	80095b2 <_malloc_r+0xe6>
 8009532:	6821      	ldr	r1, [r4, #0]
 8009534:	1a6d      	subs	r5, r5, r1
 8009536:	4629      	mov	r1, r5
 8009538:	4638      	mov	r0, r7
 800953a:	f7ff ffa7 	bl	800948c <sbrk_aligned>
 800953e:	3001      	adds	r0, #1
 8009540:	d037      	beq.n	80095b2 <_malloc_r+0xe6>
 8009542:	6823      	ldr	r3, [r4, #0]
 8009544:	442b      	add	r3, r5
 8009546:	6023      	str	r3, [r4, #0]
 8009548:	f8d8 3000 	ldr.w	r3, [r8]
 800954c:	2b00      	cmp	r3, #0
 800954e:	d038      	beq.n	80095c2 <_malloc_r+0xf6>
 8009550:	685a      	ldr	r2, [r3, #4]
 8009552:	42a2      	cmp	r2, r4
 8009554:	d12b      	bne.n	80095ae <_malloc_r+0xe2>
 8009556:	2200      	movs	r2, #0
 8009558:	605a      	str	r2, [r3, #4]
 800955a:	e00f      	b.n	800957c <_malloc_r+0xb0>
 800955c:	6822      	ldr	r2, [r4, #0]
 800955e:	1b52      	subs	r2, r2, r5
 8009560:	d41f      	bmi.n	80095a2 <_malloc_r+0xd6>
 8009562:	2a0b      	cmp	r2, #11
 8009564:	d917      	bls.n	8009596 <_malloc_r+0xca>
 8009566:	1961      	adds	r1, r4, r5
 8009568:	42a3      	cmp	r3, r4
 800956a:	6025      	str	r5, [r4, #0]
 800956c:	bf18      	it	ne
 800956e:	6059      	strne	r1, [r3, #4]
 8009570:	6863      	ldr	r3, [r4, #4]
 8009572:	bf08      	it	eq
 8009574:	f8c8 1000 	streq.w	r1, [r8]
 8009578:	5162      	str	r2, [r4, r5]
 800957a:	604b      	str	r3, [r1, #4]
 800957c:	4638      	mov	r0, r7
 800957e:	f104 060b 	add.w	r6, r4, #11
 8009582:	f000 f829 	bl	80095d8 <__malloc_unlock>
 8009586:	f026 0607 	bic.w	r6, r6, #7
 800958a:	1d23      	adds	r3, r4, #4
 800958c:	1af2      	subs	r2, r6, r3
 800958e:	d0ae      	beq.n	80094ee <_malloc_r+0x22>
 8009590:	1b9b      	subs	r3, r3, r6
 8009592:	50a3      	str	r3, [r4, r2]
 8009594:	e7ab      	b.n	80094ee <_malloc_r+0x22>
 8009596:	42a3      	cmp	r3, r4
 8009598:	6862      	ldr	r2, [r4, #4]
 800959a:	d1dd      	bne.n	8009558 <_malloc_r+0x8c>
 800959c:	f8c8 2000 	str.w	r2, [r8]
 80095a0:	e7ec      	b.n	800957c <_malloc_r+0xb0>
 80095a2:	4623      	mov	r3, r4
 80095a4:	6864      	ldr	r4, [r4, #4]
 80095a6:	e7ac      	b.n	8009502 <_malloc_r+0x36>
 80095a8:	4634      	mov	r4, r6
 80095aa:	6876      	ldr	r6, [r6, #4]
 80095ac:	e7b4      	b.n	8009518 <_malloc_r+0x4c>
 80095ae:	4613      	mov	r3, r2
 80095b0:	e7cc      	b.n	800954c <_malloc_r+0x80>
 80095b2:	230c      	movs	r3, #12
 80095b4:	603b      	str	r3, [r7, #0]
 80095b6:	4638      	mov	r0, r7
 80095b8:	f000 f80e 	bl	80095d8 <__malloc_unlock>
 80095bc:	e797      	b.n	80094ee <_malloc_r+0x22>
 80095be:	6025      	str	r5, [r4, #0]
 80095c0:	e7dc      	b.n	800957c <_malloc_r+0xb0>
 80095c2:	605b      	str	r3, [r3, #4]
 80095c4:	deff      	udf	#255	; 0xff
 80095c6:	bf00      	nop
 80095c8:	20000424 	.word	0x20000424

080095cc <__malloc_lock>:
 80095cc:	4801      	ldr	r0, [pc, #4]	; (80095d4 <__malloc_lock+0x8>)
 80095ce:	f000 b88f 	b.w	80096f0 <__retarget_lock_acquire_recursive>
 80095d2:	bf00      	nop
 80095d4:	20000568 	.word	0x20000568

080095d8 <__malloc_unlock>:
 80095d8:	4801      	ldr	r0, [pc, #4]	; (80095e0 <__malloc_unlock+0x8>)
 80095da:	f000 b88a 	b.w	80096f2 <__retarget_lock_release_recursive>
 80095de:	bf00      	nop
 80095e0:	20000568 	.word	0x20000568

080095e4 <memset>:
 80095e4:	4402      	add	r2, r0
 80095e6:	4603      	mov	r3, r0
 80095e8:	4293      	cmp	r3, r2
 80095ea:	d100      	bne.n	80095ee <memset+0xa>
 80095ec:	4770      	bx	lr
 80095ee:	f803 1b01 	strb.w	r1, [r3], #1
 80095f2:	e7f9      	b.n	80095e8 <memset+0x4>

080095f4 <_raise_r>:
 80095f4:	291f      	cmp	r1, #31
 80095f6:	b538      	push	{r3, r4, r5, lr}
 80095f8:	4604      	mov	r4, r0
 80095fa:	460d      	mov	r5, r1
 80095fc:	d904      	bls.n	8009608 <_raise_r+0x14>
 80095fe:	2316      	movs	r3, #22
 8009600:	6003      	str	r3, [r0, #0]
 8009602:	f04f 30ff 	mov.w	r0, #4294967295	; 0xffffffff
 8009606:	bd38      	pop	{r3, r4, r5, pc}
 8009608:	6bc2      	ldr	r2, [r0, #60]	; 0x3c
 800960a:	b112      	cbz	r2, 8009612 <_raise_r+0x1e>
 800960c:	f852 3021 	ldr.w	r3, [r2, r1, lsl #2]
 8009610:	b94b      	cbnz	r3, 8009626 <_raise_r+0x32>
 8009612:	4620      	mov	r0, r4
 8009614:	f000 f830 	bl	8009678 <_getpid_r>
 8009618:	462a      	mov	r2, r5
 800961a:	4601      	mov	r1, r0
 800961c:	4620      	mov	r0, r4
 800961e:	e8bd 4038 	ldmia.w	sp!, {r3, r4, r5, lr}
 8009622:	f000 b817 	b.w	8009654 <_kill_r>
 8009626:	2b01      	cmp	r3, #1
 8009628:	d00a      	beq.n	8009640 <_raise_r+0x4c>
 800962a:	1c59      	adds	r1, r3, #1
 800962c:	d103      	bne.n	8009636 <_raise_r+0x42>
 800962e:	2316      	movs	r3, #22
 8009630:	6003      	str	r3, [r0, #0]
 8009632:	2001      	movs	r0, #1
 8009634:	e7e7      	b.n	8009606 <_raise_r+0x12>
 8009636:	2400      	movs	r4, #0
 8009638:	f842 4025 	str.w	r4, [r2, r5, lsl #2]
 800963c:	4628      	mov	r0, r5
 800963e:	4798      	blx	r3
 8009640:	2000      	movs	r0, #0
 8009642:	e7e0      	b.n	8009606 <_raise_r+0x12>

08009644 <raise>:
 8009644:	4b02      	ldr	r3, [pc, #8]	; (8009650 <raise+0xc>)
 8009646:	4601      	mov	r1, r0
 8009648:	6818      	ldr	r0, [r3, #0]
 800964a:	f7ff bfd3 	b.w	80095f4 <_raise_r>
 800964e:	bf00      	nop
 8009650:	2000018c 	.word	0x2000018c

08009654 <_kill_r>:
 8009654:	b538      	push	{r3, r4, r5, lr}
 8009656:	4d07      	ldr	r5, [pc, #28]	; (8009674 <_kill_r+0x20>)
 8009658:	2300      	movs	r3, #0
 800965a:	4604      	mov	r4, r0
 800965c:	4608      	mov	r0, r1
 800965e:	4611      	mov	r1, r2
 8009660:	602b      	str	r3, [r5, #0]
 8009662:	f7fa fe2b 	bl	80042bc <_kill>
 8009666:	1c43      	adds	r3, r0, #1
 8009668:	d102      	bne.n	8009670 <_kill_r+0x1c>
 800966a:	682b      	ldr	r3, [r5, #0]
 800966c:	b103      	cbz	r3, 8009670 <_kill_r+0x1c>
 800966e:	6023      	str	r3, [r4, #0]
 8009670:	bd38      	pop	{r3, r4, r5, pc}
 8009672:	bf00      	nop
 8009674:	20000564 	.word	0x20000564

08009678 <_getpid_r>:
 8009678:	f7fa be18 	b.w	80042ac <_getpid>

0800967c <_sbrk_r>:
 800967c:	b538      	push	{r3, r4, r5, lr}
 800967e:	4d06      	ldr	r5, [pc, #24]	; (8009698 <_sbrk_r+0x1c>)
 8009680:	2300      	movs	r3, #0
 8009682:	4604      	mov	r4, r0
 8009684:	4608      	mov	r0, r1
 8009686:	602b      	str	r3, [r5, #0]
 8009688:	f7fa fe32 	bl	80042f0 <_sbrk>
 800968c:	1c43      	adds	r3, r0, #1
 800968e:	d102      	bne.n	8009696 <_sbrk_r+0x1a>
 8009690:	682b      	ldr	r3, [r5, #0]
 8009692:	b103      	cbz	r3, 8009696 <_sbrk_r+0x1a>
 8009694:	6023      	str	r3, [r4, #0]
 8009696:	bd38      	pop	{r3, r4, r5, pc}
 8009698:	20000564 	.word	0x20000564

0800969c <__errno>:
 800969c:	4b01      	ldr	r3, [pc, #4]	; (80096a4 <__errno+0x8>)
 800969e:	6818      	ldr	r0, [r3, #0]
 80096a0:	4770      	bx	lr
 80096a2:	bf00      	nop
 80096a4:	2000018c 	.word	0x2000018c

080096a8 <__libc_init_array>:
 80096a8:	b570      	push	{r4, r5, r6, lr}
 80096aa:	4d0d      	ldr	r5, [pc, #52]	; (80096e0 <__libc_init_array+0x38>)
 80096ac:	4c0d      	ldr	r4, [pc, #52]	; (80096e4 <__libc_init_array+0x3c>)
 80096ae:	1b64      	subs	r4, r4, r5
 80096b0:	10a4      	asrs	r4, r4, #2
 80096b2:	2600      	movs	r6, #0
 80096b4:	42a6      	cmp	r6, r4
 80096b6:	d109      	bne.n	80096cc <__libc_init_array+0x24>
 80096b8:	4d0b      	ldr	r5, [pc, #44]	; (80096e8 <__libc_init_array+0x40>)
 80096ba:	4c0c      	ldr	r4, [pc, #48]	; (80096ec <__libc_init_array+0x44>)
 80096bc:	f000 f874 	bl	80097a8 <_init>
 80096c0:	1b64      	subs	r4, r4, r5
 80096c2:	10a4      	asrs	r4, r4, #2
 80096c4:	2600      	movs	r6, #0
 80096c6:	42a6      	cmp	r6, r4
 80096c8:	d105      	bne.n	80096d6 <__libc_init_array+0x2e>
 80096ca:	bd70      	pop	{r4, r5, r6, pc}
 80096cc:	f855 3b04 	ldr.w	r3, [r5], #4
 80096d0:	4798      	blx	r3
 80096d2:	3601      	adds	r6, #1
 80096d4:	e7ee      	b.n	80096b4 <__libc_init_array+0xc>
 80096d6:	f855 3b04 	ldr.w	r3, [r5], #4
 80096da:	4798      	blx	r3
 80096dc:	3601      	adds	r6, #1
 80096de:	e7f2      	b.n	80096c6 <__libc_init_array+0x1e>
 80096e0:	080098bc 	.word	0x080098bc
 80096e4:	080098bc 	.word	0x080098bc
 80096e8:	080098bc 	.word	0x080098bc
 80096ec:	080098c0 	.word	0x080098c0

080096f0 <__retarget_lock_acquire_recursive>:
 80096f0:	4770      	bx	lr

080096f2 <__retarget_lock_release_recursive>:
 80096f2:	4770      	bx	lr

080096f4 <memcpy>:
 80096f4:	440a      	add	r2, r1
 80096f6:	4291      	cmp	r1, r2
 80096f8:	f100 33ff 	add.w	r3, r0, #4294967295	; 0xffffffff
 80096fc:	d100      	bne.n	8009700 <memcpy+0xc>
 80096fe:	4770      	bx	lr
 8009700:	b510      	push	{r4, lr}
 8009702:	f811 4b01 	ldrb.w	r4, [r1], #1
 8009706:	f803 4f01 	strb.w	r4, [r3, #1]!
 800970a:	4291      	cmp	r1, r2
 800970c:	d1f9      	bne.n	8009702 <memcpy+0xe>
 800970e:	bd10      	pop	{r4, pc}

08009710 <_free_r>:
 8009710:	b537      	push	{r0, r1, r2, r4, r5, lr}
 8009712:	2900      	cmp	r1, #0
 8009714:	d044      	beq.n	80097a0 <_free_r+0x90>
 8009716:	f851 3c04 	ldr.w	r3, [r1, #-4]
 800971a:	9001      	str	r0, [sp, #4]
 800971c:	2b00      	cmp	r3, #0
 800971e:	f1a1 0404 	sub.w	r4, r1, #4
 8009722:	bfb8      	it	lt
 8009724:	18e4      	addlt	r4, r4, r3
 8009726:	f7ff ff51 	bl	80095cc <__malloc_lock>
 800972a:	4a1e      	ldr	r2, [pc, #120]	; (80097a4 <_free_r+0x94>)
 800972c:	9801      	ldr	r0, [sp, #4]
 800972e:	6813      	ldr	r3, [r2, #0]
 8009730:	b933      	cbnz	r3, 8009740 <_free_r+0x30>
 8009732:	6063      	str	r3, [r4, #4]
 8009734:	6014      	str	r4, [r2, #0]
 8009736:	b003      	add	sp, #12
 8009738:	e8bd 4030 	ldmia.w	sp!, {r4, r5, lr}
 800973c:	f7ff bf4c 	b.w	80095d8 <__malloc_unlock>
 8009740:	42a3      	cmp	r3, r4
 8009742:	d908      	bls.n	8009756 <_free_r+0x46>
 8009744:	6825      	ldr	r5, [r4, #0]
 8009746:	1961      	adds	r1, r4, r5
 8009748:	428b      	cmp	r3, r1
 800974a:	bf01      	itttt	eq
 800974c:	6819      	ldreq	r1, [r3, #0]
 800974e:	685b      	ldreq	r3, [r3, #4]
 8009750:	1949      	addeq	r1, r1, r5
 8009752:	6021      	streq	r1, [r4, #0]
 8009754:	e7ed      	b.n	8009732 <_free_r+0x22>
 8009756:	461a      	mov	r2, r3
 8009758:	685b      	ldr	r3, [r3, #4]
 800975a:	b10b      	cbz	r3, 8009760 <_free_r+0x50>
 800975c:	42a3      	cmp	r3, r4
 800975e:	d9fa      	bls.n	8009756 <_free_r+0x46>
 8009760:	6811      	ldr	r1, [r2, #0]
 8009762:	1855      	adds	r5, r2, r1
 8009764:	42a5      	cmp	r5, r4
 8009766:	d10b      	bne.n	8009780 <_free_r+0x70>
 8009768:	6824      	ldr	r4, [r4, #0]
 800976a:	4421      	add	r1, r4
 800976c:	1854      	adds	r4, r2, r1
 800976e:	42a3      	cmp	r3, r4
 8009770:	6011      	str	r1, [r2, #0]
 8009772:	d1e0      	bne.n	8009736 <_free_r+0x26>
 8009774:	681c      	ldr	r4, [r3, #0]
 8009776:	685b      	ldr	r3, [r3, #4]
 8009778:	6053      	str	r3, [r2, #4]
 800977a:	440c      	add	r4, r1
 800977c:	6014      	str	r4, [r2, #0]
 800977e:	e7da      	b.n	8009736 <_free_r+0x26>
 8009780:	d902      	bls.n	8009788 <_free_r+0x78>
 8009782:	230c      	movs	r3, #12
 8009784:	6003      	str	r3, [r0, #0]
 8009786:	e7d6      	b.n	8009736 <_free_r+0x26>
 8009788:	6825      	ldr	r5, [r4, #0]
 800978a:	1961      	adds	r1, r4, r5
 800978c:	428b      	cmp	r3, r1
 800978e:	bf04      	itt	eq
 8009790:	6819      	ldreq	r1, [r3, #0]
 8009792:	685b      	ldreq	r3, [r3, #4]
 8009794:	6063      	str	r3, [r4, #4]
 8009796:	bf04      	itt	eq
 8009798:	1949      	addeq	r1, r1, r5
 800979a:	6021      	streq	r1, [r4, #0]
 800979c:	6054      	str	r4, [r2, #4]
 800979e:	e7ca      	b.n	8009736 <_free_r+0x26>
 80097a0:	b003      	add	sp, #12
 80097a2:	bd30      	pop	{r4, r5, pc}
 80097a4:	20000424 	.word	0x20000424

080097a8 <_init>:
 80097a8:	b5f8      	push	{r3, r4, r5, r6, r7, lr}
 80097aa:	bf00      	nop
 80097ac:	bcf8      	pop	{r3, r4, r5, r6, r7}
 80097ae:	bc08      	pop	{r3}
 80097b0:	469e      	mov	lr, r3
 80097b2:	4770      	bx	lr

080097b4 <_fini>:
 80097b4:	b5f8      	push	{r3, r4, r5, r6, r7, lr}
 80097b6:	bf00      	nop
 80097b8:	bcf8      	pop	{r3, r4, r5, r6, r7}
 80097ba:	bc08      	pop	{r3}
 80097bc:	469e      	mov	lr, r3
 80097be:	4770      	bx	lr
